
FirmwareV3.elf:     file format elf32-littlearm

Sections:
Idx Name          Size      VMA       LMA       File off  Algn
  0 .text         00003f5c  00000000  00000000  00008000  2**2
                  CONTENTS, ALLOC, LOAD, READONLY, CODE
  1 .ARM.exidx    00000008  00003f5c  00003f5c  0000bf5c  2**2
                  CONTENTS, ALLOC, LOAD, READONLY, DATA
  2 .relocate     0000000c  20000000  00003f64  00010000  2**2
                  CONTENTS, ALLOC, LOAD, DATA
  3 .bss          00000994  2000000c  00003f70  0001000c  2**2
                  ALLOC
  4 .stack        00001000  200009a0  00004904  0001000c  2**0
                  ALLOC
  5 .ARM.attributes 00000028  00000000  00000000  0001000c  2**0
                  CONTENTS, READONLY
  6 .comment      0000005b  00000000  00000000  00010034  2**0
                  CONTENTS, READONLY
  7 .debug_frame  00000190  00000000  00000000  00010090  2**2
                  CONTENTS, READONLY, DEBUGGING

Disassembly of section .text:

00000000 <_sfixed>:
       0:	200019a0 	.word	0x200019a0
       4:	000033bd 	.word	0x000033bd
       8:	000033b9 	.word	0x000033b9
       c:	000033b9 	.word	0x000033b9
	...
      2c:	000033b9 	.word	0x000033b9
	...
      38:	000033b9 	.word	0x000033b9
      3c:	000033b9 	.word	0x000033b9
      40:	000033b9 	.word	0x000033b9
      44:	000033b9 	.word	0x000033b9
      48:	000033b9 	.word	0x000033b9
      4c:	000033b9 	.word	0x000033b9
      50:	000033b9 	.word	0x000033b9
      54:	000033b9 	.word	0x000033b9
      58:	000033b9 	.word	0x000033b9
      5c:	000033b9 	.word	0x000033b9
      60:	000033b9 	.word	0x000033b9
      64:	000033b9 	.word	0x000033b9
      68:	000033b9 	.word	0x000033b9
	...
      74:	00000be5 	.word	0x00000be5
      78:	00000bf5 	.word	0x00000bf5
      7c:	00000c05 	.word	0x00000c05
      80:	00000c15 	.word	0x00000c15
      84:	00000c25 	.word	0x00000c25
      88:	00000c35 	.word	0x00000c35
	...
      94:	000033b9 	.word	0x000033b9
      98:	000033b9 	.word	0x000033b9
      9c:	000033b9 	.word	0x000033b9
      a0:	000033b9 	.word	0x000033b9

000000a4 <__do_global_dtors_aux>:
      a4:	b510      	push	{r4, lr}
      a6:	4c06      	ldr	r4, [pc, #24]	; (c0 <__do_global_dtors_aux+0x1c>)
      a8:	7823      	ldrb	r3, [r4, #0]
      aa:	2b00      	cmp	r3, #0
      ac:	d107      	bne.n	be <__do_global_dtors_aux+0x1a>
      ae:	4b05      	ldr	r3, [pc, #20]	; (c4 <__do_global_dtors_aux+0x20>)
      b0:	2b00      	cmp	r3, #0
      b2:	d002      	beq.n	ba <__do_global_dtors_aux+0x16>
      b4:	4804      	ldr	r0, [pc, #16]	; (c8 <__do_global_dtors_aux+0x24>)
      b6:	e000      	b.n	ba <__do_global_dtors_aux+0x16>
      b8:	bf00      	nop
      ba:	2301      	movs	r3, #1
      bc:	7023      	strb	r3, [r4, #0]
      be:	bd10      	pop	{r4, pc}
      c0:	2000000c 	.word	0x2000000c
      c4:	00000000 	.word	0x00000000
      c8:	00003f64 	.word	0x00003f64

000000cc <frame_dummy>:
      cc:	b508      	push	{r3, lr}
      ce:	4b08      	ldr	r3, [pc, #32]	; (f0 <frame_dummy+0x24>)
      d0:	2b00      	cmp	r3, #0
      d2:	d003      	beq.n	dc <frame_dummy+0x10>
      d4:	4807      	ldr	r0, [pc, #28]	; (f4 <frame_dummy+0x28>)
      d6:	4908      	ldr	r1, [pc, #32]	; (f8 <frame_dummy+0x2c>)
      d8:	e000      	b.n	dc <frame_dummy+0x10>
      da:	bf00      	nop
      dc:	4807      	ldr	r0, [pc, #28]	; (fc <frame_dummy+0x30>)
      de:	6803      	ldr	r3, [r0, #0]
      e0:	2b00      	cmp	r3, #0
      e2:	d100      	bne.n	e6 <frame_dummy+0x1a>
      e4:	bd08      	pop	{r3, pc}
      e6:	4b06      	ldr	r3, [pc, #24]	; (100 <frame_dummy+0x34>)
      e8:	2b00      	cmp	r3, #0
      ea:	d0fb      	beq.n	e4 <frame_dummy+0x18>
      ec:	4798      	blx	r3
      ee:	e7f9      	b.n	e4 <frame_dummy+0x18>
      f0:	00000000 	.word	0x00000000
      f4:	00003f64 	.word	0x00003f64
      f8:	20000010 	.word	0x20000010
      fc:	00003f64 	.word	0x00003f64
     100:	00000000 	.word	0x00000000

00000104 <Enviar_ABA_TK2>:
     104:	4b7a      	ldr	r3, [pc, #488]	; (2f0 <Enviar_ABA_TK2+0x1ec>)
     106:	b5f0      	push	{r4, r5, r6, r7, lr}
     108:	464d      	mov	r5, r9
     10a:	4699      	mov	r9, r3
     10c:	465f      	mov	r7, fp
     10e:	4644      	mov	r4, r8
     110:	4656      	mov	r6, sl
     112:	230b      	movs	r3, #11
     114:	464a      	mov	r2, r9
     116:	b4f0      	push	{r4, r5, r6, r7}
     118:	7013      	strb	r3, [r2, #0]
     11a:	3314      	adds	r3, #20
     11c:	73d3      	strb	r3, [r2, #15]
     11e:	4b75      	ldr	r3, [pc, #468]	; (2f4 <Enviar_ABA_TK2+0x1f0>)
     120:	464f      	mov	r7, r9
     122:	1c04      	adds	r4, r0, #0
     124:	1c0d      	adds	r5, r1, #0
     126:	46cb      	mov	fp, r9
     128:	4698      	mov	r8, r3
     12a:	2601      	movs	r6, #1
     12c:	b083      	sub	sp, #12
     12e:	370e      	adds	r7, #14
     130:	1c20      	adds	r0, r4, #0
     132:	1c29      	adds	r1, r5, #0
     134:	220a      	movs	r2, #10
     136:	2300      	movs	r3, #0
     138:	47c0      	blx	r8
     13a:	b2d0      	uxtb	r0, r2
     13c:	1c01      	adds	r1, r0, #0
     13e:	431a      	orrs	r2, r3
     140:	d100      	bne.n	144 <Enviar_ABA_TK2+0x40>
     142:	e0cc      	b.n	2de <Enviar_ABA_TK2+0x1da>
     144:	2300      	movs	r3, #0
     146:	1c32      	adds	r2, r6, #0
     148:	400a      	ands	r2, r1
     14a:	4053      	eors	r3, r2
     14c:	0849      	lsrs	r1, r1, #1
     14e:	d1fa      	bne.n	146 <Enviar_ABA_TK2+0x42>
     150:	425a      	negs	r2, r3
     152:	4153      	adcs	r3, r2
     154:	011b      	lsls	r3, r3, #4
     156:	4303      	orrs	r3, r0
     158:	703b      	strb	r3, [r7, #0]
     15a:	1c20      	adds	r0, r4, #0
     15c:	1c29      	adds	r1, r5, #0
     15e:	220a      	movs	r2, #10
     160:	2300      	movs	r3, #0
     162:	47c0      	blx	r8
     164:	3f01      	subs	r7, #1
     166:	1c04      	adds	r4, r0, #0
     168:	1c0d      	adds	r5, r1, #0
     16a:	455f      	cmp	r7, fp
     16c:	d1e0      	bne.n	130 <Enviar_ABA_TK2+0x2c>
     16e:	464b      	mov	r3, r9
     170:	7b9c      	ldrb	r4, [r3, #14]
     172:	7bdb      	ldrb	r3, [r3, #15]
     174:	405c      	eors	r4, r3
     176:	464b      	mov	r3, r9
     178:	7b5b      	ldrb	r3, [r3, #13]
     17a:	405c      	eors	r4, r3
     17c:	464b      	mov	r3, r9
     17e:	7b1b      	ldrb	r3, [r3, #12]
     180:	405c      	eors	r4, r3
     182:	464b      	mov	r3, r9
     184:	7adb      	ldrb	r3, [r3, #11]
     186:	405c      	eors	r4, r3
     188:	464b      	mov	r3, r9
     18a:	7a9b      	ldrb	r3, [r3, #10]
     18c:	405c      	eors	r4, r3
     18e:	464b      	mov	r3, r9
     190:	7a5b      	ldrb	r3, [r3, #9]
     192:	405c      	eors	r4, r3
     194:	464b      	mov	r3, r9
     196:	7a1b      	ldrb	r3, [r3, #8]
     198:	405c      	eors	r4, r3
     19a:	464b      	mov	r3, r9
     19c:	79db      	ldrb	r3, [r3, #7]
     19e:	405c      	eors	r4, r3
     1a0:	464b      	mov	r3, r9
     1a2:	799b      	ldrb	r3, [r3, #6]
     1a4:	405c      	eors	r4, r3
     1a6:	464b      	mov	r3, r9
     1a8:	795b      	ldrb	r3, [r3, #5]
     1aa:	405c      	eors	r4, r3
     1ac:	464b      	mov	r3, r9
     1ae:	791b      	ldrb	r3, [r3, #4]
     1b0:	405c      	eors	r4, r3
     1b2:	464b      	mov	r3, r9
     1b4:	78db      	ldrb	r3, [r3, #3]
     1b6:	405c      	eors	r4, r3
     1b8:	464b      	mov	r3, r9
     1ba:	789b      	ldrb	r3, [r3, #2]
     1bc:	405c      	eors	r4, r3
     1be:	464b      	mov	r3, r9
     1c0:	785b      	ldrb	r3, [r3, #1]
     1c2:	405c      	eors	r4, r3
     1c4:	464b      	mov	r3, r9
     1c6:	781b      	ldrb	r3, [r3, #0]
     1c8:	405c      	eors	r4, r3
     1ca:	d100      	bne.n	1ce <Enviar_ABA_TK2+0xca>
     1cc:	e08c      	b.n	2e8 <Enviar_ABA_TK2+0x1e4>
     1ce:	1c23      	adds	r3, r4, #0
     1d0:	2200      	movs	r2, #0
     1d2:	2001      	movs	r0, #1
     1d4:	1c01      	adds	r1, r0, #0
     1d6:	4019      	ands	r1, r3
     1d8:	404a      	eors	r2, r1
     1da:	085b      	lsrs	r3, r3, #1
     1dc:	d1fa      	bne.n	1d4 <Enviar_ABA_TK2+0xd0>
     1de:	330f      	adds	r3, #15
     1e0:	401c      	ands	r4, r3
     1e2:	4253      	negs	r3, r2
     1e4:	415a      	adcs	r2, r3
     1e6:	0112      	lsls	r2, r2, #4
     1e8:	464b      	mov	r3, r9
     1ea:	4322      	orrs	r2, r4
     1ec:	741a      	strb	r2, [r3, #16]
     1ee:	2380      	movs	r3, #128	; 0x80
     1f0:	4d41      	ldr	r5, [pc, #260]	; (2f8 <Enviar_ABA_TK2+0x1f4>)
     1f2:	00db      	lsls	r3, r3, #3
     1f4:	61ab      	str	r3, [r5, #24]
     1f6:	4b41      	ldr	r3, [pc, #260]	; (2fc <Enviar_ABA_TK2+0x1f8>)
     1f8:	2014      	movs	r0, #20
     1fa:	2780      	movs	r7, #128	; 0x80
     1fc:	2680      	movs	r6, #128	; 0x80
     1fe:	4698      	mov	r8, r3
     200:	2405      	movs	r4, #5
     202:	4798      	blx	r3
     204:	00bf      	lsls	r7, r7, #2
     206:	0076      	lsls	r6, r6, #1
     208:	2078      	movs	r0, #120	; 0x78
     20a:	61af      	str	r7, [r5, #24]
     20c:	3c01      	subs	r4, #1
     20e:	47c0      	blx	r8
     210:	b2e4      	uxtb	r4, r4
     212:	61ae      	str	r6, [r5, #24]
     214:	2078      	movs	r0, #120	; 0x78
     216:	47c0      	blx	r8
     218:	616e      	str	r6, [r5, #20]
     21a:	2c00      	cmp	r4, #0
     21c:	d1f4      	bne.n	208 <Enviar_ABA_TK2+0x104>
     21e:	2780      	movs	r7, #128	; 0x80
     220:	2680      	movs	r6, #128	; 0x80
     222:	4d35      	ldr	r5, [pc, #212]	; (2f8 <Enviar_ABA_TK2+0x1f4>)
     224:	3405      	adds	r4, #5
     226:	00bf      	lsls	r7, r7, #2
     228:	0076      	lsls	r6, r6, #1
     22a:	2078      	movs	r0, #120	; 0x78
     22c:	61af      	str	r7, [r5, #24]
     22e:	3c01      	subs	r4, #1
     230:	47c0      	blx	r8
     232:	b2e4      	uxtb	r4, r4
     234:	61ae      	str	r6, [r5, #24]
     236:	2078      	movs	r0, #120	; 0x78
     238:	47c0      	blx	r8
     23a:	616e      	str	r6, [r5, #20]
     23c:	2c00      	cmp	r4, #0
     23e:	d1f4      	bne.n	22a <Enviar_ABA_TK2+0x126>
     240:	464b      	mov	r3, r9
     242:	3311      	adds	r3, #17
     244:	9301      	str	r3, [sp, #4]
     246:	2301      	movs	r3, #1
     248:	469a      	mov	sl, r3
     24a:	4f2b      	ldr	r7, [pc, #172]	; (2f8 <Enviar_ABA_TK2+0x1f4>)
     24c:	465b      	mov	r3, fp
     24e:	781d      	ldrb	r5, [r3, #0]
     250:	2380      	movs	r3, #128	; 0x80
     252:	009b      	lsls	r3, r3, #2
     254:	2405      	movs	r4, #5
     256:	4699      	mov	r9, r3
     258:	4653      	mov	r3, sl
     25a:	422b      	tst	r3, r5
     25c:	d041      	beq.n	2e2 <Enviar_ABA_TK2+0x1de>
     25e:	464b      	mov	r3, r9
     260:	617b      	str	r3, [r7, #20]
     262:	2680      	movs	r6, #128	; 0x80
     264:	2078      	movs	r0, #120	; 0x78
     266:	0076      	lsls	r6, r6, #1
     268:	3c01      	subs	r4, #1
     26a:	47c0      	blx	r8
     26c:	b2e4      	uxtb	r4, r4
     26e:	61be      	str	r6, [r7, #24]
     270:	2078      	movs	r0, #120	; 0x78
     272:	47c0      	blx	r8
     274:	086d      	lsrs	r5, r5, #1
     276:	617e      	str	r6, [r7, #20]
     278:	2c00      	cmp	r4, #0
     27a:	d1ed      	bne.n	258 <Enviar_ABA_TK2+0x154>
     27c:	2301      	movs	r3, #1
     27e:	469c      	mov	ip, r3
     280:	9b01      	ldr	r3, [sp, #4]
     282:	44e3      	add	fp, ip
     284:	459b      	cmp	fp, r3
     286:	d1e1      	bne.n	24c <Enviar_ABA_TK2+0x148>
     288:	2780      	movs	r7, #128	; 0x80
     28a:	4d1b      	ldr	r5, [pc, #108]	; (2f8 <Enviar_ABA_TK2+0x1f4>)
     28c:	3405      	adds	r4, #5
     28e:	00bf      	lsls	r7, r7, #2
     290:	2078      	movs	r0, #120	; 0x78
     292:	61af      	str	r7, [r5, #24]
     294:	3c01      	subs	r4, #1
     296:	47c0      	blx	r8
     298:	b2e4      	uxtb	r4, r4
     29a:	61ae      	str	r6, [r5, #24]
     29c:	2078      	movs	r0, #120	; 0x78
     29e:	47c0      	blx	r8
     2a0:	616e      	str	r6, [r5, #20]
     2a2:	2c00      	cmp	r4, #0
     2a4:	d1f4      	bne.n	290 <Enviar_ABA_TK2+0x18c>
     2a6:	2780      	movs	r7, #128	; 0x80
     2a8:	2680      	movs	r6, #128	; 0x80
     2aa:	4d13      	ldr	r5, [pc, #76]	; (2f8 <Enviar_ABA_TK2+0x1f4>)
     2ac:	3405      	adds	r4, #5
     2ae:	00bf      	lsls	r7, r7, #2
     2b0:	0076      	lsls	r6, r6, #1
     2b2:	2078      	movs	r0, #120	; 0x78
     2b4:	61af      	str	r7, [r5, #24]
     2b6:	3c01      	subs	r4, #1
     2b8:	47c0      	blx	r8
     2ba:	b2e4      	uxtb	r4, r4
     2bc:	61ae      	str	r6, [r5, #24]
     2be:	2078      	movs	r0, #120	; 0x78
     2c0:	47c0      	blx	r8
     2c2:	616e      	str	r6, [r5, #20]
     2c4:	2c00      	cmp	r4, #0
     2c6:	d1f4      	bne.n	2b2 <Enviar_ABA_TK2+0x1ae>
     2c8:	2280      	movs	r2, #128	; 0x80
     2ca:	4b0b      	ldr	r3, [pc, #44]	; (2f8 <Enviar_ABA_TK2+0x1f4>)
     2cc:	00d2      	lsls	r2, r2, #3
     2ce:	615a      	str	r2, [r3, #20]
     2d0:	b003      	add	sp, #12
     2d2:	bc3c      	pop	{r2, r3, r4, r5}
     2d4:	4690      	mov	r8, r2
     2d6:	4699      	mov	r9, r3
     2d8:	46a2      	mov	sl, r4
     2da:	46ab      	mov	fp, r5
     2dc:	bdf0      	pop	{r4, r5, r6, r7, pc}
     2de:	2310      	movs	r3, #16
     2e0:	e739      	b.n	156 <Enviar_ABA_TK2+0x52>
     2e2:	464b      	mov	r3, r9
     2e4:	61bb      	str	r3, [r7, #24]
     2e6:	e7bc      	b.n	262 <Enviar_ABA_TK2+0x15e>
     2e8:	2400      	movs	r4, #0
     2ea:	2210      	movs	r2, #16
     2ec:	e77c      	b.n	1e8 <Enviar_ABA_TK2+0xe4>
     2ee:	46c0      	nop			; (mov r8, r8)
     2f0:	20000028 	.word	0x20000028
     2f4:	000037d9 	.word	0x000037d9
     2f8:	41004400 	.word	0x41004400
     2fc:	0000033d 	.word	0x0000033d

00000300 <delay_init>:
     300:	b510      	push	{r4, lr}
     302:	2000      	movs	r0, #0
     304:	4b08      	ldr	r3, [pc, #32]	; (328 <delay_init+0x28>)
     306:	4798      	blx	r3
     308:	4c08      	ldr	r4, [pc, #32]	; (32c <delay_init+0x2c>)
     30a:	21fa      	movs	r1, #250	; 0xfa
     30c:	0089      	lsls	r1, r1, #2
     30e:	47a0      	blx	r4
     310:	4b07      	ldr	r3, [pc, #28]	; (330 <delay_init+0x30>)
     312:	6018      	str	r0, [r3, #0]
     314:	21fa      	movs	r1, #250	; 0xfa
     316:	0089      	lsls	r1, r1, #2
     318:	47a0      	blx	r4
     31a:	4b06      	ldr	r3, [pc, #24]	; (334 <delay_init+0x34>)
     31c:	6018      	str	r0, [r3, #0]
     31e:	2205      	movs	r2, #5
     320:	4b05      	ldr	r3, [pc, #20]	; (338 <delay_init+0x38>)
     322:	601a      	str	r2, [r3, #0]
     324:	bd10      	pop	{r4, pc}
     326:	46c0      	nop			; (mov r8, r8)
     328:	00003119 	.word	0x00003119
     32c:	000034d5 	.word	0x000034d5
     330:	20000004 	.word	0x20000004
     334:	20000000 	.word	0x20000000
     338:	e000e010 	.word	0xe000e010

0000033c <delay_cycles_us>:
     33c:	b530      	push	{r4, r5, lr}
     33e:	4b08      	ldr	r3, [pc, #32]	; (360 <delay_cycles_us+0x24>)
     340:	681c      	ldr	r4, [r3, #0]
     342:	4a08      	ldr	r2, [pc, #32]	; (364 <delay_cycles_us+0x28>)
     344:	2500      	movs	r5, #0
     346:	2180      	movs	r1, #128	; 0x80
     348:	0249      	lsls	r1, r1, #9
     34a:	e006      	b.n	35a <delay_cycles_us+0x1e>
     34c:	2c00      	cmp	r4, #0
     34e:	d004      	beq.n	35a <delay_cycles_us+0x1e>
     350:	6054      	str	r4, [r2, #4]
     352:	6095      	str	r5, [r2, #8]
     354:	6813      	ldr	r3, [r2, #0]
     356:	420b      	tst	r3, r1
     358:	d0fc      	beq.n	354 <delay_cycles_us+0x18>
     35a:	3801      	subs	r0, #1
     35c:	d2f6      	bcs.n	34c <delay_cycles_us+0x10>
     35e:	bd30      	pop	{r4, r5, pc}
     360:	20000000 	.word	0x20000000
     364:	e000e010 	.word	0xe000e010

00000368 <delay_cycles_ms>:
     368:	b530      	push	{r4, r5, lr}
     36a:	4b08      	ldr	r3, [pc, #32]	; (38c <delay_cycles_ms+0x24>)
     36c:	681c      	ldr	r4, [r3, #0]
     36e:	4a08      	ldr	r2, [pc, #32]	; (390 <delay_cycles_ms+0x28>)
     370:	2500      	movs	r5, #0
     372:	2180      	movs	r1, #128	; 0x80
     374:	0249      	lsls	r1, r1, #9
     376:	e006      	b.n	386 <delay_cycles_ms+0x1e>
     378:	2c00      	cmp	r4, #0
     37a:	d004      	beq.n	386 <delay_cycles_ms+0x1e>
     37c:	6054      	str	r4, [r2, #4]
     37e:	6095      	str	r5, [r2, #8]
     380:	6813      	ldr	r3, [r2, #0]
     382:	420b      	tst	r3, r1
     384:	d0fc      	beq.n	380 <delay_cycles_ms+0x18>
     386:	3801      	subs	r0, #1
     388:	d2f6      	bcs.n	378 <delay_cycles_ms+0x10>
     38a:	bd30      	pop	{r4, r5, pc}
     38c:	20000004 	.word	0x20000004
     390:	e000e010 	.word	0xe000e010

00000394 <_i2c_master_wait_for_sync>:
     394:	6802      	ldr	r2, [r0, #0]
     396:	8a13      	ldrh	r3, [r2, #16]
     398:	0bdb      	lsrs	r3, r3, #15
     39a:	03db      	lsls	r3, r3, #15
     39c:	b29b      	uxth	r3, r3
     39e:	2b00      	cmp	r3, #0
     3a0:	d1f9      	bne.n	396 <_i2c_master_wait_for_sync+0x2>
     3a2:	4770      	bx	lr

000003a4 <_i2c_master_address_response>:
     3a4:	6803      	ldr	r3, [r0, #0]
     3a6:	7b9a      	ldrb	r2, [r3, #14]
     3a8:	0792      	lsls	r2, r2, #30
     3aa:	d507      	bpl.n	3bc <_i2c_master_address_response+0x18>
     3ac:	2202      	movs	r2, #2
     3ae:	739a      	strb	r2, [r3, #14]
     3b0:	8a1b      	ldrh	r3, [r3, #16]
     3b2:	079b      	lsls	r3, r3, #30
     3b4:	2041      	movs	r0, #65	; 0x41
     3b6:	17db      	asrs	r3, r3, #31
     3b8:	4018      	ands	r0, r3
     3ba:	e00a      	b.n	3d2 <_i2c_master_address_response+0x2e>
     3bc:	8a1a      	ldrh	r2, [r3, #16]
     3be:	0752      	lsls	r2, r2, #29
     3c0:	d506      	bpl.n	3d0 <_i2c_master_address_response+0x2c>
     3c2:	685a      	ldr	r2, [r3, #4]
     3c4:	21c0      	movs	r1, #192	; 0xc0
     3c6:	0289      	lsls	r1, r1, #10
     3c8:	430a      	orrs	r2, r1
     3ca:	605a      	str	r2, [r3, #4]
     3cc:	2018      	movs	r0, #24
     3ce:	e000      	b.n	3d2 <_i2c_master_address_response+0x2e>
     3d0:	2000      	movs	r0, #0
     3d2:	4770      	bx	lr

000003d4 <_i2c_master_wait_for_bus>:
     3d4:	b530      	push	{r4, r5, lr}
     3d6:	6802      	ldr	r2, [r0, #0]
     3d8:	2300      	movs	r3, #0
     3da:	2401      	movs	r4, #1
     3dc:	2502      	movs	r5, #2
     3de:	e004      	b.n	3ea <_i2c_master_wait_for_bus+0x16>
     3e0:	3301      	adds	r3, #1
     3e2:	b29b      	uxth	r3, r3
     3e4:	8901      	ldrh	r1, [r0, #8]
     3e6:	4299      	cmp	r1, r3
     3e8:	d907      	bls.n	3fa <_i2c_master_wait_for_bus+0x26>
     3ea:	7b91      	ldrb	r1, [r2, #14]
     3ec:	4221      	tst	r1, r4
     3ee:	d106      	bne.n	3fe <_i2c_master_wait_for_bus+0x2a>
     3f0:	7b91      	ldrb	r1, [r2, #14]
     3f2:	4229      	tst	r1, r5
     3f4:	d0f4      	beq.n	3e0 <_i2c_master_wait_for_bus+0xc>
     3f6:	2000      	movs	r0, #0
     3f8:	e002      	b.n	400 <_i2c_master_wait_for_bus+0x2c>
     3fa:	2012      	movs	r0, #18
     3fc:	e000      	b.n	400 <_i2c_master_wait_for_bus+0x2c>
     3fe:	2000      	movs	r0, #0
     400:	bd30      	pop	{r4, r5, pc}
     402:	46c0      	nop			; (mov r8, r8)

00000404 <_i2c_master_read_packet>:
     404:	b5f0      	push	{r4, r5, r6, r7, lr}
     406:	465f      	mov	r7, fp
     408:	4656      	mov	r6, sl
     40a:	464d      	mov	r5, r9
     40c:	4644      	mov	r4, r8
     40e:	b4f0      	push	{r4, r5, r6, r7}
     410:	b083      	sub	sp, #12
     412:	1c06      	adds	r6, r0, #0
     414:	4689      	mov	r9, r1
     416:	6805      	ldr	r5, [r0, #0]
     418:	884c      	ldrh	r4, [r1, #2]
     41a:	880b      	ldrh	r3, [r1, #0]
     41c:	005b      	lsls	r3, r3, #1
     41e:	2201      	movs	r2, #1
     420:	4313      	orrs	r3, r2
     422:	b2db      	uxtb	r3, r3
     424:	752b      	strb	r3, [r5, #20]
     426:	4b32      	ldr	r3, [pc, #200]	; (4f0 <_i2c_master_read_packet+0xec>)
     428:	4798      	blx	r3
     42a:	1c02      	adds	r2, r0, #0
     42c:	6869      	ldr	r1, [r5, #4]
     42e:	4b31      	ldr	r3, [pc, #196]	; (4f4 <_i2c_master_read_packet+0xf0>)
     430:	400b      	ands	r3, r1
     432:	606b      	str	r3, [r5, #4]
     434:	2a00      	cmp	r2, #0
     436:	d153      	bne.n	4e0 <_i2c_master_read_packet+0xdc>
     438:	1c30      	adds	r0, r6, #0
     43a:	4b2f      	ldr	r3, [pc, #188]	; (4f8 <_i2c_master_read_packet+0xf4>)
     43c:	4798      	blx	r3
     43e:	9001      	str	r0, [sp, #4]
     440:	2800      	cmp	r0, #0
     442:	d14d      	bne.n	4e0 <_i2c_master_read_packet+0xdc>
     444:	3c01      	subs	r4, #1
     446:	b2a4      	uxth	r4, r4
     448:	4680      	mov	r8, r0
     44a:	4b2c      	ldr	r3, [pc, #176]	; (4fc <_i2c_master_read_packet+0xf8>)
     44c:	469a      	mov	sl, r3
     44e:	4b2c      	ldr	r3, [pc, #176]	; (500 <_i2c_master_read_packet+0xfc>)
     450:	469b      	mov	fp, r3
     452:	e021      	b.n	498 <_i2c_master_read_packet+0x94>
     454:	8a2b      	ldrh	r3, [r5, #16]
     456:	069b      	lsls	r3, r3, #26
     458:	d541      	bpl.n	4de <_i2c_master_read_packet+0xda>
     45a:	7af3      	ldrb	r3, [r6, #11]
     45c:	2b00      	cmp	r3, #0
     45e:	d009      	beq.n	474 <_i2c_master_read_packet+0x70>
     460:	2c00      	cmp	r4, #0
     462:	d107      	bne.n	474 <_i2c_master_read_packet+0x70>
     464:	686b      	ldr	r3, [r5, #4]
     466:	2280      	movs	r2, #128	; 0x80
     468:	02d2      	lsls	r2, r2, #11
     46a:	4313      	orrs	r3, r2
     46c:	606b      	str	r3, [r5, #4]
     46e:	3c01      	subs	r4, #1
     470:	b2a4      	uxth	r4, r4
     472:	e011      	b.n	498 <_i2c_master_read_packet+0x94>
     474:	1c30      	adds	r0, r6, #0
     476:	47d8      	blx	fp
     478:	4643      	mov	r3, r8
     47a:	1c5f      	adds	r7, r3, #1
     47c:	b2bf      	uxth	r7, r7
     47e:	7e2b      	ldrb	r3, [r5, #24]
     480:	464a      	mov	r2, r9
     482:	6852      	ldr	r2, [r2, #4]
     484:	4641      	mov	r1, r8
     486:	5453      	strb	r3, [r2, r1]
     488:	1c30      	adds	r0, r6, #0
     48a:	4b19      	ldr	r3, [pc, #100]	; (4f0 <_i2c_master_read_packet+0xec>)
     48c:	4798      	blx	r3
     48e:	3c01      	subs	r4, #1
     490:	b2a4      	uxth	r4, r4
     492:	2800      	cmp	r0, #0
     494:	d103      	bne.n	49e <_i2c_master_read_packet+0x9a>
     496:	46b8      	mov	r8, r7
     498:	4554      	cmp	r4, sl
     49a:	d1db      	bne.n	454 <_i2c_master_read_packet+0x50>
     49c:	e001      	b.n	4a2 <_i2c_master_read_packet+0x9e>
     49e:	46b8      	mov	r8, r7
     4a0:	9001      	str	r0, [sp, #4]
     4a2:	7ab3      	ldrb	r3, [r6, #10]
     4a4:	2b00      	cmp	r3, #0
     4a6:	d008      	beq.n	4ba <_i2c_master_read_packet+0xb6>
     4a8:	1c30      	adds	r0, r6, #0
     4aa:	4b15      	ldr	r3, [pc, #84]	; (500 <_i2c_master_read_packet+0xfc>)
     4ac:	4798      	blx	r3
     4ae:	686b      	ldr	r3, [r5, #4]
     4b0:	22c0      	movs	r2, #192	; 0xc0
     4b2:	0292      	lsls	r2, r2, #10
     4b4:	4313      	orrs	r3, r2
     4b6:	606b      	str	r3, [r5, #4]
     4b8:	e007      	b.n	4ca <_i2c_master_read_packet+0xc6>
     4ba:	1c30      	adds	r0, r6, #0
     4bc:	4b10      	ldr	r3, [pc, #64]	; (500 <_i2c_master_read_packet+0xfc>)
     4be:	4798      	blx	r3
     4c0:	686b      	ldr	r3, [r5, #4]
     4c2:	2280      	movs	r2, #128	; 0x80
     4c4:	0252      	lsls	r2, r2, #9
     4c6:	4313      	orrs	r3, r2
     4c8:	606b      	str	r3, [r5, #4]
     4ca:	1c30      	adds	r0, r6, #0
     4cc:	4b0c      	ldr	r3, [pc, #48]	; (500 <_i2c_master_read_packet+0xfc>)
     4ce:	4798      	blx	r3
     4d0:	7e2a      	ldrb	r2, [r5, #24]
     4d2:	464b      	mov	r3, r9
     4d4:	685b      	ldr	r3, [r3, #4]
     4d6:	4641      	mov	r1, r8
     4d8:	545a      	strb	r2, [r3, r1]
     4da:	9801      	ldr	r0, [sp, #4]
     4dc:	e000      	b.n	4e0 <_i2c_master_read_packet+0xdc>
     4de:	2041      	movs	r0, #65	; 0x41
     4e0:	b003      	add	sp, #12
     4e2:	bc3c      	pop	{r2, r3, r4, r5}
     4e4:	4690      	mov	r8, r2
     4e6:	4699      	mov	r9, r3
     4e8:	46a2      	mov	sl, r4
     4ea:	46ab      	mov	fp, r5
     4ec:	bdf0      	pop	{r4, r5, r6, r7, pc}
     4ee:	46c0      	nop			; (mov r8, r8)
     4f0:	000003d5 	.word	0x000003d5
     4f4:	fffbffff 	.word	0xfffbffff
     4f8:	000003a5 	.word	0x000003a5
     4fc:	0000ffff 	.word	0x0000ffff
     500:	00000395 	.word	0x00000395

00000504 <_i2c_master_write_packet>:
     504:	b5f0      	push	{r4, r5, r6, r7, lr}
     506:	465f      	mov	r7, fp
     508:	4656      	mov	r6, sl
     50a:	464d      	mov	r5, r9
     50c:	4644      	mov	r4, r8
     50e:	b4f0      	push	{r4, r5, r6, r7}
     510:	b083      	sub	sp, #12
     512:	1c06      	adds	r6, r0, #0
     514:	1c0f      	adds	r7, r1, #0
     516:	6805      	ldr	r5, [r0, #0]
     518:	884c      	ldrh	r4, [r1, #2]
     51a:	4b24      	ldr	r3, [pc, #144]	; (5ac <_i2c_master_write_packet+0xa8>)
     51c:	4798      	blx	r3
     51e:	883b      	ldrh	r3, [r7, #0]
     520:	005b      	lsls	r3, r3, #1
     522:	b2db      	uxtb	r3, r3
     524:	752b      	strb	r3, [r5, #20]
     526:	1c30      	adds	r0, r6, #0
     528:	4b21      	ldr	r3, [pc, #132]	; (5b0 <_i2c_master_write_packet+0xac>)
     52a:	4798      	blx	r3
     52c:	1e03      	subs	r3, r0, #0
     52e:	d135      	bne.n	59c <_i2c_master_write_packet+0x98>
     530:	1c30      	adds	r0, r6, #0
     532:	4b20      	ldr	r3, [pc, #128]	; (5b4 <_i2c_master_write_packet+0xb0>)
     534:	4798      	blx	r3
     536:	1e03      	subs	r3, r0, #0
     538:	9001      	str	r0, [sp, #4]
     53a:	d12f      	bne.n	59c <_i2c_master_write_packet+0x98>
     53c:	46a0      	mov	r8, r4
     53e:	2400      	movs	r4, #0
     540:	3320      	adds	r3, #32
     542:	4699      	mov	r9, r3
     544:	4b19      	ldr	r3, [pc, #100]	; (5ac <_i2c_master_write_packet+0xa8>)
     546:	469b      	mov	fp, r3
     548:	4b19      	ldr	r3, [pc, #100]	; (5b0 <_i2c_master_write_packet+0xac>)
     54a:	469a      	mov	sl, r3
     54c:	e010      	b.n	570 <_i2c_master_write_packet+0x6c>
     54e:	8a2b      	ldrh	r3, [r5, #16]
     550:	464a      	mov	r2, r9
     552:	4213      	tst	r3, r2
     554:	d021      	beq.n	59a <_i2c_master_write_packet+0x96>
     556:	1c30      	adds	r0, r6, #0
     558:	47d8      	blx	fp
     55a:	687b      	ldr	r3, [r7, #4]
     55c:	5d1b      	ldrb	r3, [r3, r4]
     55e:	762b      	strb	r3, [r5, #24]
     560:	1c30      	adds	r0, r6, #0
     562:	47d0      	blx	sl
     564:	2800      	cmp	r0, #0
     566:	d106      	bne.n	576 <_i2c_master_write_packet+0x72>
     568:	8a2b      	ldrh	r3, [r5, #16]
     56a:	3401      	adds	r4, #1
     56c:	075b      	lsls	r3, r3, #29
     56e:	d404      	bmi.n	57a <_i2c_master_write_packet+0x76>
     570:	4544      	cmp	r4, r8
     572:	d1ec      	bne.n	54e <_i2c_master_write_packet+0x4a>
     574:	e003      	b.n	57e <_i2c_master_write_packet+0x7a>
     576:	9001      	str	r0, [sp, #4]
     578:	e001      	b.n	57e <_i2c_master_write_packet+0x7a>
     57a:	231e      	movs	r3, #30
     57c:	9301      	str	r3, [sp, #4]
     57e:	7ab3      	ldrb	r3, [r6, #10]
     580:	9801      	ldr	r0, [sp, #4]
     582:	2b00      	cmp	r3, #0
     584:	d00a      	beq.n	59c <_i2c_master_write_packet+0x98>
     586:	1c30      	adds	r0, r6, #0
     588:	4b08      	ldr	r3, [pc, #32]	; (5ac <_i2c_master_write_packet+0xa8>)
     58a:	4798      	blx	r3
     58c:	686b      	ldr	r3, [r5, #4]
     58e:	22c0      	movs	r2, #192	; 0xc0
     590:	0292      	lsls	r2, r2, #10
     592:	4313      	orrs	r3, r2
     594:	606b      	str	r3, [r5, #4]
     596:	9801      	ldr	r0, [sp, #4]
     598:	e000      	b.n	59c <_i2c_master_write_packet+0x98>
     59a:	2041      	movs	r0, #65	; 0x41
     59c:	b003      	add	sp, #12
     59e:	bc3c      	pop	{r2, r3, r4, r5}
     5a0:	4690      	mov	r8, r2
     5a2:	4699      	mov	r9, r3
     5a4:	46a2      	mov	sl, r4
     5a6:	46ab      	mov	fp, r5
     5a8:	bdf0      	pop	{r4, r5, r6, r7, pc}
     5aa:	46c0      	nop			; (mov r8, r8)
     5ac:	00000395 	.word	0x00000395
     5b0:	000003d5 	.word	0x000003d5
     5b4:	000003a5 	.word	0x000003a5

000005b8 <i2c_master_init>:
     5b8:	b5f0      	push	{r4, r5, r6, r7, lr}
     5ba:	4647      	mov	r7, r8
     5bc:	b480      	push	{r7}
     5be:	b082      	sub	sp, #8
     5c0:	1c07      	adds	r7, r0, #0
     5c2:	1c0d      	adds	r5, r1, #0
     5c4:	1c16      	adds	r6, r2, #0
     5c6:	6039      	str	r1, [r7, #0]
     5c8:	1c08      	adds	r0, r1, #0
     5ca:	4b46      	ldr	r3, [pc, #280]	; (6e4 <i2c_master_init+0x12c>)
     5cc:	4798      	blx	r3
     5ce:	4946      	ldr	r1, [pc, #280]	; (6e8 <i2c_master_init+0x130>)
     5d0:	6a0a      	ldr	r2, [r1, #32]
     5d2:	1c84      	adds	r4, r0, #2
     5d4:	2301      	movs	r3, #1
     5d6:	40a3      	lsls	r3, r4
     5d8:	4313      	orrs	r3, r2
     5da:	620b      	str	r3, [r1, #32]
     5dc:	a901      	add	r1, sp, #4
     5de:	7933      	ldrb	r3, [r6, #4]
     5e0:	700b      	strb	r3, [r1, #0]
     5e2:	300d      	adds	r0, #13
     5e4:	b2c4      	uxtb	r4, r0
     5e6:	1c20      	adds	r0, r4, #0
     5e8:	4b40      	ldr	r3, [pc, #256]	; (6ec <i2c_master_init+0x134>)
     5ea:	4798      	blx	r3
     5ec:	1c20      	adds	r0, r4, #0
     5ee:	4b40      	ldr	r3, [pc, #256]	; (6f0 <i2c_master_init+0x138>)
     5f0:	4798      	blx	r3
     5f2:	7930      	ldrb	r0, [r6, #4]
     5f4:	2100      	movs	r1, #0
     5f6:	4b3f      	ldr	r3, [pc, #252]	; (6f4 <i2c_master_init+0x13c>)
     5f8:	4798      	blx	r3
     5fa:	682b      	ldr	r3, [r5, #0]
     5fc:	201c      	movs	r0, #28
     5fe:	079b      	lsls	r3, r3, #30
     600:	d46b      	bmi.n	6da <i2c_master_init+0x122>
     602:	682b      	ldr	r3, [r5, #0]
     604:	3817      	subs	r0, #23
     606:	07db      	lsls	r3, r3, #31
     608:	d467      	bmi.n	6da <i2c_master_init+0x122>
     60a:	2314      	movs	r3, #20
     60c:	602b      	str	r3, [r5, #0]
     60e:	683c      	ldr	r4, [r7, #0]
     610:	1c20      	adds	r0, r4, #0
     612:	4b34      	ldr	r3, [pc, #208]	; (6e4 <i2c_master_init+0x12c>)
     614:	4798      	blx	r3
     616:	4680      	mov	r8, r0
     618:	2380      	movs	r3, #128	; 0x80
     61a:	466a      	mov	r2, sp
     61c:	7013      	strb	r3, [r2, #0]
     61e:	2300      	movs	r3, #0
     620:	7053      	strb	r3, [r2, #1]
     622:	2201      	movs	r2, #1
     624:	4669      	mov	r1, sp
     626:	708a      	strb	r2, [r1, #2]
     628:	70cb      	strb	r3, [r1, #3]
     62a:	6970      	ldr	r0, [r6, #20]
     62c:	69b5      	ldr	r5, [r6, #24]
     62e:	2800      	cmp	r0, #0
     630:	d103      	bne.n	63a <i2c_master_init+0x82>
     632:	1c20      	adds	r0, r4, #0
     634:	2100      	movs	r1, #0
     636:	4b30      	ldr	r3, [pc, #192]	; (6f8 <i2c_master_init+0x140>)
     638:	4798      	blx	r3
     63a:	466b      	mov	r3, sp
     63c:	7018      	strb	r0, [r3, #0]
     63e:	2302      	movs	r3, #2
     640:	466a      	mov	r2, sp
     642:	7053      	strb	r3, [r2, #1]
     644:	0c00      	lsrs	r0, r0, #16
     646:	b2c0      	uxtb	r0, r0
     648:	4669      	mov	r1, sp
     64a:	4b2c      	ldr	r3, [pc, #176]	; (6fc <i2c_master_init+0x144>)
     64c:	4798      	blx	r3
     64e:	2d00      	cmp	r5, #0
     650:	d104      	bne.n	65c <i2c_master_init+0xa4>
     652:	1c20      	adds	r0, r4, #0
     654:	2101      	movs	r1, #1
     656:	4b28      	ldr	r3, [pc, #160]	; (6f8 <i2c_master_init+0x140>)
     658:	4798      	blx	r3
     65a:	1c05      	adds	r5, r0, #0
     65c:	466b      	mov	r3, sp
     65e:	701d      	strb	r5, [r3, #0]
     660:	2302      	movs	r3, #2
     662:	466a      	mov	r2, sp
     664:	7053      	strb	r3, [r2, #1]
     666:	0c28      	lsrs	r0, r5, #16
     668:	b2c0      	uxtb	r0, r0
     66a:	4669      	mov	r1, sp
     66c:	4b23      	ldr	r3, [pc, #140]	; (6fc <i2c_master_init+0x144>)
     66e:	4798      	blx	r3
     670:	89b3      	ldrh	r3, [r6, #12]
     672:	80fb      	strh	r3, [r7, #6]
     674:	89f3      	ldrh	r3, [r6, #14]
     676:	813b      	strh	r3, [r7, #8]
     678:	7c32      	ldrb	r2, [r6, #16]
     67a:	2380      	movs	r3, #128	; 0x80
     67c:	2a00      	cmp	r2, #0
     67e:	d104      	bne.n	68a <i2c_master_init+0xd2>
     680:	4b1f      	ldr	r3, [pc, #124]	; (700 <i2c_master_init+0x148>)
     682:	789b      	ldrb	r3, [r3, #2]
     684:	079b      	lsls	r3, r3, #30
     686:	0fdb      	lsrs	r3, r3, #31
     688:	01db      	lsls	r3, r3, #7
     68a:	68b2      	ldr	r2, [r6, #8]
     68c:	2a00      	cmp	r2, #0
     68e:	d000      	beq.n	692 <i2c_master_init+0xda>
     690:	4313      	orrs	r3, r2
     692:	7f32      	ldrb	r2, [r6, #28]
     694:	2a00      	cmp	r2, #0
     696:	d002      	beq.n	69e <i2c_master_init+0xe6>
     698:	2280      	movs	r2, #128	; 0x80
     69a:	05d2      	lsls	r2, r2, #23
     69c:	4313      	orrs	r3, r2
     69e:	6a32      	ldr	r2, [r6, #32]
     6a0:	2a00      	cmp	r2, #0
     6a2:	d000      	beq.n	6a6 <i2c_master_init+0xee>
     6a4:	4313      	orrs	r3, r2
     6a6:	6822      	ldr	r2, [r4, #0]
     6a8:	4313      	orrs	r3, r2
     6aa:	6023      	str	r3, [r4, #0]
     6ac:	2380      	movs	r3, #128	; 0x80
     6ae:	005b      	lsls	r3, r3, #1
     6b0:	6063      	str	r3, [r4, #4]
     6b2:	4645      	mov	r5, r8
     6b4:	350d      	adds	r5, #13
     6b6:	b2e8      	uxtb	r0, r5
     6b8:	4b12      	ldr	r3, [pc, #72]	; (704 <i2c_master_init+0x14c>)
     6ba:	4798      	blx	r3
     6bc:	6831      	ldr	r1, [r6, #0]
     6be:	23fa      	movs	r3, #250	; 0xfa
     6c0:	00db      	lsls	r3, r3, #3
     6c2:	4359      	muls	r1, r3
     6c4:	1e4b      	subs	r3, r1, #1
     6c6:	1818      	adds	r0, r3, r0
     6c8:	4b0f      	ldr	r3, [pc, #60]	; (708 <i2c_master_init+0x150>)
     6ca:	4798      	blx	r3
     6cc:	1f43      	subs	r3, r0, #5
     6ce:	2040      	movs	r0, #64	; 0x40
     6d0:	2bff      	cmp	r3, #255	; 0xff
     6d2:	d802      	bhi.n	6da <i2c_master_init+0x122>
     6d4:	b2db      	uxtb	r3, r3
     6d6:	8163      	strh	r3, [r4, #10]
     6d8:	2000      	movs	r0, #0
     6da:	b002      	add	sp, #8
     6dc:	bc04      	pop	{r2}
     6de:	4690      	mov	r8, r2
     6e0:	bdf0      	pop	{r4, r5, r6, r7, pc}
     6e2:	46c0      	nop			; (mov r8, r8)
     6e4:	00000889 	.word	0x00000889
     6e8:	40000400 	.word	0x40000400
     6ec:	00003231 	.word	0x00003231
     6f0:	000031a5 	.word	0x000031a5
     6f4:	00000735 	.word	0x00000735
     6f8:	00000781 	.word	0x00000781
     6fc:	00003359 	.word	0x00003359
     700:	41002000 	.word	0x41002000
     704:	0000327d 	.word	0x0000327d
     708:	000034d5 	.word	0x000034d5

0000070c <i2c_master_read_packet_wait>:
     70c:	b508      	push	{r3, lr}
     70e:	2301      	movs	r3, #1
     710:	7283      	strb	r3, [r0, #10]
     712:	72c3      	strb	r3, [r0, #11]
     714:	4b01      	ldr	r3, [pc, #4]	; (71c <i2c_master_read_packet_wait+0x10>)
     716:	4798      	blx	r3
     718:	bd08      	pop	{r3, pc}
     71a:	46c0      	nop			; (mov r8, r8)
     71c:	00000405 	.word	0x00000405

00000720 <i2c_master_write_packet_wait>:
     720:	b508      	push	{r3, lr}
     722:	2301      	movs	r3, #1
     724:	7283      	strb	r3, [r0, #10]
     726:	72c3      	strb	r3, [r0, #11]
     728:	4b01      	ldr	r3, [pc, #4]	; (730 <i2c_master_write_packet_wait+0x10>)
     72a:	4798      	blx	r3
     72c:	bd08      	pop	{r3, pc}
     72e:	46c0      	nop			; (mov r8, r8)
     730:	00000505 	.word	0x00000505

00000734 <sercom_set_gclk_generator>:
     734:	b510      	push	{r4, lr}
     736:	b082      	sub	sp, #8
     738:	1c04      	adds	r4, r0, #0
     73a:	4b0e      	ldr	r3, [pc, #56]	; (774 <sercom_set_gclk_generator+0x40>)
     73c:	781b      	ldrb	r3, [r3, #0]
     73e:	2b00      	cmp	r3, #0
     740:	d001      	beq.n	746 <sercom_set_gclk_generator+0x12>
     742:	2900      	cmp	r1, #0
     744:	d00d      	beq.n	762 <sercom_set_gclk_generator+0x2e>
     746:	a901      	add	r1, sp, #4
     748:	700c      	strb	r4, [r1, #0]
     74a:	200c      	movs	r0, #12
     74c:	4b0a      	ldr	r3, [pc, #40]	; (778 <sercom_set_gclk_generator+0x44>)
     74e:	4798      	blx	r3
     750:	200c      	movs	r0, #12
     752:	4b0a      	ldr	r3, [pc, #40]	; (77c <sercom_set_gclk_generator+0x48>)
     754:	4798      	blx	r3
     756:	4b07      	ldr	r3, [pc, #28]	; (774 <sercom_set_gclk_generator+0x40>)
     758:	705c      	strb	r4, [r3, #1]
     75a:	2201      	movs	r2, #1
     75c:	701a      	strb	r2, [r3, #0]
     75e:	2000      	movs	r0, #0
     760:	e006      	b.n	770 <sercom_set_gclk_generator+0x3c>
     762:	4b04      	ldr	r3, [pc, #16]	; (774 <sercom_set_gclk_generator+0x40>)
     764:	785b      	ldrb	r3, [r3, #1]
     766:	4283      	cmp	r3, r0
     768:	d001      	beq.n	76e <sercom_set_gclk_generator+0x3a>
     76a:	201d      	movs	r0, #29
     76c:	e000      	b.n	770 <sercom_set_gclk_generator+0x3c>
     76e:	2000      	movs	r0, #0
     770:	b002      	add	sp, #8
     772:	bd10      	pop	{r4, pc}
     774:	2000003c 	.word	0x2000003c
     778:	00003231 	.word	0x00003231
     77c:	000031a5 	.word	0x000031a5

00000780 <_sercom_get_default_pad>:
     780:	4b2e      	ldr	r3, [pc, #184]	; (83c <_sercom_get_default_pad+0xbc>)
     782:	4298      	cmp	r0, r3
     784:	d01c      	beq.n	7c0 <_sercom_get_default_pad+0x40>
     786:	d803      	bhi.n	790 <_sercom_get_default_pad+0x10>
     788:	4b2d      	ldr	r3, [pc, #180]	; (840 <_sercom_get_default_pad+0xc0>)
     78a:	4298      	cmp	r0, r3
     78c:	d007      	beq.n	79e <_sercom_get_default_pad+0x1e>
     78e:	e04a      	b.n	826 <_sercom_get_default_pad+0xa6>
     790:	4b2c      	ldr	r3, [pc, #176]	; (844 <_sercom_get_default_pad+0xc4>)
     792:	4298      	cmp	r0, r3
     794:	d025      	beq.n	7e2 <_sercom_get_default_pad+0x62>
     796:	4b2c      	ldr	r3, [pc, #176]	; (848 <_sercom_get_default_pad+0xc8>)
     798:	4298      	cmp	r0, r3
     79a:	d033      	beq.n	804 <_sercom_get_default_pad+0x84>
     79c:	e043      	b.n	826 <_sercom_get_default_pad+0xa6>
     79e:	2901      	cmp	r1, #1
     7a0:	d006      	beq.n	7b0 <_sercom_get_default_pad+0x30>
     7a2:	2900      	cmp	r1, #0
     7a4:	d041      	beq.n	82a <_sercom_get_default_pad+0xaa>
     7a6:	2902      	cmp	r1, #2
     7a8:	d006      	beq.n	7b8 <_sercom_get_default_pad+0x38>
     7aa:	2903      	cmp	r1, #3
     7ac:	d006      	beq.n	7bc <_sercom_get_default_pad+0x3c>
     7ae:	e001      	b.n	7b4 <_sercom_get_default_pad+0x34>
     7b0:	4826      	ldr	r0, [pc, #152]	; (84c <_sercom_get_default_pad+0xcc>)
     7b2:	e041      	b.n	838 <_sercom_get_default_pad+0xb8>
     7b4:	2000      	movs	r0, #0
     7b6:	e03f      	b.n	838 <_sercom_get_default_pad+0xb8>
     7b8:	4825      	ldr	r0, [pc, #148]	; (850 <_sercom_get_default_pad+0xd0>)
     7ba:	e03d      	b.n	838 <_sercom_get_default_pad+0xb8>
     7bc:	4825      	ldr	r0, [pc, #148]	; (854 <_sercom_get_default_pad+0xd4>)
     7be:	e03b      	b.n	838 <_sercom_get_default_pad+0xb8>
     7c0:	2901      	cmp	r1, #1
     7c2:	d006      	beq.n	7d2 <_sercom_get_default_pad+0x52>
     7c4:	2900      	cmp	r1, #0
     7c6:	d032      	beq.n	82e <_sercom_get_default_pad+0xae>
     7c8:	2902      	cmp	r1, #2
     7ca:	d006      	beq.n	7da <_sercom_get_default_pad+0x5a>
     7cc:	2903      	cmp	r1, #3
     7ce:	d006      	beq.n	7de <_sercom_get_default_pad+0x5e>
     7d0:	e001      	b.n	7d6 <_sercom_get_default_pad+0x56>
     7d2:	4821      	ldr	r0, [pc, #132]	; (858 <_sercom_get_default_pad+0xd8>)
     7d4:	e030      	b.n	838 <_sercom_get_default_pad+0xb8>
     7d6:	2000      	movs	r0, #0
     7d8:	e02e      	b.n	838 <_sercom_get_default_pad+0xb8>
     7da:	4820      	ldr	r0, [pc, #128]	; (85c <_sercom_get_default_pad+0xdc>)
     7dc:	e02c      	b.n	838 <_sercom_get_default_pad+0xb8>
     7de:	4820      	ldr	r0, [pc, #128]	; (860 <_sercom_get_default_pad+0xe0>)
     7e0:	e02a      	b.n	838 <_sercom_get_default_pad+0xb8>
     7e2:	2901      	cmp	r1, #1
     7e4:	d006      	beq.n	7f4 <_sercom_get_default_pad+0x74>
     7e6:	2900      	cmp	r1, #0
     7e8:	d023      	beq.n	832 <_sercom_get_default_pad+0xb2>
     7ea:	2902      	cmp	r1, #2
     7ec:	d006      	beq.n	7fc <_sercom_get_default_pad+0x7c>
     7ee:	2903      	cmp	r1, #3
     7f0:	d006      	beq.n	800 <_sercom_get_default_pad+0x80>
     7f2:	e001      	b.n	7f8 <_sercom_get_default_pad+0x78>
     7f4:	481b      	ldr	r0, [pc, #108]	; (864 <_sercom_get_default_pad+0xe4>)
     7f6:	e01f      	b.n	838 <_sercom_get_default_pad+0xb8>
     7f8:	2000      	movs	r0, #0
     7fa:	e01d      	b.n	838 <_sercom_get_default_pad+0xb8>
     7fc:	481a      	ldr	r0, [pc, #104]	; (868 <_sercom_get_default_pad+0xe8>)
     7fe:	e01b      	b.n	838 <_sercom_get_default_pad+0xb8>
     800:	481a      	ldr	r0, [pc, #104]	; (86c <_sercom_get_default_pad+0xec>)
     802:	e019      	b.n	838 <_sercom_get_default_pad+0xb8>
     804:	2901      	cmp	r1, #1
     806:	d006      	beq.n	816 <_sercom_get_default_pad+0x96>
     808:	2900      	cmp	r1, #0
     80a:	d014      	beq.n	836 <_sercom_get_default_pad+0xb6>
     80c:	2902      	cmp	r1, #2
     80e:	d006      	beq.n	81e <_sercom_get_default_pad+0x9e>
     810:	2903      	cmp	r1, #3
     812:	d006      	beq.n	822 <_sercom_get_default_pad+0xa2>
     814:	e001      	b.n	81a <_sercom_get_default_pad+0x9a>
     816:	4816      	ldr	r0, [pc, #88]	; (870 <_sercom_get_default_pad+0xf0>)
     818:	e00e      	b.n	838 <_sercom_get_default_pad+0xb8>
     81a:	2000      	movs	r0, #0
     81c:	e00c      	b.n	838 <_sercom_get_default_pad+0xb8>
     81e:	4815      	ldr	r0, [pc, #84]	; (874 <_sercom_get_default_pad+0xf4>)
     820:	e00a      	b.n	838 <_sercom_get_default_pad+0xb8>
     822:	4815      	ldr	r0, [pc, #84]	; (878 <_sercom_get_default_pad+0xf8>)
     824:	e008      	b.n	838 <_sercom_get_default_pad+0xb8>
     826:	2000      	movs	r0, #0
     828:	e006      	b.n	838 <_sercom_get_default_pad+0xb8>
     82a:	4814      	ldr	r0, [pc, #80]	; (87c <_sercom_get_default_pad+0xfc>)
     82c:	e004      	b.n	838 <_sercom_get_default_pad+0xb8>
     82e:	2003      	movs	r0, #3
     830:	e002      	b.n	838 <_sercom_get_default_pad+0xb8>
     832:	4813      	ldr	r0, [pc, #76]	; (880 <_sercom_get_default_pad+0x100>)
     834:	e000      	b.n	838 <_sercom_get_default_pad+0xb8>
     836:	4813      	ldr	r0, [pc, #76]	; (884 <_sercom_get_default_pad+0x104>)
     838:	4770      	bx	lr
     83a:	46c0      	nop			; (mov r8, r8)
     83c:	42000c00 	.word	0x42000c00
     840:	42000800 	.word	0x42000800
     844:	42001000 	.word	0x42001000
     848:	42001400 	.word	0x42001400
     84c:	00050003 	.word	0x00050003
     850:	00060003 	.word	0x00060003
     854:	00070003 	.word	0x00070003
     858:	00010003 	.word	0x00010003
     85c:	001e0003 	.word	0x001e0003
     860:	001f0003 	.word	0x001f0003
     864:	00090003 	.word	0x00090003
     868:	000a0003 	.word	0x000a0003
     86c:	000b0003 	.word	0x000b0003
     870:	00110003 	.word	0x00110003
     874:	00120003 	.word	0x00120003
     878:	00130003 	.word	0x00130003
     87c:	00040003 	.word	0x00040003
     880:	00080003 	.word	0x00080003
     884:	00100003 	.word	0x00100003

00000888 <_sercom_get_sercom_inst_index>:
     888:	b530      	push	{r4, r5, lr}
     88a:	b085      	sub	sp, #20
     88c:	466a      	mov	r2, sp
     88e:	4b0e      	ldr	r3, [pc, #56]	; (8c8 <_sercom_get_sercom_inst_index+0x40>)
     890:	cb32      	ldmia	r3!, {r1, r4, r5}
     892:	c232      	stmia	r2!, {r1, r4, r5}
     894:	681b      	ldr	r3, [r3, #0]
     896:	6013      	str	r3, [r2, #0]
     898:	1c03      	adds	r3, r0, #0
     89a:	9a00      	ldr	r2, [sp, #0]
     89c:	4282      	cmp	r2, r0
     89e:	d00f      	beq.n	8c0 <_sercom_get_sercom_inst_index+0x38>
     8a0:	9a01      	ldr	r2, [sp, #4]
     8a2:	4282      	cmp	r2, r0
     8a4:	d008      	beq.n	8b8 <_sercom_get_sercom_inst_index+0x30>
     8a6:	9a02      	ldr	r2, [sp, #8]
     8a8:	4282      	cmp	r2, r0
     8aa:	d007      	beq.n	8bc <_sercom_get_sercom_inst_index+0x34>
     8ac:	2000      	movs	r0, #0
     8ae:	9a03      	ldr	r2, [sp, #12]
     8b0:	429a      	cmp	r2, r3
     8b2:	d107      	bne.n	8c4 <_sercom_get_sercom_inst_index+0x3c>
     8b4:	3003      	adds	r0, #3
     8b6:	e004      	b.n	8c2 <_sercom_get_sercom_inst_index+0x3a>
     8b8:	2001      	movs	r0, #1
     8ba:	e002      	b.n	8c2 <_sercom_get_sercom_inst_index+0x3a>
     8bc:	2002      	movs	r0, #2
     8be:	e000      	b.n	8c2 <_sercom_get_sercom_inst_index+0x3a>
     8c0:	2000      	movs	r0, #0
     8c2:	b2c0      	uxtb	r0, r0
     8c4:	b005      	add	sp, #20
     8c6:	bd30      	pop	{r4, r5, pc}
     8c8:	00003cd4 	.word	0x00003cd4

000008cc <nvm_set_config>:
     8cc:	b510      	push	{r4, lr}
     8ce:	4a1d      	ldr	r2, [pc, #116]	; (944 <nvm_set_config+0x78>)
     8d0:	69d1      	ldr	r1, [r2, #28]
     8d2:	2304      	movs	r3, #4
     8d4:	430b      	orrs	r3, r1
     8d6:	61d3      	str	r3, [r2, #28]
     8d8:	4b1b      	ldr	r3, [pc, #108]	; (948 <nvm_set_config+0x7c>)
     8da:	2220      	movs	r2, #32
     8dc:	32ff      	adds	r2, #255	; 0xff
     8de:	831a      	strh	r2, [r3, #24]
     8e0:	7d1a      	ldrb	r2, [r3, #20]
     8e2:	2305      	movs	r3, #5
     8e4:	07d2      	lsls	r2, r2, #31
     8e6:	d52b      	bpl.n	940 <nvm_set_config+0x74>
     8e8:	7802      	ldrb	r2, [r0, #0]
     8ea:	0212      	lsls	r2, r2, #8
     8ec:	21c0      	movs	r1, #192	; 0xc0
     8ee:	0089      	lsls	r1, r1, #2
     8f0:	400a      	ands	r2, r1
     8f2:	1c14      	adds	r4, r2, #0
     8f4:	7841      	ldrb	r1, [r0, #1]
     8f6:	01c9      	lsls	r1, r1, #7
     8f8:	22ff      	movs	r2, #255	; 0xff
     8fa:	1c13      	adds	r3, r2, #0
     8fc:	400b      	ands	r3, r1
     8fe:	1c22      	adds	r2, r4, #0
     900:	431a      	orrs	r2, r3
     902:	78c3      	ldrb	r3, [r0, #3]
     904:	049b      	lsls	r3, r3, #18
     906:	4313      	orrs	r3, r2
     908:	7882      	ldrb	r2, [r0, #2]
     90a:	0052      	lsls	r2, r2, #1
     90c:	211e      	movs	r1, #30
     90e:	400a      	ands	r2, r1
     910:	4313      	orrs	r3, r2
     912:	7902      	ldrb	r2, [r0, #4]
     914:	0412      	lsls	r2, r2, #16
     916:	21c0      	movs	r1, #192	; 0xc0
     918:	0289      	lsls	r1, r1, #10
     91a:	400a      	ands	r2, r1
     91c:	4313      	orrs	r3, r2
     91e:	4a0a      	ldr	r2, [pc, #40]	; (948 <nvm_set_config+0x7c>)
     920:	6053      	str	r3, [r2, #4]
     922:	6893      	ldr	r3, [r2, #8]
     924:	035b      	lsls	r3, r3, #13
     926:	0f5b      	lsrs	r3, r3, #29
     928:	4908      	ldr	r1, [pc, #32]	; (94c <nvm_set_config+0x80>)
     92a:	2408      	movs	r4, #8
     92c:	409c      	lsls	r4, r3
     92e:	800c      	strh	r4, [r1, #0]
     930:	6893      	ldr	r3, [r2, #8]
     932:	804b      	strh	r3, [r1, #2]
     934:	7843      	ldrb	r3, [r0, #1]
     936:	710b      	strb	r3, [r1, #4]
     938:	8b13      	ldrh	r3, [r2, #24]
     93a:	05db      	lsls	r3, r3, #23
     93c:	0fdb      	lsrs	r3, r3, #31
     93e:	011b      	lsls	r3, r3, #4
     940:	1c18      	adds	r0, r3, #0
     942:	bd10      	pop	{r4, pc}
     944:	40000400 	.word	0x40000400
     948:	41004000 	.word	0x41004000
     94c:	20000040 	.word	0x20000040

00000950 <nvm_execute_command>:
     950:	b530      	push	{r4, r5, lr}
     952:	1c04      	adds	r4, r0, #0
     954:	4a23      	ldr	r2, [pc, #140]	; (9e4 <nvm_execute_command+0x94>)
     956:	8850      	ldrh	r0, [r2, #2]
     958:	8813      	ldrh	r3, [r2, #0]
     95a:	4343      	muls	r3, r0
     95c:	428b      	cmp	r3, r1
     95e:	d206      	bcs.n	96e <nvm_execute_command+0x1e>
     960:	2018      	movs	r0, #24
     962:	2280      	movs	r2, #128	; 0x80
     964:	0192      	lsls	r2, r2, #6
     966:	4b20      	ldr	r3, [pc, #128]	; (9e8 <nvm_execute_command+0x98>)
     968:	18cb      	adds	r3, r1, r3
     96a:	4293      	cmp	r3, r2
     96c:	d838      	bhi.n	9e0 <nvm_execute_command+0x90>
     96e:	4b1f      	ldr	r3, [pc, #124]	; (9ec <nvm_execute_command+0x9c>)
     970:	685d      	ldr	r5, [r3, #4]
     972:	2280      	movs	r2, #128	; 0x80
     974:	02d2      	lsls	r2, r2, #11
     976:	432a      	orrs	r2, r5
     978:	605a      	str	r2, [r3, #4]
     97a:	2220      	movs	r2, #32
     97c:	32ff      	adds	r2, #255	; 0xff
     97e:	831a      	strh	r2, [r3, #24]
     980:	7d1b      	ldrb	r3, [r3, #20]
     982:	07db      	lsls	r3, r3, #31
     984:	d403      	bmi.n	98e <nvm_execute_command+0x3e>
     986:	4b19      	ldr	r3, [pc, #100]	; (9ec <nvm_execute_command+0x9c>)
     988:	605d      	str	r5, [r3, #4]
     98a:	2005      	movs	r0, #5
     98c:	e028      	b.n	9e0 <nvm_execute_command+0x90>
     98e:	2c45      	cmp	r4, #69	; 0x45
     990:	d815      	bhi.n	9be <nvm_execute_command+0x6e>
     992:	00a3      	lsls	r3, r4, #2
     994:	4a16      	ldr	r2, [pc, #88]	; (9f0 <nvm_execute_command+0xa0>)
     996:	58d3      	ldr	r3, [r2, r3]
     998:	469f      	mov	pc, r3
     99a:	4b14      	ldr	r3, [pc, #80]	; (9ec <nvm_execute_command+0x9c>)
     99c:	8b1b      	ldrh	r3, [r3, #24]
     99e:	05db      	lsls	r3, r3, #23
     9a0:	d503      	bpl.n	9aa <nvm_execute_command+0x5a>
     9a2:	4b12      	ldr	r3, [pc, #72]	; (9ec <nvm_execute_command+0x9c>)
     9a4:	605d      	str	r5, [r3, #4]
     9a6:	2010      	movs	r0, #16
     9a8:	e01a      	b.n	9e0 <nvm_execute_command+0x90>
     9aa:	0889      	lsrs	r1, r1, #2
     9ac:	0049      	lsls	r1, r1, #1
     9ae:	4b0f      	ldr	r3, [pc, #60]	; (9ec <nvm_execute_command+0x9c>)
     9b0:	61d9      	str	r1, [r3, #28]
     9b2:	e008      	b.n	9c6 <nvm_execute_command+0x76>
     9b4:	0889      	lsrs	r1, r1, #2
     9b6:	0049      	lsls	r1, r1, #1
     9b8:	4b0c      	ldr	r3, [pc, #48]	; (9ec <nvm_execute_command+0x9c>)
     9ba:	61d9      	str	r1, [r3, #28]
     9bc:	e003      	b.n	9c6 <nvm_execute_command+0x76>
     9be:	4b0b      	ldr	r3, [pc, #44]	; (9ec <nvm_execute_command+0x9c>)
     9c0:	605d      	str	r5, [r3, #4]
     9c2:	2017      	movs	r0, #23
     9c4:	e00c      	b.n	9e0 <nvm_execute_command+0x90>
     9c6:	20a5      	movs	r0, #165	; 0xa5
     9c8:	0200      	lsls	r0, r0, #8
     9ca:	4304      	orrs	r4, r0
     9cc:	4b07      	ldr	r3, [pc, #28]	; (9ec <nvm_execute_command+0x9c>)
     9ce:	801c      	strh	r4, [r3, #0]
     9d0:	1c19      	adds	r1, r3, #0
     9d2:	2201      	movs	r2, #1
     9d4:	7d0b      	ldrb	r3, [r1, #20]
     9d6:	4213      	tst	r3, r2
     9d8:	d0fc      	beq.n	9d4 <nvm_execute_command+0x84>
     9da:	4b04      	ldr	r3, [pc, #16]	; (9ec <nvm_execute_command+0x9c>)
     9dc:	605d      	str	r5, [r3, #4]
     9de:	2000      	movs	r0, #0
     9e0:	bd30      	pop	{r4, r5, pc}
     9e2:	46c0      	nop			; (mov r8, r8)
     9e4:	20000040 	.word	0x20000040
     9e8:	ff7fc000 	.word	0xff7fc000
     9ec:	41004000 	.word	0x41004000
     9f0:	00003ce4 	.word	0x00003ce4

000009f4 <nvm_write_buffer>:
     9f4:	b5f8      	push	{r3, r4, r5, r6, r7, lr}
     9f6:	4b24      	ldr	r3, [pc, #144]	; (a88 <nvm_write_buffer+0x94>)
     9f8:	881d      	ldrh	r5, [r3, #0]
     9fa:	885b      	ldrh	r3, [r3, #2]
     9fc:	436b      	muls	r3, r5
     9fe:	2418      	movs	r4, #24
     a00:	4283      	cmp	r3, r0
     a02:	d33e      	bcc.n	a82 <nvm_write_buffer+0x8e>
     a04:	1e6b      	subs	r3, r5, #1
     a06:	4203      	tst	r3, r0
     a08:	d13b      	bne.n	a82 <nvm_write_buffer+0x8e>
     a0a:	3c01      	subs	r4, #1
     a0c:	4295      	cmp	r5, r2
     a0e:	d338      	bcc.n	a82 <nvm_write_buffer+0x8e>
     a10:	4b1e      	ldr	r3, [pc, #120]	; (a8c <nvm_write_buffer+0x98>)
     a12:	7d1b      	ldrb	r3, [r3, #20]
     a14:	3c12      	subs	r4, #18
     a16:	07db      	lsls	r3, r3, #31
     a18:	d533      	bpl.n	a82 <nvm_write_buffer+0x8e>
     a1a:	4c1d      	ldr	r4, [pc, #116]	; (a90 <nvm_write_buffer+0x9c>)
     a1c:	4b1b      	ldr	r3, [pc, #108]	; (a8c <nvm_write_buffer+0x98>)
     a1e:	801c      	strh	r4, [r3, #0]
     a20:	1c1d      	adds	r5, r3, #0
     a22:	2401      	movs	r4, #1
     a24:	7d2b      	ldrb	r3, [r5, #20]
     a26:	4223      	tst	r3, r4
     a28:	d0fc      	beq.n	a24 <nvm_write_buffer+0x30>
     a2a:	2420      	movs	r4, #32
     a2c:	34ff      	adds	r4, #255	; 0xff
     a2e:	4b17      	ldr	r3, [pc, #92]	; (a8c <nvm_write_buffer+0x98>)
     a30:	831c      	strh	r4, [r3, #24]
     a32:	0846      	lsrs	r6, r0, #1
     a34:	2a00      	cmp	r2, #0
     a36:	d01f      	beq.n	a78 <nvm_write_buffer+0x84>
     a38:	0076      	lsls	r6, r6, #1
     a3a:	2300      	movs	r3, #0
     a3c:	1e57      	subs	r7, r2, #1
     a3e:	5ccd      	ldrb	r5, [r1, r3]
     a40:	42bb      	cmp	r3, r7
     a42:	db01      	blt.n	a48 <nvm_write_buffer+0x54>
     a44:	b2ac      	uxth	r4, r5
     a46:	e003      	b.n	a50 <nvm_write_buffer+0x5c>
     a48:	18cc      	adds	r4, r1, r3
     a4a:	7864      	ldrb	r4, [r4, #1]
     a4c:	0224      	lsls	r4, r4, #8
     a4e:	432c      	orrs	r4, r5
     a50:	8034      	strh	r4, [r6, #0]
     a52:	3302      	adds	r3, #2
     a54:	b29b      	uxth	r3, r3
     a56:	3602      	adds	r6, #2
     a58:	429a      	cmp	r2, r3
     a5a:	d8f0      	bhi.n	a3e <nvm_write_buffer+0x4a>
     a5c:	4b0a      	ldr	r3, [pc, #40]	; (a88 <nvm_write_buffer+0x94>)
     a5e:	791b      	ldrb	r3, [r3, #4]
     a60:	2400      	movs	r4, #0
     a62:	2b00      	cmp	r3, #0
     a64:	d10d      	bne.n	a82 <nvm_write_buffer+0x8e>
     a66:	2a3f      	cmp	r2, #63	; 0x3f
     a68:	d80b      	bhi.n	a82 <nvm_write_buffer+0x8e>
     a6a:	1c01      	adds	r1, r0, #0
     a6c:	2004      	movs	r0, #4
     a6e:	2200      	movs	r2, #0
     a70:	4b08      	ldr	r3, [pc, #32]	; (a94 <nvm_write_buffer+0xa0>)
     a72:	4798      	blx	r3
     a74:	1c04      	adds	r4, r0, #0
     a76:	e004      	b.n	a82 <nvm_write_buffer+0x8e>
     a78:	4b03      	ldr	r3, [pc, #12]	; (a88 <nvm_write_buffer+0x94>)
     a7a:	791b      	ldrb	r3, [r3, #4]
     a7c:	2400      	movs	r4, #0
     a7e:	2b00      	cmp	r3, #0
     a80:	d0f3      	beq.n	a6a <nvm_write_buffer+0x76>
     a82:	1c20      	adds	r0, r4, #0
     a84:	bdf8      	pop	{r3, r4, r5, r6, r7, pc}
     a86:	46c0      	nop			; (mov r8, r8)
     a88:	20000040 	.word	0x20000040
     a8c:	41004000 	.word	0x41004000
     a90:	ffffa544 	.word	0xffffa544
     a94:	00000951 	.word	0x00000951

00000a98 <nvm_read_buffer>:
     a98:	b570      	push	{r4, r5, r6, lr}
     a9a:	4b18      	ldr	r3, [pc, #96]	; (afc <nvm_read_buffer+0x64>)
     a9c:	881d      	ldrh	r5, [r3, #0]
     a9e:	885b      	ldrh	r3, [r3, #2]
     aa0:	436b      	muls	r3, r5
     aa2:	2418      	movs	r4, #24
     aa4:	4283      	cmp	r3, r0
     aa6:	d326      	bcc.n	af6 <nvm_read_buffer+0x5e>
     aa8:	1e6b      	subs	r3, r5, #1
     aaa:	4203      	tst	r3, r0
     aac:	d123      	bne.n	af6 <nvm_read_buffer+0x5e>
     aae:	3c01      	subs	r4, #1
     ab0:	4295      	cmp	r5, r2
     ab2:	d320      	bcc.n	af6 <nvm_read_buffer+0x5e>
     ab4:	4b12      	ldr	r3, [pc, #72]	; (b00 <nvm_read_buffer+0x68>)
     ab6:	7d1b      	ldrb	r3, [r3, #20]
     ab8:	3c12      	subs	r4, #18
     aba:	07db      	lsls	r3, r3, #31
     abc:	d51b      	bpl.n	af6 <nvm_read_buffer+0x5e>
     abe:	2420      	movs	r4, #32
     ac0:	34ff      	adds	r4, #255	; 0xff
     ac2:	4b0f      	ldr	r3, [pc, #60]	; (b00 <nvm_read_buffer+0x68>)
     ac4:	831c      	strh	r4, [r3, #24]
     ac6:	0840      	lsrs	r0, r0, #1
     ac8:	2a00      	cmp	r2, #0
     aca:	d013      	beq.n	af4 <nvm_read_buffer+0x5c>
     acc:	0040      	lsls	r0, r0, #1
     ace:	2500      	movs	r5, #0
     ad0:	1e56      	subs	r6, r2, #1
     ad2:	182b      	adds	r3, r5, r0
     ad4:	881c      	ldrh	r4, [r3, #0]
     ad6:	b2a4      	uxth	r4, r4
     ad8:	042b      	lsls	r3, r5, #16
     ada:	0c1b      	lsrs	r3, r3, #16
     adc:	54cc      	strb	r4, [r1, r3]
     ade:	42b3      	cmp	r3, r6
     ae0:	da02      	bge.n	ae8 <nvm_read_buffer+0x50>
     ae2:	18cb      	adds	r3, r1, r3
     ae4:	0a24      	lsrs	r4, r4, #8
     ae6:	705c      	strb	r4, [r3, #1]
     ae8:	3502      	adds	r5, #2
     aea:	b2ab      	uxth	r3, r5
     aec:	429a      	cmp	r2, r3
     aee:	d8f0      	bhi.n	ad2 <nvm_read_buffer+0x3a>
     af0:	2400      	movs	r4, #0
     af2:	e000      	b.n	af6 <nvm_read_buffer+0x5e>
     af4:	2400      	movs	r4, #0
     af6:	1c20      	adds	r0, r4, #0
     af8:	bd70      	pop	{r4, r5, r6, pc}
     afa:	46c0      	nop			; (mov r8, r8)
     afc:	20000040 	.word	0x20000040
     b00:	41004000 	.word	0x41004000

00000b04 <nvm_erase_row>:
     b04:	4b10      	ldr	r3, [pc, #64]	; (b48 <nvm_erase_row+0x44>)
     b06:	881a      	ldrh	r2, [r3, #0]
     b08:	885b      	ldrh	r3, [r3, #2]
     b0a:	4353      	muls	r3, r2
     b0c:	2118      	movs	r1, #24
     b0e:	4283      	cmp	r3, r0
     b10:	d317      	bcc.n	b42 <nvm_erase_row+0x3e>
     b12:	0092      	lsls	r2, r2, #2
     b14:	3a01      	subs	r2, #1
     b16:	4210      	tst	r0, r2
     b18:	d113      	bne.n	b42 <nvm_erase_row+0x3e>
     b1a:	4b0c      	ldr	r3, [pc, #48]	; (b4c <nvm_erase_row+0x48>)
     b1c:	7d1b      	ldrb	r3, [r3, #20]
     b1e:	3913      	subs	r1, #19
     b20:	07db      	lsls	r3, r3, #31
     b22:	d50e      	bpl.n	b42 <nvm_erase_row+0x3e>
     b24:	4b09      	ldr	r3, [pc, #36]	; (b4c <nvm_erase_row+0x48>)
     b26:	2220      	movs	r2, #32
     b28:	32ff      	adds	r2, #255	; 0xff
     b2a:	831a      	strh	r2, [r3, #24]
     b2c:	0880      	lsrs	r0, r0, #2
     b2e:	0040      	lsls	r0, r0, #1
     b30:	61d8      	str	r0, [r3, #28]
     b32:	4a07      	ldr	r2, [pc, #28]	; (b50 <nvm_erase_row+0x4c>)
     b34:	801a      	strh	r2, [r3, #0]
     b36:	1c19      	adds	r1, r3, #0
     b38:	2201      	movs	r2, #1
     b3a:	7d0b      	ldrb	r3, [r1, #20]
     b3c:	4213      	tst	r3, r2
     b3e:	d0fc      	beq.n	b3a <nvm_erase_row+0x36>
     b40:	2100      	movs	r1, #0
     b42:	1c08      	adds	r0, r1, #0
     b44:	4770      	bx	lr
     b46:	46c0      	nop			; (mov r8, r8)
     b48:	20000040 	.word	0x20000040
     b4c:	41004000 	.word	0x41004000
     b50:	ffffa502 	.word	0xffffa502

00000b54 <tc_register_callback>:
     b54:	1c93      	adds	r3, r2, #2
     b56:	009b      	lsls	r3, r3, #2
     b58:	5019      	str	r1, [r3, r0]
     b5a:	2a02      	cmp	r2, #2
     b5c:	d104      	bne.n	b68 <tc_register_callback+0x14>
     b5e:	7e02      	ldrb	r2, [r0, #24]
     b60:	2310      	movs	r3, #16
     b62:	4313      	orrs	r3, r2
     b64:	7603      	strb	r3, [r0, #24]
     b66:	e00c      	b.n	b82 <tc_register_callback+0x2e>
     b68:	2a03      	cmp	r2, #3
     b6a:	d104      	bne.n	b76 <tc_register_callback+0x22>
     b6c:	7e02      	ldrb	r2, [r0, #24]
     b6e:	2320      	movs	r3, #32
     b70:	4313      	orrs	r3, r2
     b72:	7603      	strb	r3, [r0, #24]
     b74:	e005      	b.n	b82 <tc_register_callback+0x2e>
     b76:	2301      	movs	r3, #1
     b78:	4093      	lsls	r3, r2
     b7a:	1c1a      	adds	r2, r3, #0
     b7c:	7e03      	ldrb	r3, [r0, #24]
     b7e:	431a      	orrs	r2, r3
     b80:	7602      	strb	r2, [r0, #24]
     b82:	2000      	movs	r0, #0
     b84:	4770      	bx	lr
     b86:	46c0      	nop			; (mov r8, r8)

00000b88 <_tc_interrupt_handler>:
     b88:	b538      	push	{r3, r4, r5, lr}
     b8a:	0080      	lsls	r0, r0, #2
     b8c:	4b14      	ldr	r3, [pc, #80]	; (be0 <_tc_interrupt_handler+0x58>)
     b8e:	58c5      	ldr	r5, [r0, r3]
     b90:	682b      	ldr	r3, [r5, #0]
     b92:	7b9c      	ldrb	r4, [r3, #14]
     b94:	7e2b      	ldrb	r3, [r5, #24]
     b96:	401c      	ands	r4, r3
     b98:	7e6b      	ldrb	r3, [r5, #25]
     b9a:	401c      	ands	r4, r3
     b9c:	07e3      	lsls	r3, r4, #31
     b9e:	d505      	bpl.n	bac <_tc_interrupt_handler+0x24>
     ba0:	1c28      	adds	r0, r5, #0
     ba2:	68ab      	ldr	r3, [r5, #8]
     ba4:	4798      	blx	r3
     ba6:	2301      	movs	r3, #1
     ba8:	682a      	ldr	r2, [r5, #0]
     baa:	7393      	strb	r3, [r2, #14]
     bac:	07a3      	lsls	r3, r4, #30
     bae:	d505      	bpl.n	bbc <_tc_interrupt_handler+0x34>
     bb0:	1c28      	adds	r0, r5, #0
     bb2:	68eb      	ldr	r3, [r5, #12]
     bb4:	4798      	blx	r3
     bb6:	2302      	movs	r3, #2
     bb8:	682a      	ldr	r2, [r5, #0]
     bba:	7393      	strb	r3, [r2, #14]
     bbc:	06e3      	lsls	r3, r4, #27
     bbe:	d505      	bpl.n	bcc <_tc_interrupt_handler+0x44>
     bc0:	1c28      	adds	r0, r5, #0
     bc2:	692b      	ldr	r3, [r5, #16]
     bc4:	4798      	blx	r3
     bc6:	2310      	movs	r3, #16
     bc8:	682a      	ldr	r2, [r5, #0]
     bca:	7393      	strb	r3, [r2, #14]
     bcc:	06a3      	lsls	r3, r4, #26
     bce:	d505      	bpl.n	bdc <_tc_interrupt_handler+0x54>
     bd0:	1c28      	adds	r0, r5, #0
     bd2:	696b      	ldr	r3, [r5, #20]
     bd4:	4798      	blx	r3
     bd6:	682b      	ldr	r3, [r5, #0]
     bd8:	2220      	movs	r2, #32
     bda:	739a      	strb	r2, [r3, #14]
     bdc:	bd38      	pop	{r3, r4, r5, pc}
     bde:	46c0      	nop			; (mov r8, r8)
     be0:	200008f0 	.word	0x200008f0

00000be4 <TC0_Handler>:
     be4:	b508      	push	{r3, lr}
     be6:	2000      	movs	r0, #0
     be8:	4b01      	ldr	r3, [pc, #4]	; (bf0 <TC0_Handler+0xc>)
     bea:	4798      	blx	r3
     bec:	bd08      	pop	{r3, pc}
     bee:	46c0      	nop			; (mov r8, r8)
     bf0:	00000b89 	.word	0x00000b89

00000bf4 <TC1_Handler>:
     bf4:	b508      	push	{r3, lr}
     bf6:	2001      	movs	r0, #1
     bf8:	4b01      	ldr	r3, [pc, #4]	; (c00 <TC1_Handler+0xc>)
     bfa:	4798      	blx	r3
     bfc:	bd08      	pop	{r3, pc}
     bfe:	46c0      	nop			; (mov r8, r8)
     c00:	00000b89 	.word	0x00000b89

00000c04 <TC2_Handler>:
     c04:	b508      	push	{r3, lr}
     c06:	2002      	movs	r0, #2
     c08:	4b01      	ldr	r3, [pc, #4]	; (c10 <TC2_Handler+0xc>)
     c0a:	4798      	blx	r3
     c0c:	bd08      	pop	{r3, pc}
     c0e:	46c0      	nop			; (mov r8, r8)
     c10:	00000b89 	.word	0x00000b89

00000c14 <TC3_Handler>:
     c14:	b508      	push	{r3, lr}
     c16:	2003      	movs	r0, #3
     c18:	4b01      	ldr	r3, [pc, #4]	; (c20 <TC3_Handler+0xc>)
     c1a:	4798      	blx	r3
     c1c:	bd08      	pop	{r3, pc}
     c1e:	46c0      	nop			; (mov r8, r8)
     c20:	00000b89 	.word	0x00000b89

00000c24 <TC4_Handler>:
     c24:	b508      	push	{r3, lr}
     c26:	2004      	movs	r0, #4
     c28:	4b01      	ldr	r3, [pc, #4]	; (c30 <TC4_Handler+0xc>)
     c2a:	4798      	blx	r3
     c2c:	bd08      	pop	{r3, pc}
     c2e:	46c0      	nop			; (mov r8, r8)
     c30:	00000b89 	.word	0x00000b89

00000c34 <TC5_Handler>:
     c34:	b508      	push	{r3, lr}
     c36:	2005      	movs	r0, #5
     c38:	4b01      	ldr	r3, [pc, #4]	; (c40 <TC5_Handler+0xc>)
     c3a:	4798      	blx	r3
     c3c:	bd08      	pop	{r3, pc}
     c3e:	46c0      	nop			; (mov r8, r8)
     c40:	00000b89 	.word	0x00000b89

00000c44 <_tc_get_inst_index>:
     c44:	b530      	push	{r4, r5, lr}
     c46:	b087      	sub	sp, #28
     c48:	4b0c      	ldr	r3, [pc, #48]	; (c7c <_tc_get_inst_index+0x38>)
     c4a:	466a      	mov	r2, sp
     c4c:	cb32      	ldmia	r3!, {r1, r4, r5}
     c4e:	c232      	stmia	r2!, {r1, r4, r5}
     c50:	cb32      	ldmia	r3!, {r1, r4, r5}
     c52:	c232      	stmia	r2!, {r1, r4, r5}
     c54:	9b00      	ldr	r3, [sp, #0]
     c56:	4283      	cmp	r3, r0
     c58:	d006      	beq.n	c68 <_tc_get_inst_index+0x24>
     c5a:	2301      	movs	r3, #1
     c5c:	009a      	lsls	r2, r3, #2
     c5e:	4669      	mov	r1, sp
     c60:	5852      	ldr	r2, [r2, r1]
     c62:	4282      	cmp	r2, r0
     c64:	d103      	bne.n	c6e <_tc_get_inst_index+0x2a>
     c66:	e000      	b.n	c6a <_tc_get_inst_index+0x26>
     c68:	2300      	movs	r3, #0
     c6a:	b2d8      	uxtb	r0, r3
     c6c:	e003      	b.n	c76 <_tc_get_inst_index+0x32>
     c6e:	3301      	adds	r3, #1
     c70:	2b06      	cmp	r3, #6
     c72:	d1f3      	bne.n	c5c <_tc_get_inst_index+0x18>
     c74:	2000      	movs	r0, #0
     c76:	b007      	add	sp, #28
     c78:	bd30      	pop	{r4, r5, pc}
     c7a:	46c0      	nop			; (mov r8, r8)
     c7c:	00003dfc 	.word	0x00003dfc

00000c80 <tc_init>:
     c80:	b5f0      	push	{r4, r5, r6, r7, lr}
     c82:	464f      	mov	r7, r9
     c84:	4646      	mov	r6, r8
     c86:	b4c0      	push	{r6, r7}
     c88:	b089      	sub	sp, #36	; 0x24
     c8a:	1c04      	adds	r4, r0, #0
     c8c:	1c0e      	adds	r6, r1, #0
     c8e:	4690      	mov	r8, r2
     c90:	1c08      	adds	r0, r1, #0
     c92:	4b91      	ldr	r3, [pc, #580]	; (ed8 <tc_init+0x258>)
     c94:	4798      	blx	r3
     c96:	4681      	mov	r9, r0
     c98:	4d90      	ldr	r5, [pc, #576]	; (edc <tc_init+0x25c>)
     c9a:	1c29      	adds	r1, r5, #0
     c9c:	3118      	adds	r1, #24
     c9e:	a806      	add	r0, sp, #24
     ca0:	2206      	movs	r2, #6
     ca2:	4f8f      	ldr	r7, [pc, #572]	; (ee0 <tc_init+0x260>)
     ca4:	47b8      	blx	r7
     ca6:	1c29      	adds	r1, r5, #0
     ca8:	3120      	adds	r1, #32
     caa:	a803      	add	r0, sp, #12
     cac:	220c      	movs	r2, #12
     cae:	47b8      	blx	r7
     cb0:	2300      	movs	r3, #0
     cb2:	60a3      	str	r3, [r4, #8]
     cb4:	60e3      	str	r3, [r4, #12]
     cb6:	6123      	str	r3, [r4, #16]
     cb8:	6163      	str	r3, [r4, #20]
     cba:	7623      	strb	r3, [r4, #24]
     cbc:	7663      	strb	r3, [r4, #25]
     cbe:	464b      	mov	r3, r9
     cc0:	009a      	lsls	r2, r3, #2
     cc2:	4b88      	ldr	r3, [pc, #544]	; (ee4 <tc_init+0x264>)
     cc4:	50d4      	str	r4, [r2, r3]
     cc6:	6026      	str	r6, [r4, #0]
     cc8:	4643      	mov	r3, r8
     cca:	789b      	ldrb	r3, [r3, #2]
     ccc:	2b08      	cmp	r3, #8
     cce:	d104      	bne.n	cda <tc_init+0x5a>
     cd0:	2017      	movs	r0, #23
     cd2:	464a      	mov	r2, r9
     cd4:	07d2      	lsls	r2, r2, #31
     cd6:	d500      	bpl.n	cda <tc_init+0x5a>
     cd8:	e0f9      	b.n	ece <tc_init+0x24e>
     cda:	7123      	strb	r3, [r4, #4]
     cdc:	8833      	ldrh	r3, [r6, #0]
     cde:	2005      	movs	r0, #5
     ce0:	07db      	lsls	r3, r3, #31
     ce2:	d500      	bpl.n	ce6 <tc_init+0x66>
     ce4:	e0f3      	b.n	ece <tc_init+0x24e>
     ce6:	7bf3      	ldrb	r3, [r6, #15]
     ce8:	3017      	adds	r0, #23
     cea:	06db      	lsls	r3, r3, #27
     cec:	d500      	bpl.n	cf0 <tc_init+0x70>
     cee:	e0ee      	b.n	ece <tc_init+0x24e>
     cf0:	8833      	ldrh	r3, [r6, #0]
     cf2:	079b      	lsls	r3, r3, #30
     cf4:	d500      	bpl.n	cf8 <tc_init+0x78>
     cf6:	e0ea      	b.n	ece <tc_init+0x24e>
     cf8:	4643      	mov	r3, r8
     cfa:	7c1b      	ldrb	r3, [r3, #16]
     cfc:	2b00      	cmp	r3, #0
     cfe:	d00c      	beq.n	d1a <tc_init+0x9a>
     d00:	a902      	add	r1, sp, #8
     d02:	2301      	movs	r3, #1
     d04:	708b      	strb	r3, [r1, #2]
     d06:	2200      	movs	r2, #0
     d08:	70ca      	strb	r2, [r1, #3]
     d0a:	4642      	mov	r2, r8
     d0c:	7e12      	ldrb	r2, [r2, #24]
     d0e:	700a      	strb	r2, [r1, #0]
     d10:	704b      	strb	r3, [r1, #1]
     d12:	4643      	mov	r3, r8
     d14:	7d18      	ldrb	r0, [r3, #20]
     d16:	4b74      	ldr	r3, [pc, #464]	; (ee8 <tc_init+0x268>)
     d18:	4798      	blx	r3
     d1a:	4643      	mov	r3, r8
     d1c:	7f1b      	ldrb	r3, [r3, #28]
     d1e:	2b00      	cmp	r3, #0
     d20:	d00d      	beq.n	d3e <tc_init+0xbe>
     d22:	a902      	add	r1, sp, #8
     d24:	2301      	movs	r3, #1
     d26:	708b      	strb	r3, [r1, #2]
     d28:	2200      	movs	r2, #0
     d2a:	70ca      	strb	r2, [r1, #3]
     d2c:	4642      	mov	r2, r8
     d2e:	6a52      	ldr	r2, [r2, #36]	; 0x24
     d30:	700a      	strb	r2, [r1, #0]
     d32:	704b      	strb	r3, [r1, #1]
     d34:	4643      	mov	r3, r8
     d36:	6a1b      	ldr	r3, [r3, #32]
     d38:	b2d8      	uxtb	r0, r3
     d3a:	4b6b      	ldr	r3, [pc, #428]	; (ee8 <tc_init+0x268>)
     d3c:	4798      	blx	r3
     d3e:	496b      	ldr	r1, [pc, #428]	; (eec <tc_init+0x26c>)
     d40:	6a0b      	ldr	r3, [r1, #32]
     d42:	464a      	mov	r2, r9
     d44:	0052      	lsls	r2, r2, #1
     d46:	a803      	add	r0, sp, #12
     d48:	5a12      	ldrh	r2, [r2, r0]
     d4a:	4313      	orrs	r3, r2
     d4c:	620b      	str	r3, [r1, #32]
     d4e:	4643      	mov	r3, r8
     d50:	789b      	ldrb	r3, [r3, #2]
     d52:	2b08      	cmp	r3, #8
     d54:	d106      	bne.n	d64 <tc_init+0xe4>
     d56:	6a0b      	ldr	r3, [r1, #32]
     d58:	464a      	mov	r2, r9
     d5a:	3201      	adds	r2, #1
     d5c:	0052      	lsls	r2, r2, #1
     d5e:	5a12      	ldrh	r2, [r2, r0]
     d60:	4313      	orrs	r3, r2
     d62:	620b      	str	r3, [r1, #32]
     d64:	a901      	add	r1, sp, #4
     d66:	4643      	mov	r3, r8
     d68:	781b      	ldrb	r3, [r3, #0]
     d6a:	700b      	strb	r3, [r1, #0]
     d6c:	ab06      	add	r3, sp, #24
     d6e:	464a      	mov	r2, r9
     d70:	5c9d      	ldrb	r5, [r3, r2]
     d72:	1c28      	adds	r0, r5, #0
     d74:	4b5e      	ldr	r3, [pc, #376]	; (ef0 <tc_init+0x270>)
     d76:	4798      	blx	r3
     d78:	1c28      	adds	r0, r5, #0
     d7a:	4b5e      	ldr	r3, [pc, #376]	; (ef4 <tc_init+0x274>)
     d7c:	4798      	blx	r3
     d7e:	4643      	mov	r3, r8
     d80:	8898      	ldrh	r0, [r3, #4]
     d82:	891b      	ldrh	r3, [r3, #8]
     d84:	4303      	orrs	r3, r0
     d86:	4642      	mov	r2, r8
     d88:	7990      	ldrb	r0, [r2, #6]
     d8a:	7892      	ldrb	r2, [r2, #2]
     d8c:	4310      	orrs	r0, r2
     d8e:	4318      	orrs	r0, r3
     d90:	4643      	mov	r3, r8
     d92:	785b      	ldrb	r3, [r3, #1]
     d94:	2b00      	cmp	r3, #0
     d96:	d002      	beq.n	d9e <tc_init+0x11e>
     d98:	2380      	movs	r3, #128	; 0x80
     d9a:	011b      	lsls	r3, r3, #4
     d9c:	4318      	orrs	r0, r3
     d9e:	6821      	ldr	r1, [r4, #0]
     da0:	227f      	movs	r2, #127	; 0x7f
     da2:	7bcb      	ldrb	r3, [r1, #15]
     da4:	4393      	bics	r3, r2
     da6:	d1fc      	bne.n	da2 <tc_init+0x122>
     da8:	8030      	strh	r0, [r6, #0]
     daa:	4643      	mov	r3, r8
     dac:	7b58      	ldrb	r0, [r3, #13]
     dae:	1e43      	subs	r3, r0, #1
     db0:	4198      	sbcs	r0, r3
     db2:	0080      	lsls	r0, r0, #2
     db4:	4643      	mov	r3, r8
     db6:	7b9b      	ldrb	r3, [r3, #14]
     db8:	2b00      	cmp	r3, #0
     dba:	d001      	beq.n	dc0 <tc_init+0x140>
     dbc:	2301      	movs	r3, #1
     dbe:	4318      	orrs	r0, r3
     dc0:	6821      	ldr	r1, [r4, #0]
     dc2:	227f      	movs	r2, #127	; 0x7f
     dc4:	7bcb      	ldrb	r3, [r1, #15]
     dc6:	4393      	bics	r3, r2
     dc8:	d1fc      	bne.n	dc4 <tc_init+0x144>
     dca:	33ff      	adds	r3, #255	; 0xff
     dcc:	7133      	strb	r3, [r6, #4]
     dce:	2800      	cmp	r0, #0
     dd0:	d005      	beq.n	dde <tc_init+0x15e>
     dd2:	6821      	ldr	r1, [r4, #0]
     dd4:	227f      	movs	r2, #127	; 0x7f
     dd6:	7bcb      	ldrb	r3, [r1, #15]
     dd8:	4393      	bics	r3, r2
     dda:	d1fc      	bne.n	dd6 <tc_init+0x156>
     ddc:	7170      	strb	r0, [r6, #5]
     dde:	4643      	mov	r3, r8
     de0:	7a98      	ldrb	r0, [r3, #10]
     de2:	7adb      	ldrb	r3, [r3, #11]
     de4:	2b00      	cmp	r3, #0
     de6:	d001      	beq.n	dec <tc_init+0x16c>
     de8:	2310      	movs	r3, #16
     dea:	4318      	orrs	r0, r3
     dec:	4643      	mov	r3, r8
     dee:	7b1b      	ldrb	r3, [r3, #12]
     df0:	2b00      	cmp	r3, #0
     df2:	d001      	beq.n	df8 <tc_init+0x178>
     df4:	2320      	movs	r3, #32
     df6:	4318      	orrs	r0, r3
     df8:	6821      	ldr	r1, [r4, #0]
     dfa:	227f      	movs	r2, #127	; 0x7f
     dfc:	7bcb      	ldrb	r3, [r1, #15]
     dfe:	4393      	bics	r3, r2
     e00:	d1fc      	bne.n	dfc <tc_init+0x17c>
     e02:	71b0      	strb	r0, [r6, #6]
     e04:	6822      	ldr	r2, [r4, #0]
     e06:	217f      	movs	r1, #127	; 0x7f
     e08:	7bd3      	ldrb	r3, [r2, #15]
     e0a:	438b      	bics	r3, r1
     e0c:	d1fc      	bne.n	e08 <tc_init+0x188>
     e0e:	7923      	ldrb	r3, [r4, #4]
     e10:	2b04      	cmp	r3, #4
     e12:	d005      	beq.n	e20 <tc_init+0x1a0>
     e14:	2b08      	cmp	r3, #8
     e16:	d041      	beq.n	e9c <tc_init+0x21c>
     e18:	2017      	movs	r0, #23
     e1a:	2b00      	cmp	r3, #0
     e1c:	d157      	bne.n	ece <tc_init+0x24e>
     e1e:	e024      	b.n	e6a <tc_init+0x1ea>
     e20:	217f      	movs	r1, #127	; 0x7f
     e22:	7bd3      	ldrb	r3, [r2, #15]
     e24:	438b      	bics	r3, r1
     e26:	d1fc      	bne.n	e22 <tc_init+0x1a2>
     e28:	3328      	adds	r3, #40	; 0x28
     e2a:	4642      	mov	r2, r8
     e2c:	5cd3      	ldrb	r3, [r2, r3]
     e2e:	7433      	strb	r3, [r6, #16]
     e30:	6821      	ldr	r1, [r4, #0]
     e32:	227f      	movs	r2, #127	; 0x7f
     e34:	7bcb      	ldrb	r3, [r1, #15]
     e36:	4393      	bics	r3, r2
     e38:	d1fc      	bne.n	e34 <tc_init+0x1b4>
     e3a:	3329      	adds	r3, #41	; 0x29
     e3c:	4642      	mov	r2, r8
     e3e:	5cd3      	ldrb	r3, [r2, r3]
     e40:	7533      	strb	r3, [r6, #20]
     e42:	6821      	ldr	r1, [r4, #0]
     e44:	227f      	movs	r2, #127	; 0x7f
     e46:	7bcb      	ldrb	r3, [r1, #15]
     e48:	4393      	bics	r3, r2
     e4a:	d1fc      	bne.n	e46 <tc_init+0x1c6>
     e4c:	332a      	adds	r3, #42	; 0x2a
     e4e:	4642      	mov	r2, r8
     e50:	5cd3      	ldrb	r3, [r2, r3]
     e52:	7633      	strb	r3, [r6, #24]
     e54:	6821      	ldr	r1, [r4, #0]
     e56:	227f      	movs	r2, #127	; 0x7f
     e58:	7bcb      	ldrb	r3, [r1, #15]
     e5a:	4393      	bics	r3, r2
     e5c:	d1fc      	bne.n	e58 <tc_init+0x1d8>
     e5e:	332b      	adds	r3, #43	; 0x2b
     e60:	4642      	mov	r2, r8
     e62:	5cd3      	ldrb	r3, [r2, r3]
     e64:	7673      	strb	r3, [r6, #25]
     e66:	2000      	movs	r0, #0
     e68:	e031      	b.n	ece <tc_init+0x24e>
     e6a:	217f      	movs	r1, #127	; 0x7f
     e6c:	7bd3      	ldrb	r3, [r2, #15]
     e6e:	438b      	bics	r3, r1
     e70:	d1fc      	bne.n	e6c <tc_init+0x1ec>
     e72:	4643      	mov	r3, r8
     e74:	8d1b      	ldrh	r3, [r3, #40]	; 0x28
     e76:	8233      	strh	r3, [r6, #16]
     e78:	6821      	ldr	r1, [r4, #0]
     e7a:	227f      	movs	r2, #127	; 0x7f
     e7c:	7bcb      	ldrb	r3, [r1, #15]
     e7e:	4393      	bics	r3, r2
     e80:	d1fc      	bne.n	e7c <tc_init+0x1fc>
     e82:	4643      	mov	r3, r8
     e84:	8d5b      	ldrh	r3, [r3, #42]	; 0x2a
     e86:	8333      	strh	r3, [r6, #24]
     e88:	6821      	ldr	r1, [r4, #0]
     e8a:	227f      	movs	r2, #127	; 0x7f
     e8c:	7bcb      	ldrb	r3, [r1, #15]
     e8e:	4393      	bics	r3, r2
     e90:	d1fc      	bne.n	e8c <tc_init+0x20c>
     e92:	4643      	mov	r3, r8
     e94:	8d9b      	ldrh	r3, [r3, #44]	; 0x2c
     e96:	8373      	strh	r3, [r6, #26]
     e98:	2000      	movs	r0, #0
     e9a:	e018      	b.n	ece <tc_init+0x24e>
     e9c:	217f      	movs	r1, #127	; 0x7f
     e9e:	7bd3      	ldrb	r3, [r2, #15]
     ea0:	438b      	bics	r3, r1
     ea2:	d1fc      	bne.n	e9e <tc_init+0x21e>
     ea4:	4643      	mov	r3, r8
     ea6:	6a9b      	ldr	r3, [r3, #40]	; 0x28
     ea8:	6133      	str	r3, [r6, #16]
     eaa:	6821      	ldr	r1, [r4, #0]
     eac:	227f      	movs	r2, #127	; 0x7f
     eae:	7bcb      	ldrb	r3, [r1, #15]
     eb0:	4393      	bics	r3, r2
     eb2:	d1fc      	bne.n	eae <tc_init+0x22e>
     eb4:	4643      	mov	r3, r8
     eb6:	6adb      	ldr	r3, [r3, #44]	; 0x2c
     eb8:	61b3      	str	r3, [r6, #24]
     eba:	6821      	ldr	r1, [r4, #0]
     ebc:	227f      	movs	r2, #127	; 0x7f
     ebe:	7bcb      	ldrb	r3, [r1, #15]
     ec0:	4393      	bics	r3, r2
     ec2:	d1fc      	bne.n	ebe <tc_init+0x23e>
     ec4:	4643      	mov	r3, r8
     ec6:	6b1b      	ldr	r3, [r3, #48]	; 0x30
     ec8:	61f3      	str	r3, [r6, #28]
     eca:	2000      	movs	r0, #0
     ecc:	e7ff      	b.n	ece <tc_init+0x24e>
     ece:	b009      	add	sp, #36	; 0x24
     ed0:	bc0c      	pop	{r2, r3}
     ed2:	4690      	mov	r8, r2
     ed4:	4699      	mov	r9, r3
     ed6:	bdf0      	pop	{r4, r5, r6, r7, pc}
     ed8:	00000c45 	.word	0x00000c45
     edc:	00003dfc 	.word	0x00003dfc
     ee0:	00003cc1 	.word	0x00003cc1
     ee4:	200008f0 	.word	0x200008f0
     ee8:	00003359 	.word	0x00003359
     eec:	40000400 	.word	0x40000400
     ef0:	00003231 	.word	0x00003231
     ef4:	000031a5 	.word	0x000031a5

00000ef8 <tc_reset>:
     ef8:	6802      	ldr	r2, [r0, #0]
     efa:	7bd1      	ldrb	r1, [r2, #15]
     efc:	2315      	movs	r3, #21
     efe:	06c9      	lsls	r1, r1, #27
     f00:	d414      	bmi.n	f2c <tc_reset+0x34>
     f02:	8813      	ldrh	r3, [r2, #0]
     f04:	079b      	lsls	r3, r3, #30
     f06:	d50c      	bpl.n	f22 <tc_reset+0x2a>
     f08:	217f      	movs	r1, #127	; 0x7f
     f0a:	7bd3      	ldrb	r3, [r2, #15]
     f0c:	438b      	bics	r3, r1
     f0e:	d1fc      	bne.n	f0a <tc_reset+0x12>
     f10:	8813      	ldrh	r3, [r2, #0]
     f12:	2102      	movs	r1, #2
     f14:	438b      	bics	r3, r1
     f16:	8013      	strh	r3, [r2, #0]
     f18:	6800      	ldr	r0, [r0, #0]
     f1a:	317d      	adds	r1, #125	; 0x7d
     f1c:	7bc3      	ldrb	r3, [r0, #15]
     f1e:	438b      	bics	r3, r1
     f20:	d1fc      	bne.n	f1c <tc_reset+0x24>
     f22:	8811      	ldrh	r1, [r2, #0]
     f24:	2301      	movs	r3, #1
     f26:	430b      	orrs	r3, r1
     f28:	8013      	strh	r3, [r2, #0]
     f2a:	2300      	movs	r3, #0
     f2c:	1c18      	adds	r0, r3, #0
     f2e:	4770      	bx	lr

00000f30 <wdt_set_config>:
     f30:	b510      	push	{r4, lr}
     f32:	b082      	sub	sp, #8
     f34:	4a38      	ldr	r2, [pc, #224]	; (1018 <STACK_SIZE+0x18>)
     f36:	6991      	ldr	r1, [r2, #24]
     f38:	2310      	movs	r3, #16
     f3a:	430b      	orrs	r3, r1
     f3c:	6193      	str	r3, [r2, #24]
     f3e:	4b37      	ldr	r3, [pc, #220]	; (101c <STACK_SIZE+0x1c>)
     f40:	781b      	ldrb	r3, [r3, #0]
     f42:	09db      	lsrs	r3, r3, #7
     f44:	2210      	movs	r2, #16
     f46:	2b00      	cmp	r3, #0
     f48:	d162      	bne.n	1010 <STACK_SIZE+0x10>
     f4a:	78c3      	ldrb	r3, [r0, #3]
     f4c:	3207      	adds	r2, #7
     f4e:	2b00      	cmp	r3, #0
     f50:	d05e      	beq.n	1010 <STACK_SIZE+0x10>
     f52:	7901      	ldrb	r1, [r0, #4]
     f54:	4299      	cmp	r1, r3
     f56:	d85b      	bhi.n	1010 <STACK_SIZE+0x10>
     f58:	7941      	ldrb	r1, [r0, #5]
     f5a:	4299      	cmp	r1, r3
     f5c:	d858      	bhi.n	1010 <STACK_SIZE+0x10>
     f5e:	4a2f      	ldr	r2, [pc, #188]	; (101c <STACK_SIZE+0x1c>)
     f60:	7813      	ldrb	r3, [r2, #0]
     f62:	2102      	movs	r1, #2
     f64:	438b      	bics	r3, r1
     f66:	7013      	strb	r3, [r2, #0]
     f68:	79d3      	ldrb	r3, [r2, #7]
     f6a:	b25b      	sxtb	r3, r3
     f6c:	2b00      	cmp	r3, #0
     f6e:	dbfb      	blt.n	f68 <wdt_set_config+0x38>
     f70:	7843      	ldrb	r3, [r0, #1]
     f72:	2200      	movs	r2, #0
     f74:	2b00      	cmp	r3, #0
     f76:	d04b      	beq.n	1010 <STACK_SIZE+0x10>
     f78:	1c04      	adds	r4, r0, #0
     f7a:	a901      	add	r1, sp, #4
     f7c:	7883      	ldrb	r3, [r0, #2]
     f7e:	700b      	strb	r3, [r1, #0]
     f80:	2001      	movs	r0, #1
     f82:	4b27      	ldr	r3, [pc, #156]	; (1020 <STACK_SIZE+0x20>)
     f84:	4798      	blx	r3
     f86:	2001      	movs	r0, #1
     f88:	4b26      	ldr	r3, [pc, #152]	; (1024 <STACK_SIZE+0x24>)
     f8a:	4798      	blx	r3
     f8c:	7823      	ldrb	r3, [r4, #0]
     f8e:	2b00      	cmp	r3, #0
     f90:	d002      	beq.n	f98 <wdt_set_config+0x68>
     f92:	2001      	movs	r0, #1
     f94:	4b24      	ldr	r3, [pc, #144]	; (1028 <STACK_SIZE+0x28>)
     f96:	4798      	blx	r3
     f98:	78e3      	ldrb	r3, [r4, #3]
     f9a:	3b01      	subs	r3, #1
     f9c:	7922      	ldrb	r2, [r4, #4]
     f9e:	2a00      	cmp	r2, #0
     fa0:	d009      	beq.n	fb6 <wdt_set_config+0x86>
     fa2:	491e      	ldr	r1, [pc, #120]	; (101c <STACK_SIZE+0x1c>)
     fa4:	7808      	ldrb	r0, [r1, #0]
     fa6:	2204      	movs	r2, #4
     fa8:	4302      	orrs	r2, r0
     faa:	700a      	strb	r2, [r1, #0]
     fac:	7922      	ldrb	r2, [r4, #4]
     fae:	3a01      	subs	r2, #1
     fb0:	0112      	lsls	r2, r2, #4
     fb2:	4313      	orrs	r3, r2
     fb4:	e004      	b.n	fc0 <wdt_set_config+0x90>
     fb6:	4919      	ldr	r1, [pc, #100]	; (101c <STACK_SIZE+0x1c>)
     fb8:	780a      	ldrb	r2, [r1, #0]
     fba:	2004      	movs	r0, #4
     fbc:	4382      	bics	r2, r0
     fbe:	700a      	strb	r2, [r1, #0]
     fc0:	4916      	ldr	r1, [pc, #88]	; (101c <STACK_SIZE+0x1c>)
     fc2:	79ca      	ldrb	r2, [r1, #7]
     fc4:	b252      	sxtb	r2, r2
     fc6:	2a00      	cmp	r2, #0
     fc8:	dbfb      	blt.n	fc2 <wdt_set_config+0x92>
     fca:	b2db      	uxtb	r3, r3
     fcc:	4a13      	ldr	r2, [pc, #76]	; (101c <STACK_SIZE+0x1c>)
     fce:	7053      	strb	r3, [r2, #1]
     fd0:	7963      	ldrb	r3, [r4, #5]
     fd2:	2b00      	cmp	r3, #0
     fd4:	d008      	beq.n	fe8 <wdt_set_config+0xb8>
     fd6:	1c11      	adds	r1, r2, #0
     fd8:	79ca      	ldrb	r2, [r1, #7]
     fda:	b252      	sxtb	r2, r2
     fdc:	2a00      	cmp	r2, #0
     fde:	dbfb      	blt.n	fd8 <wdt_set_config+0xa8>
     fe0:	3b01      	subs	r3, #1
     fe2:	b2db      	uxtb	r3, r3
     fe4:	4a0d      	ldr	r2, [pc, #52]	; (101c <STACK_SIZE+0x1c>)
     fe6:	7093      	strb	r3, [r2, #2]
     fe8:	7823      	ldrb	r3, [r4, #0]
     fea:	2b00      	cmp	r3, #0
     fec:	d005      	beq.n	ffa <wdt_set_config+0xca>
     fee:	4a0b      	ldr	r2, [pc, #44]	; (101c <STACK_SIZE+0x1c>)
     ff0:	7811      	ldrb	r1, [r2, #0]
     ff2:	2380      	movs	r3, #128	; 0x80
     ff4:	430b      	orrs	r3, r1
     ff6:	7013      	strb	r3, [r2, #0]
     ff8:	e004      	b.n	1004 <STACK_SIZE+0x4>
     ffa:	4a08      	ldr	r2, [pc, #32]	; (101c <STACK_SIZE+0x1c>)
     ffc:	7811      	ldrb	r1, [r2, #0]
     ffe:	2302      	movs	r3, #2
    1000:	430b      	orrs	r3, r1
    1002:	7013      	strb	r3, [r2, #0]
    1004:	4a05      	ldr	r2, [pc, #20]	; (101c <STACK_SIZE+0x1c>)
    1006:	79d3      	ldrb	r3, [r2, #7]
    1008:	b25b      	sxtb	r3, r3
    100a:	2b00      	cmp	r3, #0
    100c:	dbfb      	blt.n	1006 <STACK_SIZE+0x6>
    100e:	2200      	movs	r2, #0
    1010:	1c10      	adds	r0, r2, #0
    1012:	b002      	add	sp, #8
    1014:	bd10      	pop	{r4, pc}
    1016:	46c0      	nop			; (mov r8, r8)
    1018:	40000400 	.word	0x40000400
    101c:	40001000 	.word	0x40001000
    1020:	00003231 	.word	0x00003231
    1024:	000031a5 	.word	0x000031a5
    1028:	0000324d 	.word	0x0000324d

0000102c <wdt_reset_count>:
    102c:	22a5      	movs	r2, #165	; 0xa5
    102e:	4b04      	ldr	r3, [pc, #16]	; (1040 <wdt_reset_count+0x14>)
    1030:	721a      	strb	r2, [r3, #8]
    1032:	1c1a      	adds	r2, r3, #0
    1034:	79d3      	ldrb	r3, [r2, #7]
    1036:	b25b      	sxtb	r3, r3
    1038:	2b00      	cmp	r3, #0
    103a:	dbfb      	blt.n	1034 <wdt_reset_count+0x8>
    103c:	4770      	bx	lr
    103e:	46c0      	nop			; (mov r8, r8)
    1040:	40001000 	.word	0x40001000

00001044 <Init125khz>:
    1044:	b510      	push	{r4, lr}
    1046:	4c18      	ldr	r4, [pc, #96]	; (10a8 <Init125khz+0x64>)
    1048:	b08e      	sub	sp, #56	; 0x38
    104a:	4b18      	ldr	r3, [pc, #96]	; (10ac <Init125khz+0x68>)
    104c:	1c20      	adds	r0, r4, #0
    104e:	4798      	blx	r3
    1050:	2300      	movs	r3, #0
    1052:	2100      	movs	r1, #0
    1054:	aa01      	add	r2, sp, #4
    1056:	7013      	strb	r3, [r2, #0]
    1058:	7093      	strb	r3, [r2, #2]
    105a:	8093      	strh	r3, [r2, #4]
    105c:	8113      	strh	r3, [r2, #8]
    105e:	6213      	str	r3, [r2, #32]
    1060:	6253      	str	r3, [r2, #36]	; 0x24
    1062:	8513      	strh	r3, [r2, #40]	; 0x28
    1064:	8593      	strh	r3, [r2, #44]	; 0x2c
    1066:	3320      	adds	r3, #32
    1068:	7193      	strb	r3, [r2, #6]
    106a:	339f      	adds	r3, #159	; 0x9f
    106c:	8553      	strh	r3, [r2, #42]	; 0x2a
    106e:	3bbe      	subs	r3, #190	; 0xbe
    1070:	7413      	strb	r3, [r2, #16]
    1072:	3306      	adds	r3, #6
    1074:	6153      	str	r3, [r2, #20]
    1076:	3b02      	subs	r3, #2
    1078:	7051      	strb	r1, [r2, #1]
    107a:	7291      	strb	r1, [r2, #10]
    107c:	72d1      	strb	r1, [r2, #11]
    107e:	7311      	strb	r1, [r2, #12]
    1080:	7391      	strb	r1, [r2, #14]
    1082:	7351      	strb	r1, [r2, #13]
    1084:	7711      	strb	r1, [r2, #28]
    1086:	6193      	str	r3, [r2, #24]
    1088:	4909      	ldr	r1, [pc, #36]	; (10b0 <Init125khz+0x6c>)
    108a:	1c20      	adds	r0, r4, #0
    108c:	4b09      	ldr	r3, [pc, #36]	; (10b4 <Init125khz+0x70>)
    108e:	4798      	blx	r3
    1090:	217f      	movs	r1, #127	; 0x7f
    1092:	6822      	ldr	r2, [r4, #0]
    1094:	7bd3      	ldrb	r3, [r2, #15]
    1096:	438b      	bics	r3, r1
    1098:	d1fc      	bne.n	1094 <Init125khz+0x50>
    109a:	8811      	ldrh	r1, [r2, #0]
    109c:	3302      	adds	r3, #2
    109e:	430b      	orrs	r3, r1
    10a0:	8013      	strh	r3, [r2, #0]
    10a2:	b00e      	add	sp, #56	; 0x38
    10a4:	bd10      	pop	{r4, pc}
    10a6:	46c0      	nop			; (mov r8, r8)
    10a8:	2000090c 	.word	0x2000090c
    10ac:	00000ef9 	.word	0x00000ef9
    10b0:	42002400 	.word	0x42002400
    10b4:	00000c81 	.word	0x00000c81

000010b8 <buzz>:
    10b8:	217f      	movs	r1, #127	; 0x7f
    10ba:	b510      	push	{r4, lr}
    10bc:	4c0a      	ldr	r4, [pc, #40]	; (10e8 <buzz+0x30>)
    10be:	6822      	ldr	r2, [r4, #0]
    10c0:	7bd3      	ldrb	r3, [r2, #15]
    10c2:	438b      	bics	r3, r1
    10c4:	d1fc      	bne.n	10c0 <buzz+0x8>
    10c6:	8811      	ldrh	r1, [r2, #0]
    10c8:	3302      	adds	r3, #2
    10ca:	430b      	orrs	r3, r1
    10cc:	8013      	strh	r3, [r2, #0]
    10ce:	4b07      	ldr	r3, [pc, #28]	; (10ec <buzz+0x34>)
    10d0:	4798      	blx	r3
    10d2:	217f      	movs	r1, #127	; 0x7f
    10d4:	6822      	ldr	r2, [r4, #0]
    10d6:	7bd3      	ldrb	r3, [r2, #15]
    10d8:	438b      	bics	r3, r1
    10da:	d1fc      	bne.n	10d6 <buzz+0x1e>
    10dc:	2102      	movs	r1, #2
    10de:	8813      	ldrh	r3, [r2, #0]
    10e0:	438b      	bics	r3, r1
    10e2:	8013      	strh	r3, [r2, #0]
    10e4:	bd10      	pop	{r4, pc}
    10e6:	46c0      	nop			; (mov r8, r8)
    10e8:	20000928 	.word	0x20000928
    10ec:	00000369 	.word	0x00000369

000010f0 <led_idle>:
    10f0:	2208      	movs	r2, #8
    10f2:	4b02      	ldr	r3, [pc, #8]	; (10fc <led_idle+0xc>)
    10f4:	619a      	str	r2, [r3, #24]
    10f6:	3a04      	subs	r2, #4
    10f8:	615a      	str	r2, [r3, #20]
    10fa:	4770      	bx	lr
    10fc:	41004400 	.word	0x41004400

00001100 <led_green>:
    1100:	2208      	movs	r2, #8
    1102:	4b02      	ldr	r3, [pc, #8]	; (110c <led_green+0xc>)
    1104:	615a      	str	r2, [r3, #20]
    1106:	3a04      	subs	r2, #4
    1108:	619a      	str	r2, [r3, #24]
    110a:	4770      	bx	lr
    110c:	41004400 	.word	0x41004400

00001110 <user_init>:
    1110:	b5f0      	push	{r4, r5, r6, r7, lr}
    1112:	4657      	mov	r7, sl
    1114:	464e      	mov	r6, r9
    1116:	4645      	mov	r5, r8
    1118:	b4e0      	push	{r5, r6, r7}
    111a:	4b9b      	ldr	r3, [pc, #620]	; (1388 <user_init+0x278>)
    111c:	b08e      	sub	sp, #56	; 0x38
    111e:	4798      	blx	r3
    1120:	4d9a      	ldr	r5, [pc, #616]	; (138c <user_init+0x27c>)
    1122:	47a8      	blx	r5
    1124:	2301      	movs	r3, #1
    1126:	ac01      	add	r4, sp, #4
    1128:	4698      	mov	r8, r3
    112a:	7063      	strb	r3, [r4, #1]
    112c:	2302      	movs	r3, #2
    112e:	4699      	mov	r9, r3
    1130:	70a3      	strb	r3, [r4, #2]
    1132:	230b      	movs	r3, #11
    1134:	2700      	movs	r7, #0
    1136:	70e3      	strb	r3, [r4, #3]
    1138:	1c20      	adds	r0, r4, #0
    113a:	4b95      	ldr	r3, [pc, #596]	; (1390 <user_init+0x280>)
    113c:	7027      	strb	r7, [r4, #0]
    113e:	7127      	strb	r7, [r4, #4]
    1140:	7167      	strb	r7, [r4, #5]
    1142:	4798      	blx	r3
    1144:	47a8      	blx	r5
    1146:	4642      	mov	r2, r8
    1148:	2602      	movs	r6, #2
    114a:	4648      	mov	r0, r9
    114c:	4b91      	ldr	r3, [pc, #580]	; (1394 <user_init+0x284>)
    114e:	605a      	str	r2, [r3, #4]
    1150:	323f      	adds	r2, #63	; 0x3f
    1152:	5c99      	ldrb	r1, [r3, r2]
    1154:	4331      	orrs	r1, r6
    1156:	b2c9      	uxtb	r1, r1
    1158:	5499      	strb	r1, [r3, r2]
    115a:	498f      	ldr	r1, [pc, #572]	; (1398 <user_init+0x288>)
    115c:	6299      	str	r1, [r3, #40]	; 0x28
    115e:	498f      	ldr	r1, [pc, #572]	; (139c <user_init+0x28c>)
    1160:	6299      	str	r1, [r3, #40]	; 0x28
    1162:	6058      	str	r0, [r3, #4]
    1164:	5c98      	ldrb	r0, [r3, r2]
    1166:	4330      	orrs	r0, r6
    1168:	b2c0      	uxtb	r0, r0
    116a:	5498      	strb	r0, [r3, r2]
    116c:	488c      	ldr	r0, [pc, #560]	; (13a0 <user_init+0x290>)
    116e:	6298      	str	r0, [r3, #40]	; 0x28
    1170:	2004      	movs	r0, #4
    1172:	6299      	str	r1, [r3, #40]	; 0x28
    1174:	6098      	str	r0, [r3, #8]
    1176:	5c98      	ldrb	r0, [r3, r2]
    1178:	4330      	orrs	r0, r6
    117a:	b2c0      	uxtb	r0, r0
    117c:	5498      	strb	r0, [r3, r2]
    117e:	2008      	movs	r0, #8
    1180:	6098      	str	r0, [r3, #8]
    1182:	5c98      	ldrb	r0, [r3, r2]
    1184:	4330      	orrs	r0, r6
    1186:	b2c0      	uxtb	r0, r0
    1188:	5498      	strb	r0, [r3, r2]
    118a:	2010      	movs	r0, #16
    118c:	6058      	str	r0, [r3, #4]
    118e:	5c98      	ldrb	r0, [r3, r2]
    1190:	4330      	orrs	r0, r6
    1192:	b2c0      	uxtb	r0, r0
    1194:	5498      	strb	r0, [r3, r2]
    1196:	4883      	ldr	r0, [pc, #524]	; (13a4 <user_init+0x294>)
    1198:	6298      	str	r0, [r3, #40]	; 0x28
    119a:	2020      	movs	r0, #32
    119c:	6299      	str	r1, [r3, #40]	; 0x28
    119e:	6058      	str	r0, [r3, #4]
    11a0:	4681      	mov	r9, r0
    11a2:	5c98      	ldrb	r0, [r3, r2]
    11a4:	4330      	orrs	r0, r6
    11a6:	b2c0      	uxtb	r0, r0
    11a8:	5498      	strb	r0, [r3, r2]
    11aa:	487f      	ldr	r0, [pc, #508]	; (13a8 <user_init+0x298>)
    11ac:	6298      	str	r0, [r3, #40]	; 0x28
    11ae:	2080      	movs	r0, #128	; 0x80
    11b0:	6299      	str	r1, [r3, #40]	; 0x28
    11b2:	6098      	str	r0, [r3, #8]
    11b4:	5c98      	ldrb	r0, [r3, r2]
    11b6:	4330      	orrs	r0, r6
    11b8:	b2c0      	uxtb	r0, r0
    11ba:	5498      	strb	r0, [r3, r2]
    11bc:	2080      	movs	r0, #128	; 0x80
    11be:	0040      	lsls	r0, r0, #1
    11c0:	6098      	str	r0, [r3, #8]
    11c2:	5c98      	ldrb	r0, [r3, r2]
    11c4:	4330      	orrs	r0, r6
    11c6:	b2c0      	uxtb	r0, r0
    11c8:	5498      	strb	r0, [r3, r2]
    11ca:	2080      	movs	r0, #128	; 0x80
    11cc:	0080      	lsls	r0, r0, #2
    11ce:	6098      	str	r0, [r3, #8]
    11d0:	5c98      	ldrb	r0, [r3, r2]
    11d2:	4330      	orrs	r0, r6
    11d4:	b2c0      	uxtb	r0, r0
    11d6:	5498      	strb	r0, [r3, r2]
    11d8:	2080      	movs	r0, #128	; 0x80
    11da:	00c0      	lsls	r0, r0, #3
    11dc:	6098      	str	r0, [r3, #8]
    11de:	5c98      	ldrb	r0, [r3, r2]
    11e0:	4330      	orrs	r0, r6
    11e2:	b2c0      	uxtb	r0, r0
    11e4:	5498      	strb	r0, [r3, r2]
    11e6:	2080      	movs	r0, #128	; 0x80
    11e8:	0100      	lsls	r0, r0, #4
    11ea:	6058      	str	r0, [r3, #4]
    11ec:	5c98      	ldrb	r0, [r3, r2]
    11ee:	4330      	orrs	r0, r6
    11f0:	b2c0      	uxtb	r0, r0
    11f2:	5498      	strb	r0, [r3, r2]
    11f4:	486d      	ldr	r0, [pc, #436]	; (13ac <user_init+0x29c>)
    11f6:	6298      	str	r0, [r3, #40]	; 0x28
    11f8:	6299      	str	r1, [r3, #40]	; 0x28
    11fa:	2180      	movs	r1, #128	; 0x80
    11fc:	0289      	lsls	r1, r1, #10
    11fe:	6059      	str	r1, [r3, #4]
    1200:	5c99      	ldrb	r1, [r3, r2]
    1202:	486b      	ldr	r0, [pc, #428]	; (13b0 <user_init+0x2a0>)
    1204:	4331      	orrs	r1, r6
    1206:	b2c9      	uxtb	r1, r1
    1208:	5499      	strb	r1, [r3, r2]
    120a:	496a      	ldr	r1, [pc, #424]	; (13b4 <user_init+0x2a4>)
    120c:	6298      	str	r0, [r3, #40]	; 0x28
    120e:	6299      	str	r1, [r3, #40]	; 0x28
    1210:	2180      	movs	r1, #128	; 0x80
    1212:	0249      	lsls	r1, r1, #9
    1214:	6099      	str	r1, [r3, #8]
    1216:	5c99      	ldrb	r1, [r3, r2]
    1218:	4331      	orrs	r1, r6
    121a:	b2c9      	uxtb	r1, r1
    121c:	5499      	strb	r1, [r3, r2]
    121e:	2180      	movs	r1, #128	; 0x80
    1220:	0409      	lsls	r1, r1, #16
    1222:	6099      	str	r1, [r3, #8]
    1224:	5c99      	ldrb	r1, [r3, r2]
    1226:	4331      	orrs	r1, r6
    1228:	b2c9      	uxtb	r1, r1
    122a:	5499      	strb	r1, [r3, r2]
    122c:	2180      	movs	r1, #128	; 0x80
    122e:	03c9      	lsls	r1, r1, #15
    1230:	6059      	str	r1, [r3, #4]
    1232:	5c99      	ldrb	r1, [r3, r2]
    1234:	4331      	orrs	r1, r6
    1236:	b2c9      	uxtb	r1, r1
    1238:	5499      	strb	r1, [r3, r2]
    123a:	495f      	ldr	r1, [pc, #380]	; (13b8 <user_init+0x2a8>)
    123c:	6298      	str	r0, [r3, #40]	; 0x28
    123e:	6299      	str	r1, [r3, #40]	; 0x28
    1240:	2180      	movs	r1, #128	; 0x80
    1242:	0489      	lsls	r1, r1, #18
    1244:	6059      	str	r1, [r3, #4]
    1246:	5c99      	ldrb	r1, [r3, r2]
    1248:	430e      	orrs	r6, r1
    124a:	b2f6      	uxtb	r6, r6
    124c:	549e      	strb	r6, [r3, r2]
    124e:	4a5b      	ldr	r2, [pc, #364]	; (13bc <user_init+0x2ac>)
    1250:	6298      	str	r0, [r3, #40]	; 0x28
    1252:	629a      	str	r2, [r3, #40]	; 0x28
    1254:	47a8      	blx	r5
    1256:	4b5a      	ldr	r3, [pc, #360]	; (13c0 <user_init+0x2b0>)
    1258:	2600      	movs	r6, #0
    125a:	469a      	mov	sl, r3
    125c:	1c18      	adds	r0, r3, #0
    125e:	4b59      	ldr	r3, [pc, #356]	; (13c4 <user_init+0x2b4>)
    1260:	4798      	blx	r3
    1262:	464b      	mov	r3, r9
    1264:	71a3      	strb	r3, [r4, #6]
    1266:	4b58      	ldr	r3, [pc, #352]	; (13c8 <user_init+0x2b8>)
    1268:	1c22      	adds	r2, r4, #0
    126a:	8563      	strh	r3, [r4, #42]	; 0x2a
    126c:	4643      	mov	r3, r8
    126e:	7723      	strb	r3, [r4, #28]
    1270:	2319      	movs	r3, #25
    1272:	6223      	str	r3, [r4, #32]
    1274:	3b14      	subs	r3, #20
    1276:	7426      	strb	r6, [r4, #16]
    1278:	6263      	str	r3, [r4, #36]	; 0x24
    127a:	4954      	ldr	r1, [pc, #336]	; (13cc <user_init+0x2bc>)
    127c:	4b54      	ldr	r3, [pc, #336]	; (13d0 <user_init+0x2c0>)
    127e:	6167      	str	r7, [r4, #20]
    1280:	61a7      	str	r7, [r4, #24]
    1282:	4650      	mov	r0, sl
    1284:	7066      	strb	r6, [r4, #1]
    1286:	72a6      	strb	r6, [r4, #10]
    1288:	72e6      	strb	r6, [r4, #11]
    128a:	7326      	strb	r6, [r4, #12]
    128c:	73a6      	strb	r6, [r4, #14]
    128e:	7366      	strb	r6, [r4, #13]
    1290:	7027      	strb	r7, [r4, #0]
    1292:	70a7      	strb	r7, [r4, #2]
    1294:	80a7      	strh	r7, [r4, #4]
    1296:	8127      	strh	r7, [r4, #8]
    1298:	8527      	strh	r7, [r4, #40]	; 0x28
    129a:	85a7      	strh	r7, [r4, #44]	; 0x2c
    129c:	4798      	blx	r3
    129e:	47a8      	blx	r5
    12a0:	4b4c      	ldr	r3, [pc, #304]	; (13d4 <user_init+0x2c4>)
    12a2:	7026      	strb	r6, [r4, #0]
    12a4:	685b      	ldr	r3, [r3, #4]
    12a6:	1c20      	adds	r0, r4, #0
    12a8:	06db      	lsls	r3, r3, #27
    12aa:	0f1b      	lsrs	r3, r3, #28
    12ac:	70a3      	strb	r3, [r4, #2]
    12ae:	4b4a      	ldr	r3, [pc, #296]	; (13d8 <user_init+0x2c8>)
    12b0:	70e6      	strb	r6, [r4, #3]
    12b2:	7126      	strb	r6, [r4, #4]
    12b4:	7066      	strb	r6, [r4, #1]
    12b6:	4798      	blx	r3
    12b8:	4c48      	ldr	r4, [pc, #288]	; (13dc <user_init+0x2cc>)
    12ba:	4e49      	ldr	r6, [pc, #292]	; (13e0 <user_init+0x2d0>)
    12bc:	20fc      	movs	r0, #252	; 0xfc
    12be:	1c21      	adds	r1, r4, #0
    12c0:	0180      	lsls	r0, r0, #6
    12c2:	2240      	movs	r2, #64	; 0x40
    12c4:	47b0      	blx	r6
    12c6:	2805      	cmp	r0, #5
    12c8:	d0f8      	beq.n	12bc <user_init+0x1ac>
    12ca:	47a8      	blx	r5
    12cc:	1c21      	adds	r1, r4, #0
    12ce:	1c23      	adds	r3, r4, #0
    12d0:	3140      	adds	r1, #64	; 0x40
    12d2:	e002      	b.n	12da <user_init+0x1ca>
    12d4:	3301      	adds	r3, #1
    12d6:	428b      	cmp	r3, r1
    12d8:	d009      	beq.n	12ee <user_init+0x1de>
    12da:	781a      	ldrb	r2, [r3, #0]
    12dc:	2aff      	cmp	r2, #255	; 0xff
    12de:	d0f9      	beq.n	12d4 <user_init+0x1c4>
    12e0:	47a8      	blx	r5
    12e2:	b00e      	add	sp, #56	; 0x38
    12e4:	bc1c      	pop	{r2, r3, r4}
    12e6:	4690      	mov	r8, r2
    12e8:	4699      	mov	r9, r3
    12ea:	46a2      	mov	sl, r4
    12ec:	bdf0      	pop	{r4, r5, r6, r7, pc}
    12ee:	20fc      	movs	r0, #252	; 0xfc
    12f0:	1c21      	adds	r1, r4, #0
    12f2:	0180      	lsls	r0, r0, #6
    12f4:	2240      	movs	r2, #64	; 0x40
    12f6:	47b0      	blx	r6
    12f8:	2805      	cmp	r0, #5
    12fa:	d0f8      	beq.n	12ee <user_init+0x1de>
    12fc:	47a8      	blx	r5
    12fe:	2357      	movs	r3, #87	; 0x57
    1300:	7063      	strb	r3, [r4, #1]
    1302:	4b38      	ldr	r3, [pc, #224]	; (13e4 <user_init+0x2d4>)
    1304:	4698      	mov	r8, r3
    1306:	20fc      	movs	r0, #252	; 0xfc
    1308:	0180      	lsls	r0, r0, #6
    130a:	47c0      	blx	r8
    130c:	2805      	cmp	r0, #5
    130e:	d0fa      	beq.n	1306 <user_init+0x1f6>
    1310:	47a8      	blx	r5
    1312:	4f35      	ldr	r7, [pc, #212]	; (13e8 <user_init+0x2d8>)
    1314:	20fc      	movs	r0, #252	; 0xfc
    1316:	1c21      	adds	r1, r4, #0
    1318:	0180      	lsls	r0, r0, #6
    131a:	2240      	movs	r2, #64	; 0x40
    131c:	47b8      	blx	r7
    131e:	2805      	cmp	r0, #5
    1320:	d0f8      	beq.n	1314 <user_init+0x204>
    1322:	47a8      	blx	r5
    1324:	20fc      	movs	r0, #252	; 0xfc
    1326:	1c21      	adds	r1, r4, #0
    1328:	0180      	lsls	r0, r0, #6
    132a:	2240      	movs	r2, #64	; 0x40
    132c:	47b0      	blx	r6
    132e:	2805      	cmp	r0, #5
    1330:	d0f8      	beq.n	1324 <user_init+0x214>
    1332:	47a8      	blx	r5
    1334:	2341      	movs	r3, #65	; 0x41
    1336:	7023      	strb	r3, [r4, #0]
    1338:	20fc      	movs	r0, #252	; 0xfc
    133a:	0180      	lsls	r0, r0, #6
    133c:	47c0      	blx	r8
    133e:	2805      	cmp	r0, #5
    1340:	d0fa      	beq.n	1338 <user_init+0x228>
    1342:	47a8      	blx	r5
    1344:	20fc      	movs	r0, #252	; 0xfc
    1346:	1c21      	adds	r1, r4, #0
    1348:	0180      	lsls	r0, r0, #6
    134a:	2240      	movs	r2, #64	; 0x40
    134c:	47b8      	blx	r7
    134e:	2805      	cmp	r0, #5
    1350:	d0f8      	beq.n	1344 <user_init+0x234>
    1352:	47a8      	blx	r5
    1354:	20fc      	movs	r0, #252	; 0xfc
    1356:	1c21      	adds	r1, r4, #0
    1358:	0180      	lsls	r0, r0, #6
    135a:	2240      	movs	r2, #64	; 0x40
    135c:	47b0      	blx	r6
    135e:	2805      	cmp	r0, #5
    1360:	d0f8      	beq.n	1354 <user_init+0x244>
    1362:	47a8      	blx	r5
    1364:	231a      	movs	r3, #26
    1366:	70a3      	strb	r3, [r4, #2]
    1368:	20fc      	movs	r0, #252	; 0xfc
    136a:	0180      	lsls	r0, r0, #6
    136c:	47c0      	blx	r8
    136e:	2805      	cmp	r0, #5
    1370:	d0fa      	beq.n	1368 <user_init+0x258>
    1372:	47a8      	blx	r5
    1374:	20fc      	movs	r0, #252	; 0xfc
    1376:	1c21      	adds	r1, r4, #0
    1378:	0180      	lsls	r0, r0, #6
    137a:	2240      	movs	r2, #64	; 0x40
    137c:	47b8      	blx	r7
    137e:	2805      	cmp	r0, #5
    1380:	d0f8      	beq.n	1374 <user_init+0x264>
    1382:	47a8      	blx	r5
    1384:	e7ac      	b.n	12e0 <user_init+0x1d0>
    1386:	46c0      	nop			; (mov r8, r8)
    1388:	00000301 	.word	0x00000301
    138c:	0000102d 	.word	0x0000102d
    1390:	00000f31 	.word	0x00000f31
    1394:	41004400 	.word	0x41004400
    1398:	50020001 	.word	0x50020001
    139c:	d0020000 	.word	0xd0020000
    13a0:	50020002 	.word	0x50020002
    13a4:	50020010 	.word	0x50020010
    13a8:	50020020 	.word	0x50020020
    13ac:	50020800 	.word	0x50020800
    13b0:	50020000 	.word	0x50020000
    13b4:	d0020002 	.word	0xd0020002
    13b8:	d0020040 	.word	0xd0020040
    13bc:	d0020200 	.word	0xd0020200
    13c0:	20000928 	.word	0x20000928
    13c4:	00000ef9 	.word	0x00000ef9
    13c8:	0000176f 	.word	0x0000176f
    13cc:	42003400 	.word	0x42003400
    13d0:	00000c81 	.word	0x00000c81
    13d4:	41004000 	.word	0x41004000
    13d8:	000008cd 	.word	0x000008cd
    13dc:	20000048 	.word	0x20000048
    13e0:	00000a99 	.word	0x00000a99
    13e4:	00000b05 	.word	0x00000b05
    13e8:	000009f5 	.word	0x000009f5

000013ec <avaliar_modo_leitor>:
    13ec:	b5f8      	push	{r3, r4, r5, r6, r7, lr}
    13ee:	2301      	movs	r3, #1
    13f0:	464f      	mov	r7, r9
    13f2:	4646      	mov	r6, r8
    13f4:	4698      	mov	r8, r3
    13f6:	33ff      	adds	r3, #255	; 0xff
    13f8:	b4c0      	push	{r6, r7}
    13fa:	2400      	movs	r4, #0
    13fc:	4e35      	ldr	r6, [pc, #212]	; (14d4 <avaliar_modo_leitor+0xe8>)
    13fe:	4f36      	ldr	r7, [pc, #216]	; (14d8 <avaliar_modo_leitor+0xec>)
    1400:	4699      	mov	r9, r3
    1402:	e00b      	b.n	141c <avaliar_modo_leitor+0x30>
    1404:	617b      	str	r3, [r7, #20]
    1406:	200a      	movs	r0, #10
    1408:	47b0      	blx	r6
    140a:	4642      	mov	r2, r8
    140c:	6a3b      	ldr	r3, [r7, #32]
    140e:	0c5b      	lsrs	r3, r3, #17
    1410:	4013      	ands	r3, r2
    1412:	42ab      	cmp	r3, r5
    1414:	d00f      	beq.n	1436 <avaliar_modo_leitor+0x4a>
    1416:	3401      	adds	r4, #1
    1418:	2c10      	cmp	r4, #16
    141a:	d051      	beq.n	14c0 <avaliar_modo_leitor+0xd4>
    141c:	4645      	mov	r5, r8
    141e:	464b      	mov	r3, r9
    1420:	4025      	ands	r5, r4
    1422:	d0ef      	beq.n	1404 <avaliar_modo_leitor+0x18>
    1424:	61bb      	str	r3, [r7, #24]
    1426:	200a      	movs	r0, #10
    1428:	47b0      	blx	r6
    142a:	4642      	mov	r2, r8
    142c:	6a3b      	ldr	r3, [r7, #32]
    142e:	0c5b      	lsrs	r3, r3, #17
    1430:	4013      	ands	r3, r2
    1432:	42ab      	cmp	r3, r5
    1434:	d1ef      	bne.n	1416 <avaliar_modo_leitor+0x2a>
    1436:	2301      	movs	r3, #1
    1438:	4698      	mov	r8, r3
    143a:	2380      	movs	r3, #128	; 0x80
    143c:	009b      	lsls	r3, r3, #2
    143e:	2400      	movs	r4, #0
    1440:	4f25      	ldr	r7, [pc, #148]	; (14d8 <avaliar_modo_leitor+0xec>)
    1442:	4699      	mov	r9, r3
    1444:	e00b      	b.n	145e <avaliar_modo_leitor+0x72>
    1446:	617b      	str	r3, [r7, #20]
    1448:	200a      	movs	r0, #10
    144a:	47b0      	blx	r6
    144c:	4642      	mov	r2, r8
    144e:	6a3b      	ldr	r3, [r7, #32]
    1450:	0c5b      	lsrs	r3, r3, #17
    1452:	4013      	ands	r3, r2
    1454:	42ab      	cmp	r3, r5
    1456:	d00f      	beq.n	1478 <avaliar_modo_leitor+0x8c>
    1458:	3401      	adds	r4, #1
    145a:	2c10      	cmp	r4, #16
    145c:	d035      	beq.n	14ca <avaliar_modo_leitor+0xde>
    145e:	4645      	mov	r5, r8
    1460:	464b      	mov	r3, r9
    1462:	4025      	ands	r5, r4
    1464:	d0ef      	beq.n	1446 <avaliar_modo_leitor+0x5a>
    1466:	61bb      	str	r3, [r7, #24]
    1468:	200a      	movs	r0, #10
    146a:	47b0      	blx	r6
    146c:	4642      	mov	r2, r8
    146e:	6a3b      	ldr	r3, [r7, #32]
    1470:	0c5b      	lsrs	r3, r3, #17
    1472:	4013      	ands	r3, r2
    1474:	42ab      	cmp	r3, r5
    1476:	d1ef      	bne.n	1458 <avaliar_modo_leitor+0x6c>
    1478:	4b17      	ldr	r3, [pc, #92]	; (14d8 <avaliar_modo_leitor+0xec>)
    147a:	2400      	movs	r4, #0
    147c:	4698      	mov	r8, r3
    147e:	2380      	movs	r3, #128	; 0x80
    1480:	00db      	lsls	r3, r3, #3
    1482:	2701      	movs	r7, #1
    1484:	4699      	mov	r9, r3
    1486:	e00b      	b.n	14a0 <avaliar_modo_leitor+0xb4>
    1488:	615a      	str	r2, [r3, #20]
    148a:	200a      	movs	r0, #10
    148c:	47b0      	blx	r6
    148e:	4643      	mov	r3, r8
    1490:	6a1b      	ldr	r3, [r3, #32]
    1492:	0c5b      	lsrs	r3, r3, #17
    1494:	403b      	ands	r3, r7
    1496:	429d      	cmp	r5, r3
    1498:	d010      	beq.n	14bc <avaliar_modo_leitor+0xd0>
    149a:	3401      	adds	r4, #1
    149c:	2c10      	cmp	r4, #16
    149e:	d016      	beq.n	14ce <avaliar_modo_leitor+0xe2>
    14a0:	1c3d      	adds	r5, r7, #0
    14a2:	4643      	mov	r3, r8
    14a4:	4025      	ands	r5, r4
    14a6:	464a      	mov	r2, r9
    14a8:	d0ee      	beq.n	1488 <avaliar_modo_leitor+0x9c>
    14aa:	619a      	str	r2, [r3, #24]
    14ac:	200a      	movs	r0, #10
    14ae:	47b0      	blx	r6
    14b0:	4643      	mov	r3, r8
    14b2:	6a1b      	ldr	r3, [r3, #32]
    14b4:	0c5b      	lsrs	r3, r3, #17
    14b6:	403b      	ands	r3, r7
    14b8:	429d      	cmp	r5, r3
    14ba:	d1ee      	bne.n	149a <avaliar_modo_leitor+0xae>
    14bc:	2003      	movs	r0, #3
    14be:	e000      	b.n	14c2 <avaliar_modo_leitor+0xd6>
    14c0:	2001      	movs	r0, #1
    14c2:	bc0c      	pop	{r2, r3}
    14c4:	4690      	mov	r8, r2
    14c6:	4699      	mov	r9, r3
    14c8:	bdf8      	pop	{r3, r4, r5, r6, r7, pc}
    14ca:	2002      	movs	r0, #2
    14cc:	e7f9      	b.n	14c2 <avaliar_modo_leitor+0xd6>
    14ce:	2000      	movs	r0, #0
    14d0:	e7f7      	b.n	14c2 <avaliar_modo_leitor+0xd6>
    14d2:	46c0      	nop			; (mov r8, r8)
    14d4:	00000369 	.word	0x00000369
    14d8:	41004400 	.word	0x41004400

000014dc <modo_leitor>:
    14dc:	b5f0      	push	{r4, r5, r6, r7, lr}
    14de:	4647      	mov	r7, r8
    14e0:	4ba2      	ldr	r3, [pc, #648]	; (176c <modo_leitor+0x290>)
    14e2:	b480      	push	{r7}
    14e4:	4798      	blx	r3
    14e6:	2801      	cmp	r0, #1
    14e8:	d100      	bne.n	14ec <modo_leitor+0x10>
    14ea:	e0e8      	b.n	16be <modo_leitor+0x1e2>
    14ec:	2800      	cmp	r0, #0
    14ee:	d100      	bne.n	14f2 <modo_leitor+0x16>
    14f0:	e09d      	b.n	162e <modo_leitor+0x152>
    14f2:	2802      	cmp	r0, #2
    14f4:	d053      	beq.n	159e <modo_leitor+0xc2>
    14f6:	2803      	cmp	r0, #3
    14f8:	d14e      	bne.n	1598 <modo_leitor+0xbc>
    14fa:	4d9d      	ldr	r5, [pc, #628]	; (1770 <modo_leitor+0x294>)
    14fc:	4e9d      	ldr	r6, [pc, #628]	; (1774 <modo_leitor+0x298>)
    14fe:	20fc      	movs	r0, #252	; 0xfc
    1500:	1c29      	adds	r1, r5, #0
    1502:	0180      	lsls	r0, r0, #6
    1504:	2240      	movs	r2, #64	; 0x40
    1506:	47b0      	blx	r6
    1508:	2805      	cmp	r0, #5
    150a:	d0f8      	beq.n	14fe <modo_leitor+0x22>
    150c:	4c9a      	ldr	r4, [pc, #616]	; (1778 <modo_leitor+0x29c>)
    150e:	47a0      	blx	r4
    1510:	78ab      	ldrb	r3, [r5, #2]
    1512:	2b22      	cmp	r3, #34	; 0x22
    1514:	d100      	bne.n	1518 <modo_leitor+0x3c>
    1516:	e11a      	b.n	174e <modo_leitor+0x272>
    1518:	231a      	movs	r3, #26
    151a:	4a98      	ldr	r2, [pc, #608]	; (177c <modo_leitor+0x2a0>)
    151c:	7013      	strb	r3, [r2, #0]
    151e:	20fc      	movs	r0, #252	; 0xfc
    1520:	1c29      	adds	r1, r5, #0
    1522:	0180      	lsls	r0, r0, #6
    1524:	2240      	movs	r2, #64	; 0x40
    1526:	47b0      	blx	r6
    1528:	2805      	cmp	r0, #5
    152a:	d0f8      	beq.n	151e <modo_leitor+0x42>
    152c:	47a0      	blx	r4
    152e:	786b      	ldrb	r3, [r5, #1]
    1530:	2b41      	cmp	r3, #65	; 0x41
    1532:	d100      	bne.n	1536 <modo_leitor+0x5a>
    1534:	e10d      	b.n	1752 <modo_leitor+0x276>
    1536:	2257      	movs	r2, #87	; 0x57
    1538:	4b91      	ldr	r3, [pc, #580]	; (1780 <modo_leitor+0x2a4>)
    153a:	701a      	strb	r2, [r3, #0]
    153c:	4b91      	ldr	r3, [pc, #580]	; (1784 <modo_leitor+0x2a8>)
    153e:	32a9      	adds	r2, #169	; 0xa9
    1540:	615a      	str	r2, [r3, #20]
    1542:	3201      	adds	r2, #1
    1544:	32ff      	adds	r2, #255	; 0xff
    1546:	615a      	str	r2, [r3, #20]
    1548:	2280      	movs	r2, #128	; 0x80
    154a:	00d2      	lsls	r2, r2, #3
    154c:	615a      	str	r2, [r3, #20]
    154e:	2708      	movs	r7, #8
    1550:	2604      	movs	r6, #4
    1552:	2096      	movs	r0, #150	; 0x96
    1554:	4c8b      	ldr	r4, [pc, #556]	; (1784 <modo_leitor+0x2a8>)
    1556:	0040      	lsls	r0, r0, #1
    1558:	61a7      	str	r7, [r4, #24]
    155a:	4d8b      	ldr	r5, [pc, #556]	; (1788 <modo_leitor+0x2ac>)
    155c:	6166      	str	r6, [r4, #20]
    155e:	47a8      	blx	r5
    1560:	217f      	movs	r1, #127	; 0x7f
    1562:	6167      	str	r7, [r4, #20]
    1564:	61a6      	str	r6, [r4, #24]
    1566:	4c89      	ldr	r4, [pc, #548]	; (178c <modo_leitor+0x2b0>)
    1568:	6823      	ldr	r3, [r4, #0]
    156a:	7bda      	ldrb	r2, [r3, #15]
    156c:	438a      	bics	r2, r1
    156e:	d1fc      	bne.n	156a <modo_leitor+0x8e>
    1570:	8819      	ldrh	r1, [r3, #0]
    1572:	3202      	adds	r2, #2
    1574:	430a      	orrs	r2, r1
    1576:	801a      	strh	r2, [r3, #0]
    1578:	20fa      	movs	r0, #250	; 0xfa
    157a:	47a8      	blx	r5
    157c:	217f      	movs	r1, #127	; 0x7f
    157e:	6823      	ldr	r3, [r4, #0]
    1580:	7bda      	ldrb	r2, [r3, #15]
    1582:	438a      	bics	r2, r1
    1584:	d1fc      	bne.n	1580 <modo_leitor+0xa4>
    1586:	2102      	movs	r1, #2
    1588:	881a      	ldrh	r2, [r3, #0]
    158a:	438a      	bics	r2, r1
    158c:	801a      	strh	r2, [r3, #0]
    158e:	2208      	movs	r2, #8
    1590:	4b7c      	ldr	r3, [pc, #496]	; (1784 <modo_leitor+0x2a8>)
    1592:	619a      	str	r2, [r3, #24]
    1594:	3a04      	subs	r2, #4
    1596:	615a      	str	r2, [r3, #20]
    1598:	bc04      	pop	{r2}
    159a:	4690      	mov	r8, r2
    159c:	bdf0      	pop	{r4, r5, r6, r7, pc}
    159e:	4d74      	ldr	r5, [pc, #464]	; (1770 <modo_leitor+0x294>)
    15a0:	4e74      	ldr	r6, [pc, #464]	; (1774 <modo_leitor+0x298>)
    15a2:	20fc      	movs	r0, #252	; 0xfc
    15a4:	1c29      	adds	r1, r5, #0
    15a6:	0180      	lsls	r0, r0, #6
    15a8:	2240      	movs	r2, #64	; 0x40
    15aa:	47b0      	blx	r6
    15ac:	2805      	cmp	r0, #5
    15ae:	d0f8      	beq.n	15a2 <modo_leitor+0xc6>
    15b0:	4c71      	ldr	r4, [pc, #452]	; (1778 <modo_leitor+0x29c>)
    15b2:	47a0      	blx	r4
    15b4:	2357      	movs	r3, #87	; 0x57
    15b6:	706b      	strb	r3, [r5, #1]
    15b8:	4b75      	ldr	r3, [pc, #468]	; (1790 <modo_leitor+0x2b4>)
    15ba:	4698      	mov	r8, r3
    15bc:	20fc      	movs	r0, #252	; 0xfc
    15be:	0180      	lsls	r0, r0, #6
    15c0:	47c0      	blx	r8
    15c2:	2805      	cmp	r0, #5
    15c4:	d0fa      	beq.n	15bc <modo_leitor+0xe0>
    15c6:	47a0      	blx	r4
    15c8:	4f72      	ldr	r7, [pc, #456]	; (1794 <modo_leitor+0x2b8>)
    15ca:	20fc      	movs	r0, #252	; 0xfc
    15cc:	1c29      	adds	r1, r5, #0
    15ce:	0180      	lsls	r0, r0, #6
    15d0:	2240      	movs	r2, #64	; 0x40
    15d2:	47b8      	blx	r7
    15d4:	2805      	cmp	r0, #5
    15d6:	d0f8      	beq.n	15ca <modo_leitor+0xee>
    15d8:	47a0      	blx	r4
    15da:	20fc      	movs	r0, #252	; 0xfc
    15dc:	1c29      	adds	r1, r5, #0
    15de:	0180      	lsls	r0, r0, #6
    15e0:	2240      	movs	r2, #64	; 0x40
    15e2:	47b0      	blx	r6
    15e4:	2805      	cmp	r0, #5
    15e6:	d0f8      	beq.n	15da <modo_leitor+0xfe>
    15e8:	47a0      	blx	r4
    15ea:	2322      	movs	r3, #34	; 0x22
    15ec:	70ab      	strb	r3, [r5, #2]
    15ee:	20fc      	movs	r0, #252	; 0xfc
    15f0:	0180      	lsls	r0, r0, #6
    15f2:	47c0      	blx	r8
    15f4:	2805      	cmp	r0, #5
    15f6:	d0fa      	beq.n	15ee <modo_leitor+0x112>
    15f8:	47a0      	blx	r4
    15fa:	20fc      	movs	r0, #252	; 0xfc
    15fc:	1c29      	adds	r1, r5, #0
    15fe:	0180      	lsls	r0, r0, #6
    1600:	2240      	movs	r2, #64	; 0x40
    1602:	47b8      	blx	r7
    1604:	2805      	cmp	r0, #5
    1606:	d0f8      	beq.n	15fa <modo_leitor+0x11e>
    1608:	47a0      	blx	r4
    160a:	2208      	movs	r2, #8
    160c:	217f      	movs	r1, #127	; 0x7f
    160e:	4b5d      	ldr	r3, [pc, #372]	; (1784 <modo_leitor+0x2a8>)
    1610:	619a      	str	r2, [r3, #24]
    1612:	3a04      	subs	r2, #4
    1614:	619a      	str	r2, [r3, #24]
    1616:	4b5d      	ldr	r3, [pc, #372]	; (178c <modo_leitor+0x2b0>)
    1618:	681b      	ldr	r3, [r3, #0]
    161a:	7bda      	ldrb	r2, [r3, #15]
    161c:	438a      	bics	r2, r1
    161e:	d1fc      	bne.n	161a <modo_leitor+0x13e>
    1620:	8819      	ldrh	r1, [r3, #0]
    1622:	3202      	adds	r2, #2
    1624:	430a      	orrs	r2, r1
    1626:	801a      	strh	r2, [r3, #0]
    1628:	47a0      	blx	r4
    162a:	47a0      	blx	r4
    162c:	e7fc      	b.n	1628 <modo_leitor+0x14c>
    162e:	4d50      	ldr	r5, [pc, #320]	; (1770 <modo_leitor+0x294>)
    1630:	4e50      	ldr	r6, [pc, #320]	; (1774 <modo_leitor+0x298>)
    1632:	20fc      	movs	r0, #252	; 0xfc
    1634:	1c29      	adds	r1, r5, #0
    1636:	0180      	lsls	r0, r0, #6
    1638:	2240      	movs	r2, #64	; 0x40
    163a:	47b0      	blx	r6
    163c:	2805      	cmp	r0, #5
    163e:	d0f8      	beq.n	1632 <modo_leitor+0x156>
    1640:	4c4d      	ldr	r4, [pc, #308]	; (1778 <modo_leitor+0x29c>)
    1642:	47a0      	blx	r4
    1644:	2341      	movs	r3, #65	; 0x41
    1646:	706b      	strb	r3, [r5, #1]
    1648:	4b51      	ldr	r3, [pc, #324]	; (1790 <modo_leitor+0x2b4>)
    164a:	4698      	mov	r8, r3
    164c:	20fc      	movs	r0, #252	; 0xfc
    164e:	0180      	lsls	r0, r0, #6
    1650:	47c0      	blx	r8
    1652:	2805      	cmp	r0, #5
    1654:	d0fa      	beq.n	164c <modo_leitor+0x170>
    1656:	47a0      	blx	r4
    1658:	4f4e      	ldr	r7, [pc, #312]	; (1794 <modo_leitor+0x2b8>)
    165a:	20fc      	movs	r0, #252	; 0xfc
    165c:	1c29      	adds	r1, r5, #0
    165e:	0180      	lsls	r0, r0, #6
    1660:	2240      	movs	r2, #64	; 0x40
    1662:	47b8      	blx	r7
    1664:	2805      	cmp	r0, #5
    1666:	d0f8      	beq.n	165a <modo_leitor+0x17e>
    1668:	47a0      	blx	r4
    166a:	20fc      	movs	r0, #252	; 0xfc
    166c:	1c29      	adds	r1, r5, #0
    166e:	0180      	lsls	r0, r0, #6
    1670:	2240      	movs	r2, #64	; 0x40
    1672:	47b0      	blx	r6
    1674:	2805      	cmp	r0, #5
    1676:	d0f8      	beq.n	166a <modo_leitor+0x18e>
    1678:	47a0      	blx	r4
    167a:	231a      	movs	r3, #26
    167c:	70ab      	strb	r3, [r5, #2]
    167e:	20fc      	movs	r0, #252	; 0xfc
    1680:	0180      	lsls	r0, r0, #6
    1682:	47c0      	blx	r8
    1684:	2805      	cmp	r0, #5
    1686:	d0fa      	beq.n	167e <modo_leitor+0x1a2>
    1688:	47a0      	blx	r4
    168a:	20fc      	movs	r0, #252	; 0xfc
    168c:	1c29      	adds	r1, r5, #0
    168e:	0180      	lsls	r0, r0, #6
    1690:	2240      	movs	r2, #64	; 0x40
    1692:	47b8      	blx	r7
    1694:	2805      	cmp	r0, #5
    1696:	d0f8      	beq.n	168a <modo_leitor+0x1ae>
    1698:	47a0      	blx	r4
    169a:	2208      	movs	r2, #8
    169c:	217f      	movs	r1, #127	; 0x7f
    169e:	4b39      	ldr	r3, [pc, #228]	; (1784 <modo_leitor+0x2a8>)
    16a0:	619a      	str	r2, [r3, #24]
    16a2:	3a04      	subs	r2, #4
    16a4:	615a      	str	r2, [r3, #20]
    16a6:	4b39      	ldr	r3, [pc, #228]	; (178c <modo_leitor+0x2b0>)
    16a8:	681b      	ldr	r3, [r3, #0]
    16aa:	7bda      	ldrb	r2, [r3, #15]
    16ac:	438a      	bics	r2, r1
    16ae:	d1fc      	bne.n	16aa <modo_leitor+0x1ce>
    16b0:	8819      	ldrh	r1, [r3, #0]
    16b2:	3202      	adds	r2, #2
    16b4:	430a      	orrs	r2, r1
    16b6:	801a      	strh	r2, [r3, #0]
    16b8:	47a0      	blx	r4
    16ba:	47a0      	blx	r4
    16bc:	e7fc      	b.n	16b8 <modo_leitor+0x1dc>
    16be:	4d2c      	ldr	r5, [pc, #176]	; (1770 <modo_leitor+0x294>)
    16c0:	4e2c      	ldr	r6, [pc, #176]	; (1774 <modo_leitor+0x298>)
    16c2:	20fc      	movs	r0, #252	; 0xfc
    16c4:	1c29      	adds	r1, r5, #0
    16c6:	0180      	lsls	r0, r0, #6
    16c8:	2240      	movs	r2, #64	; 0x40
    16ca:	47b0      	blx	r6
    16cc:	2805      	cmp	r0, #5
    16ce:	d0f8      	beq.n	16c2 <modo_leitor+0x1e6>
    16d0:	4c29      	ldr	r4, [pc, #164]	; (1778 <modo_leitor+0x29c>)
    16d2:	47a0      	blx	r4
    16d4:	2357      	movs	r3, #87	; 0x57
    16d6:	706b      	strb	r3, [r5, #1]
    16d8:	4b2d      	ldr	r3, [pc, #180]	; (1790 <modo_leitor+0x2b4>)
    16da:	4698      	mov	r8, r3
    16dc:	20fc      	movs	r0, #252	; 0xfc
    16de:	0180      	lsls	r0, r0, #6
    16e0:	47c0      	blx	r8
    16e2:	2805      	cmp	r0, #5
    16e4:	d0fa      	beq.n	16dc <modo_leitor+0x200>
    16e6:	47a0      	blx	r4
    16e8:	4f2a      	ldr	r7, [pc, #168]	; (1794 <modo_leitor+0x2b8>)
    16ea:	20fc      	movs	r0, #252	; 0xfc
    16ec:	1c29      	adds	r1, r5, #0
    16ee:	0180      	lsls	r0, r0, #6
    16f0:	2240      	movs	r2, #64	; 0x40
    16f2:	47b8      	blx	r7
    16f4:	2805      	cmp	r0, #5
    16f6:	d0f8      	beq.n	16ea <modo_leitor+0x20e>
    16f8:	47a0      	blx	r4
    16fa:	20fc      	movs	r0, #252	; 0xfc
    16fc:	1c29      	adds	r1, r5, #0
    16fe:	0180      	lsls	r0, r0, #6
    1700:	2240      	movs	r2, #64	; 0x40
    1702:	47b0      	blx	r6
    1704:	2805      	cmp	r0, #5
    1706:	d0f8      	beq.n	16fa <modo_leitor+0x21e>
    1708:	47a0      	blx	r4
    170a:	231a      	movs	r3, #26
    170c:	70ab      	strb	r3, [r5, #2]
    170e:	20fc      	movs	r0, #252	; 0xfc
    1710:	0180      	lsls	r0, r0, #6
    1712:	47c0      	blx	r8
    1714:	2805      	cmp	r0, #5
    1716:	d0fa      	beq.n	170e <modo_leitor+0x232>
    1718:	47a0      	blx	r4
    171a:	20fc      	movs	r0, #252	; 0xfc
    171c:	1c29      	adds	r1, r5, #0
    171e:	0180      	lsls	r0, r0, #6
    1720:	2240      	movs	r2, #64	; 0x40
    1722:	47b8      	blx	r7
    1724:	2805      	cmp	r0, #5
    1726:	d0f8      	beq.n	171a <modo_leitor+0x23e>
    1728:	47a0      	blx	r4
    172a:	2208      	movs	r2, #8
    172c:	217f      	movs	r1, #127	; 0x7f
    172e:	4b15      	ldr	r3, [pc, #84]	; (1784 <modo_leitor+0x2a8>)
    1730:	615a      	str	r2, [r3, #20]
    1732:	3a04      	subs	r2, #4
    1734:	619a      	str	r2, [r3, #24]
    1736:	4b15      	ldr	r3, [pc, #84]	; (178c <modo_leitor+0x2b0>)
    1738:	681b      	ldr	r3, [r3, #0]
    173a:	7bda      	ldrb	r2, [r3, #15]
    173c:	438a      	bics	r2, r1
    173e:	d1fc      	bne.n	173a <modo_leitor+0x25e>
    1740:	8819      	ldrh	r1, [r3, #0]
    1742:	3202      	adds	r2, #2
    1744:	430a      	orrs	r2, r1
    1746:	801a      	strh	r2, [r3, #0]
    1748:	47a0      	blx	r4
    174a:	47a0      	blx	r4
    174c:	e7fc      	b.n	1748 <modo_leitor+0x26c>
    174e:	2322      	movs	r3, #34	; 0x22
    1750:	e6e3      	b.n	151a <modo_leitor+0x3e>
    1752:	4a0b      	ldr	r2, [pc, #44]	; (1780 <modo_leitor+0x2a4>)
    1754:	7013      	strb	r3, [r2, #0]
    1756:	2280      	movs	r2, #128	; 0x80
    1758:	4b0a      	ldr	r3, [pc, #40]	; (1784 <modo_leitor+0x2a8>)
    175a:	0052      	lsls	r2, r2, #1
    175c:	615a      	str	r2, [r3, #20]
    175e:	1892      	adds	r2, r2, r2
    1760:	615a      	str	r2, [r3, #20]
    1762:	2280      	movs	r2, #128	; 0x80
    1764:	00d2      	lsls	r2, r2, #3
    1766:	615a      	str	r2, [r3, #20]
    1768:	e6f1      	b.n	154e <modo_leitor+0x72>
    176a:	46c0      	nop			; (mov r8, r8)
    176c:	000013ed 	.word	0x000013ed
    1770:	20000048 	.word	0x20000048
    1774:	00000a99 	.word	0x00000a99
    1778:	0000102d 	.word	0x0000102d
    177c:	20000944 	.word	0x20000944
    1780:	20000908 	.word	0x20000908
    1784:	41004400 	.word	0x41004400
    1788:	00000369 	.word	0x00000369
    178c:	20000928 	.word	0x20000928
    1790:	00000b05 	.word	0x00000b05
    1794:	000009f5 	.word	0x000009f5

00001798 <ler_tipo_leitor>:
    1798:	b538      	push	{r3, r4, r5, lr}
    179a:	4c0a      	ldr	r4, [pc, #40]	; (17c4 <ler_tipo_leitor+0x2c>)
    179c:	4d0a      	ldr	r5, [pc, #40]	; (17c8 <ler_tipo_leitor+0x30>)
    179e:	20fc      	movs	r0, #252	; 0xfc
    17a0:	1c21      	adds	r1, r4, #0
    17a2:	0180      	lsls	r0, r0, #6
    17a4:	2240      	movs	r2, #64	; 0x40
    17a6:	47a8      	blx	r5
    17a8:	2805      	cmp	r0, #5
    17aa:	d0f8      	beq.n	179e <ler_tipo_leitor+0x6>
    17ac:	4b07      	ldr	r3, [pc, #28]	; (17cc <ler_tipo_leitor+0x34>)
    17ae:	4798      	blx	r3
    17b0:	7823      	ldrb	r3, [r4, #0]
    17b2:	2000      	movs	r0, #0
    17b4:	3b46      	subs	r3, #70	; 0x46
    17b6:	b2db      	uxtb	r3, r3
    17b8:	2b0a      	cmp	r3, #10
    17ba:	d801      	bhi.n	17c0 <ler_tipo_leitor+0x28>
    17bc:	4a04      	ldr	r2, [pc, #16]	; (17d0 <ler_tipo_leitor+0x38>)
    17be:	5cd0      	ldrb	r0, [r2, r3]
    17c0:	bd38      	pop	{r3, r4, r5, pc}
    17c2:	46c0      	nop			; (mov r8, r8)
    17c4:	20000048 	.word	0x20000048
    17c8:	00000a99 	.word	0x00000a99
    17cc:	0000102d 	.word	0x0000102d
    17d0:	00003e28 	.word	0x00003e28

000017d4 <go_output>:
    17d4:	b5f0      	push	{r4, r5, r6, r7, lr}
    17d6:	4657      	mov	r7, sl
    17d8:	464e      	mov	r6, r9
    17da:	4645      	mov	r5, r8
    17dc:	b4e0      	push	{r5, r6, r7}
    17de:	4b5d      	ldr	r3, [pc, #372]	; (1954 <go_output+0x180>)
    17e0:	b08e      	sub	sp, #56	; 0x38
    17e2:	681e      	ldr	r6, [r3, #0]
    17e4:	1c04      	adds	r4, r0, #0
    17e6:	1c0d      	adds	r5, r1, #0
    17e8:	1c17      	adds	r7, r2, #0
    17ea:	2e00      	cmp	r6, #0
    17ec:	d02f      	beq.n	184e <go_output+0x7a>
    17ee:	4b5a      	ldr	r3, [pc, #360]	; (1958 <go_output+0x184>)
    17f0:	8a18      	ldrh	r0, [r3, #16]
    17f2:	b280      	uxth	r0, r0
    17f4:	2800      	cmp	r0, #0
    17f6:	d100      	bne.n	17fa <go_output+0x26>
    17f8:	e072      	b.n	18e0 <go_output+0x10c>
    17fa:	4b58      	ldr	r3, [pc, #352]	; (195c <go_output+0x188>)
    17fc:	0280      	lsls	r0, r0, #10
    17fe:	4958      	ldr	r1, [pc, #352]	; (1960 <go_output+0x18c>)
    1800:	4798      	blx	r3
    1802:	4e58      	ldr	r6, [pc, #352]	; (1964 <go_output+0x190>)
    1804:	6833      	ldr	r3, [r6, #0]
    1806:	469c      	mov	ip, r3
    1808:	4b57      	ldr	r3, [pc, #348]	; (1968 <go_output+0x194>)
    180a:	4460      	add	r0, ip
    180c:	6030      	str	r0, [r6, #0]
    180e:	4298      	cmp	r0, r3
    1810:	dd00      	ble.n	1814 <go_output+0x40>
    1812:	e07b      	b.n	190c <go_output+0x138>
    1814:	217f      	movs	r1, #127	; 0x7f
    1816:	4855      	ldr	r0, [pc, #340]	; (196c <go_output+0x198>)
    1818:	6802      	ldr	r2, [r0, #0]
    181a:	7bd3      	ldrb	r3, [r2, #15]
    181c:	438b      	bics	r3, r1
    181e:	d1fc      	bne.n	181a <go_output+0x46>
    1820:	2402      	movs	r4, #2
    1822:	8811      	ldrh	r1, [r2, #0]
    1824:	43a1      	bics	r1, r4
    1826:	8011      	strh	r1, [r2, #0]
    1828:	217f      	movs	r1, #127	; 0x7f
    182a:	4a4b      	ldr	r2, [pc, #300]	; (1958 <go_output+0x184>)
    182c:	8213      	strh	r3, [r2, #16]
    182e:	4b50      	ldr	r3, [pc, #320]	; (1970 <go_output+0x19c>)
    1830:	8313      	strh	r3, [r2, #24]
    1832:	6802      	ldr	r2, [r0, #0]
    1834:	7bd3      	ldrb	r3, [r2, #15]
    1836:	438b      	bics	r3, r1
    1838:	d1fc      	bne.n	1834 <go_output+0x60>
    183a:	8811      	ldrh	r1, [r2, #0]
    183c:	3302      	adds	r3, #2
    183e:	430b      	orrs	r3, r1
    1840:	8013      	strh	r3, [r2, #0]
    1842:	b00e      	add	sp, #56	; 0x38
    1844:	bc1c      	pop	{r2, r3, r4}
    1846:	4690      	mov	r8, r2
    1848:	4699      	mov	r9, r3
    184a:	46a2      	mov	sl, r4
    184c:	bdf0      	pop	{r4, r5, r6, r7, pc}
    184e:	2101      	movs	r1, #1
    1850:	6019      	str	r1, [r3, #0]
    1852:	2300      	movs	r3, #0
    1854:	aa01      	add	r2, sp, #4
    1856:	7053      	strb	r3, [r2, #1]
    1858:	7293      	strb	r3, [r2, #10]
    185a:	72d3      	strb	r3, [r2, #11]
    185c:	7313      	strb	r3, [r2, #12]
    185e:	7393      	strb	r3, [r2, #14]
    1860:	7413      	strb	r3, [r2, #16]
    1862:	7713      	strb	r3, [r2, #28]
    1864:	2320      	movs	r3, #32
    1866:	7193      	strb	r3, [r2, #6]
    1868:	23e0      	movs	r3, #224	; 0xe0
    186a:	00db      	lsls	r3, r3, #3
    186c:	8093      	strh	r3, [r2, #4]
    186e:	4b40      	ldr	r3, [pc, #256]	; (1970 <go_output+0x19c>)
    1870:	7351      	strb	r1, [r2, #13]
    1872:	8553      	strh	r3, [r2, #42]	; 0x2a
    1874:	469a      	mov	sl, r3
    1876:	4b3d      	ldr	r3, [pc, #244]	; (196c <go_output+0x198>)
    1878:	6156      	str	r6, [r2, #20]
    187a:	4699      	mov	r9, r3
    187c:	4b36      	ldr	r3, [pc, #216]	; (1958 <go_output+0x184>)
    187e:	6196      	str	r6, [r2, #24]
    1880:	4698      	mov	r8, r3
    1882:	1c19      	adds	r1, r3, #0
    1884:	6216      	str	r6, [r2, #32]
    1886:	6256      	str	r6, [r2, #36]	; 0x24
    1888:	4b3a      	ldr	r3, [pc, #232]	; (1974 <go_output+0x1a0>)
    188a:	4648      	mov	r0, r9
    188c:	7016      	strb	r6, [r2, #0]
    188e:	7096      	strb	r6, [r2, #2]
    1890:	8116      	strh	r6, [r2, #8]
    1892:	8516      	strh	r6, [r2, #40]	; 0x28
    1894:	8596      	strh	r6, [r2, #44]	; 0x2c
    1896:	4798      	blx	r3
    1898:	4643      	mov	r3, r8
    189a:	4652      	mov	r2, sl
    189c:	821e      	strh	r6, [r3, #16]
    189e:	831a      	strh	r2, [r3, #24]
    18a0:	464b      	mov	r3, r9
    18a2:	217f      	movs	r1, #127	; 0x7f
    18a4:	681a      	ldr	r2, [r3, #0]
    18a6:	7bd3      	ldrb	r3, [r2, #15]
    18a8:	438b      	bics	r3, r1
    18aa:	d1fc      	bne.n	18a6 <go_output+0xd2>
    18ac:	8811      	ldrh	r1, [r2, #0]
    18ae:	3302      	adds	r3, #2
    18b0:	430b      	orrs	r3, r1
    18b2:	8013      	strh	r3, [r2, #0]
    18b4:	4b30      	ldr	r3, [pc, #192]	; (1978 <go_output+0x1a4>)
    18b6:	4798      	blx	r3
    18b8:	4b30      	ldr	r3, [pc, #192]	; (197c <go_output+0x1a8>)
    18ba:	781b      	ldrb	r3, [r3, #0]
    18bc:	2b41      	cmp	r3, #65	; 0x41
    18be:	d03a      	beq.n	1936 <go_output+0x162>
    18c0:	2b57      	cmp	r3, #87	; 0x57
    18c2:	d104      	bne.n	18ce <go_output+0xfa>
    18c4:	1c20      	adds	r0, r4, #0
    18c6:	1c29      	adds	r1, r5, #0
    18c8:	1c3a      	adds	r2, r7, #0
    18ca:	4b2d      	ldr	r3, [pc, #180]	; (1980 <go_output+0x1ac>)
    18cc:	4798      	blx	r3
    18ce:	2032      	movs	r0, #50	; 0x32
    18d0:	4b2c      	ldr	r3, [pc, #176]	; (1984 <go_output+0x1b0>)
    18d2:	4798      	blx	r3
    18d4:	4b2c      	ldr	r3, [pc, #176]	; (1988 <go_output+0x1b4>)
    18d6:	4798      	blx	r3
    18d8:	2200      	movs	r2, #0
    18da:	4b22      	ldr	r3, [pc, #136]	; (1964 <go_output+0x190>)
    18dc:	601a      	str	r2, [r3, #0]
    18de:	e7b0      	b.n	1842 <go_output+0x6e>
    18e0:	4b25      	ldr	r3, [pc, #148]	; (1978 <go_output+0x1a4>)
    18e2:	4798      	blx	r3
    18e4:	4b25      	ldr	r3, [pc, #148]	; (197c <go_output+0x1a8>)
    18e6:	781b      	ldrb	r3, [r3, #0]
    18e8:	2b41      	cmp	r3, #65	; 0x41
    18ea:	d029      	beq.n	1940 <go_output+0x16c>
    18ec:	2b57      	cmp	r3, #87	; 0x57
    18ee:	d104      	bne.n	18fa <go_output+0x126>
    18f0:	1c20      	adds	r0, r4, #0
    18f2:	1c29      	adds	r1, r5, #0
    18f4:	1c3a      	adds	r2, r7, #0
    18f6:	4b22      	ldr	r3, [pc, #136]	; (1980 <go_output+0x1ac>)
    18f8:	4798      	blx	r3
    18fa:	2032      	movs	r0, #50	; 0x32
    18fc:	4b21      	ldr	r3, [pc, #132]	; (1984 <go_output+0x1b0>)
    18fe:	4798      	blx	r3
    1900:	4b21      	ldr	r3, [pc, #132]	; (1988 <go_output+0x1b4>)
    1902:	4798      	blx	r3
    1904:	2200      	movs	r2, #0
    1906:	4b17      	ldr	r3, [pc, #92]	; (1964 <go_output+0x190>)
    1908:	601a      	str	r2, [r3, #0]
    190a:	e783      	b.n	1814 <go_output+0x40>
    190c:	4b1a      	ldr	r3, [pc, #104]	; (1978 <go_output+0x1a4>)
    190e:	4798      	blx	r3
    1910:	4b1a      	ldr	r3, [pc, #104]	; (197c <go_output+0x1a8>)
    1912:	781b      	ldrb	r3, [r3, #0]
    1914:	2b41      	cmp	r3, #65	; 0x41
    1916:	d018      	beq.n	194a <go_output+0x176>
    1918:	2b57      	cmp	r3, #87	; 0x57
    191a:	d104      	bne.n	1926 <go_output+0x152>
    191c:	1c20      	adds	r0, r4, #0
    191e:	1c29      	adds	r1, r5, #0
    1920:	1c3a      	adds	r2, r7, #0
    1922:	4b17      	ldr	r3, [pc, #92]	; (1980 <go_output+0x1ac>)
    1924:	4798      	blx	r3
    1926:	2032      	movs	r0, #50	; 0x32
    1928:	4b16      	ldr	r3, [pc, #88]	; (1984 <go_output+0x1b0>)
    192a:	4798      	blx	r3
    192c:	4b16      	ldr	r3, [pc, #88]	; (1988 <go_output+0x1b4>)
    192e:	4798      	blx	r3
    1930:	2300      	movs	r3, #0
    1932:	6033      	str	r3, [r6, #0]
    1934:	e76e      	b.n	1814 <go_output+0x40>
    1936:	1c20      	adds	r0, r4, #0
    1938:	1c29      	adds	r1, r5, #0
    193a:	4b14      	ldr	r3, [pc, #80]	; (198c <go_output+0x1b8>)
    193c:	4798      	blx	r3
    193e:	e7c6      	b.n	18ce <go_output+0xfa>
    1940:	1c20      	adds	r0, r4, #0
    1942:	1c29      	adds	r1, r5, #0
    1944:	4b11      	ldr	r3, [pc, #68]	; (198c <go_output+0x1b8>)
    1946:	4798      	blx	r3
    1948:	e7d7      	b.n	18fa <go_output+0x126>
    194a:	1c20      	adds	r0, r4, #0
    194c:	1c29      	adds	r1, r5, #0
    194e:	4b0f      	ldr	r3, [pc, #60]	; (198c <go_output+0x1b8>)
    1950:	4798      	blx	r3
    1952:	e7e8      	b.n	1926 <go_output+0x152>
    1954:	200000a8 	.word	0x200000a8
    1958:	42002800 	.word	0x42002800
    195c:	000035f5 	.word	0x000035f5
    1960:	0000bb80 	.word	0x0000bb80
    1964:	200000a4 	.word	0x200000a4
    1968:	00000bb7 	.word	0x00000bb7
    196c:	20000088 	.word	0x20000088
    1970:	000036ed 	.word	0x000036ed
    1974:	00000c81 	.word	0x00000c81
    1978:	00001101 	.word	0x00001101
    197c:	20000908 	.word	0x20000908
    1980:	00002a01 	.word	0x00002a01
    1984:	000010b9 	.word	0x000010b9
    1988:	000010f1 	.word	0x000010f1
    198c:	00000105 	.word	0x00000105

00001990 <M522PcdCmd>:
    1990:	b5f0      	push	{r4, r5, r6, r7, lr}
    1992:	465f      	mov	r7, fp
    1994:	4656      	mov	r6, sl
    1996:	464d      	mov	r5, r9
    1998:	4644      	mov	r4, r8
    199a:	b4f0      	push	{r4, r5, r6, r7}
    199c:	b083      	sub	sp, #12
    199e:	4681      	mov	r9, r0
    19a0:	1c0e      	adds	r6, r1, #0
    19a2:	1c15      	adds	r5, r2, #0
    19a4:	2004      	movs	r0, #4
    19a6:	2142      	movs	r1, #66	; 0x42
    19a8:	4cb6      	ldr	r4, [pc, #728]	; (1c84 <M522PcdCmd+0x2f4>)
    19aa:	47a0      	blx	r4
    19ac:	2005      	movs	r0, #5
    19ae:	2100      	movs	r1, #0
    19b0:	47a0      	blx	r4
    19b2:	200a      	movs	r0, #10
    19b4:	2180      	movs	r1, #128	; 0x80
    19b6:	47a0      	blx	r4
    19b8:	2001      	movs	r0, #1
    19ba:	4bb3      	ldr	r3, [pc, #716]	; (1c88 <M522PcdCmd+0x2f8>)
    19bc:	4798      	blx	r3
    19be:	464b      	mov	r3, r9
    19c0:	2b0c      	cmp	r3, #12
    19c2:	d10b      	bne.n	19dc <M522PcdCmd+0x4c>
    19c4:	3303      	adds	r3, #3
    19c6:	1c01      	adds	r1, r0, #0
    19c8:	4399      	bics	r1, r3
    19ca:	200c      	movs	r0, #12
    19cc:	4301      	orrs	r1, r0
    19ce:	b2c9      	uxtb	r1, r1
    19d0:	2001      	movs	r0, #1
    19d2:	4bac      	ldr	r3, [pc, #688]	; (1c84 <M522PcdCmd+0x2f4>)
    19d4:	4798      	blx	r3
    19d6:	4bad      	ldr	r3, [pc, #692]	; (1c8c <M522PcdCmd+0x2fc>)
    19d8:	601d      	str	r5, [r3, #0]
    19da:	e014      	b.n	1a06 <M522PcdCmd+0x76>
    19dc:	23f0      	movs	r3, #240	; 0xf0
    19de:	1c01      	adds	r1, r0, #0
    19e0:	4019      	ands	r1, r3
    19e2:	2001      	movs	r0, #1
    19e4:	4ba7      	ldr	r3, [pc, #668]	; (1c84 <M522PcdCmd+0x2f4>)
    19e6:	4798      	blx	r3
    19e8:	4ba8      	ldr	r3, [pc, #672]	; (1c8c <M522PcdCmd+0x2fc>)
    19ea:	601d      	str	r5, [r3, #0]
    19ec:	464b      	mov	r3, r9
    19ee:	2b0f      	cmp	r3, #15
    19f0:	d85a      	bhi.n	1aa8 <M522PcdCmd+0x118>
    19f2:	009b      	lsls	r3, r3, #2
    19f4:	4aa6      	ldr	r2, [pc, #664]	; (1c90 <M522PcdCmd+0x300>)
    19f6:	58d3      	ldr	r3, [r2, r3]
    19f8:	469f      	mov	pc, r3
    19fa:	2301      	movs	r3, #1
    19fc:	4698      	mov	r8, r3
    19fe:	2523      	movs	r5, #35	; 0x23
    1a00:	3322      	adds	r3, #34	; 0x22
    1a02:	469a      	mov	sl, r3
    1a04:	e009      	b.n	1a1a <M522PcdCmd+0x8a>
    1a06:	2301      	movs	r3, #1
    1a08:	4698      	mov	r8, r3
    1a0a:	2523      	movs	r5, #35	; 0x23
    1a0c:	3322      	adds	r3, #34	; 0x22
    1a0e:	469a      	mov	sl, r3
    1a10:	e003      	b.n	1a1a <M522PcdCmd+0x8a>
    1a12:	2300      	movs	r3, #0
    1a14:	4698      	mov	r8, r3
    1a16:	2500      	movs	r5, #0
    1a18:	469a      	mov	sl, r3
    1a1a:	2002      	movs	r0, #2
    1a1c:	4c9a      	ldr	r4, [pc, #616]	; (1c88 <M522PcdCmd+0x2f8>)
    1a1e:	47a0      	blx	r4
    1a20:	4653      	mov	r3, sl
    1a22:	4318      	orrs	r0, r3
    1a24:	b2c1      	uxtb	r1, r0
    1a26:	2002      	movs	r0, #2
    1a28:	4f96      	ldr	r7, [pc, #600]	; (1c84 <M522PcdCmd+0x2f4>)
    1a2a:	47b8      	blx	r7
    1a2c:	2003      	movs	r0, #3
    1a2e:	47a0      	blx	r4
    1a30:	1c01      	adds	r1, r0, #0
    1a32:	2003      	movs	r0, #3
    1a34:	47b8      	blx	r7
    1a36:	4b95      	ldr	r3, [pc, #596]	; (1c8c <M522PcdCmd+0x2fc>)
    1a38:	681b      	ldr	r3, [r3, #0]
    1a3a:	78db      	ldrb	r3, [r3, #3]
    1a3c:	2b00      	cmp	r3, #0
    1a3e:	d00c      	beq.n	1a5a <M522PcdCmd+0xca>
    1a40:	2400      	movs	r4, #0
    1a42:	4b90      	ldr	r3, [pc, #576]	; (1c84 <M522PcdCmd+0x2f4>)
    1a44:	469b      	mov	fp, r3
    1a46:	4f91      	ldr	r7, [pc, #580]	; (1c8c <M522PcdCmd+0x2fc>)
    1a48:	5d31      	ldrb	r1, [r6, r4]
    1a4a:	2009      	movs	r0, #9
    1a4c:	47d8      	blx	fp
    1a4e:	3401      	adds	r4, #1
    1a50:	b2e4      	uxtb	r4, r4
    1a52:	683b      	ldr	r3, [r7, #0]
    1a54:	78db      	ldrb	r3, [r3, #3]
    1a56:	42a3      	cmp	r3, r4
    1a58:	d8f6      	bhi.n	1a48 <M522PcdCmd+0xb8>
    1a5a:	464b      	mov	r3, r9
    1a5c:	2b0c      	cmp	r3, #12
    1a5e:	d105      	bne.n	1a6c <M522PcdCmd+0xdc>
    1a60:	200d      	movs	r0, #13
    1a62:	2101      	movs	r1, #1
    1a64:	2280      	movs	r2, #128	; 0x80
    1a66:	4b8b      	ldr	r3, [pc, #556]	; (1c94 <M522PcdCmd+0x304>)
    1a68:	4798      	blx	r3
    1a6a:	e0af      	b.n	1bcc <M522PcdCmd+0x23c>
    1a6c:	2001      	movs	r0, #1
    1a6e:	4b86      	ldr	r3, [pc, #536]	; (1c88 <M522PcdCmd+0x2f8>)
    1a70:	4798      	blx	r3
    1a72:	230f      	movs	r3, #15
    1a74:	1c01      	adds	r1, r0, #0
    1a76:	4399      	bics	r1, r3
    1a78:	464b      	mov	r3, r9
    1a7a:	4319      	orrs	r1, r3
    1a7c:	b2c9      	uxtb	r1, r1
    1a7e:	2001      	movs	r0, #1
    1a80:	4b80      	ldr	r3, [pc, #512]	; (1c84 <M522PcdCmd+0x2f4>)
    1a82:	4798      	blx	r3
    1a84:	e0a2      	b.n	1bcc <M522PcdCmd+0x23c>
    1a86:	2004      	movs	r0, #4
    1a88:	47b8      	blx	r7
    1a8a:	4681      	mov	r9, r0
    1a8c:	2005      	movs	r0, #5
    1a8e:	47b8      	blx	r7
    1a90:	3c01      	subs	r4, #1
    1a92:	2c00      	cmp	r4, #0
    1a94:	d002      	beq.n	1a9c <M522PcdCmd+0x10c>
    1a96:	464b      	mov	r3, r9
    1a98:	421d      	tst	r5, r3
    1a9a:	d0f4      	beq.n	1a86 <M522PcdCmd+0xf6>
    1a9c:	464b      	mov	r3, r9
    1a9e:	401d      	ands	r5, r3
    1aa0:	07db      	lsls	r3, r3, #31
    1aa2:	d500      	bpl.n	1aa6 <M522PcdCmd+0x116>
    1aa4:	e095      	b.n	1bd2 <M522PcdCmd+0x242>
    1aa6:	e0a0      	b.n	1bea <M522PcdCmd+0x25a>
    1aa8:	2002      	movs	r0, #2
    1aaa:	2100      	movs	r1, #0
    1aac:	2200      	movs	r2, #0
    1aae:	4c79      	ldr	r4, [pc, #484]	; (1c94 <M522PcdCmd+0x304>)
    1ab0:	47a0      	blx	r4
    1ab2:	2003      	movs	r0, #3
    1ab4:	2100      	movs	r1, #0
    1ab6:	2200      	movs	r2, #0
    1ab8:	47a0      	blx	r4
    1aba:	2542      	movs	r5, #66	; 0x42
    1abc:	2304      	movs	r3, #4
    1abe:	33ff      	adds	r3, #255	; 0xff
    1ac0:	9301      	str	r3, [sp, #4]
    1ac2:	e0c5      	b.n	1c50 <M522PcdCmd+0x2c0>
    1ac4:	4f71      	ldr	r7, [pc, #452]	; (1c8c <M522PcdCmd+0x2fc>)
    1ac6:	683b      	ldr	r3, [r7, #0]
    1ac8:	4698      	mov	r8, r3
    1aca:	200a      	movs	r0, #10
    1acc:	4c6e      	ldr	r4, [pc, #440]	; (1c88 <M522PcdCmd+0x2f8>)
    1ace:	47a0      	blx	r4
    1ad0:	4643      	mov	r3, r8
    1ad2:	7118      	strb	r0, [r3, #4]
    1ad4:	200c      	movs	r0, #12
    1ad6:	47a0      	blx	r4
    1ad8:	683b      	ldr	r3, [r7, #0]
    1ada:	2207      	movs	r2, #7
    1adc:	4010      	ands	r0, r2
    1ade:	80d8      	strh	r0, [r3, #6]
    1ae0:	2006      	movs	r0, #6
    1ae2:	47a0      	blx	r4
    1ae4:	1e04      	subs	r4, r0, #0
    1ae6:	d03c      	beq.n	1b62 <M522PcdCmd+0x1d2>
    1ae8:	2306      	movs	r3, #6
    1aea:	9301      	str	r3, [sp, #4]
    1aec:	0703      	lsls	r3, r0, #28
    1aee:	d405      	bmi.n	1afc <M522PcdCmd+0x16c>
    1af0:	2300      	movs	r3, #0
    1af2:	9301      	str	r3, [sp, #4]
    1af4:	0783      	lsls	r3, r0, #30
    1af6:	d501      	bpl.n	1afc <M522PcdCmd+0x16c>
    1af8:	2303      	movs	r3, #3
    1afa:	9301      	str	r3, [sp, #4]
    1afc:	07e3      	lsls	r3, r4, #31
    1afe:	d500      	bpl.n	1b02 <M522PcdCmd+0x172>
    1b00:	e098      	b.n	1c34 <M522PcdCmd+0x2a4>
    1b02:	06e3      	lsls	r3, r4, #27
    1b04:	d500      	bpl.n	1b08 <M522PcdCmd+0x178>
    1b06:	e098      	b.n	1c3a <M522PcdCmd+0x2aa>
    1b08:	0763      	lsls	r3, r4, #29
    1b0a:	d517      	bpl.n	1b3c <M522PcdCmd+0x1ac>
    1b0c:	4b5f      	ldr	r3, [pc, #380]	; (1c8c <M522PcdCmd+0x2fc>)
    1b0e:	681b      	ldr	r3, [r3, #0]
    1b10:	791a      	ldrb	r2, [r3, #4]
    1b12:	2102      	movs	r1, #2
    1b14:	9101      	str	r1, [sp, #4]
    1b16:	2a01      	cmp	r2, #1
    1b18:	d000      	beq.n	1b1c <M522PcdCmd+0x18c>
    1b1a:	e096      	b.n	1c4a <M522PcdCmd+0x2ba>
    1b1c:	88db      	ldrh	r3, [r3, #6]
    1b1e:	3203      	adds	r2, #3
    1b20:	4393      	bics	r3, r2
    1b22:	d000      	beq.n	1b26 <M522PcdCmd+0x196>
    1b24:	e08c      	b.n	1c40 <M522PcdCmd+0x2b0>
    1b26:	2009      	movs	r0, #9
    1b28:	4b57      	ldr	r3, [pc, #348]	; (1c88 <M522PcdCmd+0x2f8>)
    1b2a:	4798      	blx	r3
    1b2c:	7030      	strb	r0, [r6, #0]
    1b2e:	4b57      	ldr	r3, [pc, #348]	; (1c8c <M522PcdCmd+0x2fc>)
    1b30:	681b      	ldr	r3, [r3, #0]
    1b32:	2201      	movs	r2, #1
    1b34:	711a      	strb	r2, [r3, #4]
    1b36:	0623      	lsls	r3, r4, #24
    1b38:	d570      	bpl.n	1c1c <M522PcdCmd+0x28c>
    1b3a:	e065      	b.n	1c08 <M522PcdCmd+0x278>
    1b3c:	0663      	lsls	r3, r4, #25
    1b3e:	d500      	bpl.n	1b42 <M522PcdCmd+0x1b2>
    1b40:	e081      	b.n	1c46 <M522PcdCmd+0x2b6>
    1b42:	0623      	lsls	r3, r4, #24
    1b44:	d460      	bmi.n	1c08 <M522PcdCmd+0x278>
    1b46:	9b01      	ldr	r3, [sp, #4]
    1b48:	2b00      	cmp	r3, #0
    1b4a:	d060      	beq.n	1c0e <M522PcdCmd+0x27e>
    1b4c:	2006      	movs	r0, #6
    1b4e:	2100      	movs	r1, #0
    1b50:	4b4c      	ldr	r3, [pc, #304]	; (1c84 <M522PcdCmd+0x2f4>)
    1b52:	4798      	blx	r3
    1b54:	466b      	mov	r3, sp
    1b56:	2204      	movs	r2, #4
    1b58:	5e9b      	ldrsh	r3, [r3, r2]
    1b5a:	4a4f      	ldr	r2, [pc, #316]	; (1c98 <M522PcdCmd+0x308>)
    1b5c:	4293      	cmp	r3, r2
    1b5e:	d077      	beq.n	1c50 <M522PcdCmd+0x2c0>
    1b60:	e001      	b.n	1b66 <M522PcdCmd+0x1d6>
    1b62:	2300      	movs	r3, #0
    1b64:	9301      	str	r3, [sp, #4]
    1b66:	4b49      	ldr	r3, [pc, #292]	; (1c8c <M522PcdCmd+0x2fc>)
    1b68:	681b      	ldr	r3, [r3, #0]
    1b6a:	791b      	ldrb	r3, [r3, #4]
    1b6c:	2b00      	cmp	r3, #0
    1b6e:	d06f      	beq.n	1c50 <M522PcdCmd+0x2c0>
    1b70:	2400      	movs	r4, #0
    1b72:	4b45      	ldr	r3, [pc, #276]	; (1c88 <M522PcdCmd+0x2f8>)
    1b74:	4699      	mov	r9, r3
    1b76:	4b45      	ldr	r3, [pc, #276]	; (1c8c <M522PcdCmd+0x2fc>)
    1b78:	4698      	mov	r8, r3
    1b7a:	1937      	adds	r7, r6, r4
    1b7c:	2009      	movs	r0, #9
    1b7e:	47c8      	blx	r9
    1b80:	7038      	strb	r0, [r7, #0]
    1b82:	3401      	adds	r4, #1
    1b84:	b2e4      	uxtb	r4, r4
    1b86:	4643      	mov	r3, r8
    1b88:	681a      	ldr	r2, [r3, #0]
    1b8a:	7913      	ldrb	r3, [r2, #4]
    1b8c:	42a3      	cmp	r3, r4
    1b8e:	d8f4      	bhi.n	1b7a <M522PcdCmd+0x1ea>
    1b90:	88d1      	ldrh	r1, [r2, #6]
    1b92:	2900      	cmp	r1, #0
    1b94:	d05c      	beq.n	1c50 <M522PcdCmd+0x2c0>
    1b96:	2b00      	cmp	r3, #0
    1b98:	d05a      	beq.n	1c50 <M522PcdCmd+0x2c0>
    1b9a:	3b01      	subs	r3, #1
    1b9c:	7113      	strb	r3, [r2, #4]
    1b9e:	e057      	b.n	1c50 <M522PcdCmd+0x2c0>
    1ba0:	2300      	movs	r3, #0
    1ba2:	4698      	mov	r8, r3
    1ba4:	2540      	movs	r5, #64	; 0x40
    1ba6:	3341      	adds	r3, #65	; 0x41
    1ba8:	469a      	mov	sl, r3
    1baa:	e736      	b.n	1a1a <M522PcdCmd+0x8a>
    1bac:	2300      	movs	r3, #0
    1bae:	4698      	mov	r8, r3
    1bb0:	2513      	movs	r5, #19
    1bb2:	3313      	adds	r3, #19
    1bb4:	469a      	mov	sl, r3
    1bb6:	e730      	b.n	1a1a <M522PcdCmd+0x8a>
    1bb8:	2004      	movs	r0, #4
    1bba:	4c33      	ldr	r4, [pc, #204]	; (1c88 <M522PcdCmd+0x2f8>)
    1bbc:	47a0      	blx	r4
    1bbe:	4681      	mov	r9, r0
    1bc0:	2005      	movs	r0, #5
    1bc2:	47a0      	blx	r4
    1bc4:	2480      	movs	r4, #128	; 0x80
    1bc6:	0064      	lsls	r4, r4, #1
    1bc8:	4f2f      	ldr	r7, [pc, #188]	; (1c88 <M522PcdCmd+0x2f8>)
    1bca:	e764      	b.n	1a96 <M522PcdCmd+0x106>
    1bcc:	2d00      	cmp	r5, #0
    1bce:	d1f3      	bne.n	1bb8 <M522PcdCmd+0x228>
    1bd0:	e00b      	b.n	1bea <M522PcdCmd+0x25a>
    1bd2:	2002      	movs	r0, #2
    1bd4:	2100      	movs	r1, #0
    1bd6:	4652      	mov	r2, sl
    1bd8:	4c2e      	ldr	r4, [pc, #184]	; (1c94 <M522PcdCmd+0x304>)
    1bda:	47a0      	blx	r4
    1bdc:	2003      	movs	r0, #3
    1bde:	2100      	movs	r1, #0
    1be0:	2200      	movs	r2, #0
    1be2:	47a0      	blx	r4
    1be4:	2301      	movs	r3, #1
    1be6:	9301      	str	r3, [sp, #4]
    1be8:	e032      	b.n	1c50 <M522PcdCmd+0x2c0>
    1bea:	2002      	movs	r0, #2
    1bec:	2100      	movs	r1, #0
    1bee:	4652      	mov	r2, sl
    1bf0:	4c28      	ldr	r4, [pc, #160]	; (1c94 <M522PcdCmd+0x304>)
    1bf2:	47a0      	blx	r4
    1bf4:	2003      	movs	r0, #3
    1bf6:	2100      	movs	r1, #0
    1bf8:	2200      	movs	r2, #0
    1bfa:	47a0      	blx	r4
    1bfc:	4643      	mov	r3, r8
    1bfe:	2b00      	cmp	r3, #0
    1c00:	d000      	beq.n	1c04 <M522PcdCmd+0x274>
    1c02:	e75f      	b.n	1ac4 <M522PcdCmd+0x134>
    1c04:	9301      	str	r3, [sp, #4]
    1c06:	e023      	b.n	1c50 <M522PcdCmd+0x2c0>
    1c08:	230d      	movs	r3, #13
    1c0a:	9301      	str	r3, [sp, #4]
    1c0c:	e001      	b.n	1c12 <M522PcdCmd+0x282>
    1c0e:	230c      	movs	r3, #12
    1c10:	9301      	str	r3, [sp, #4]
    1c12:	2006      	movs	r0, #6
    1c14:	2100      	movs	r1, #0
    1c16:	4b1b      	ldr	r3, [pc, #108]	; (1c84 <M522PcdCmd+0x2f4>)
    1c18:	4798      	blx	r3
    1c1a:	e7a4      	b.n	1b66 <M522PcdCmd+0x1d6>
    1c1c:	2006      	movs	r0, #6
    1c1e:	2100      	movs	r1, #0
    1c20:	4b18      	ldr	r3, [pc, #96]	; (1c84 <M522PcdCmd+0x2f4>)
    1c22:	4798      	blx	r3
    1c24:	4b1c      	ldr	r3, [pc, #112]	; (1c98 <M522PcdCmd+0x308>)
    1c26:	9301      	str	r3, [sp, #4]
    1c28:	e012      	b.n	1c50 <M522PcdCmd+0x2c0>
    1c2a:	2006      	movs	r0, #6
    1c2c:	2100      	movs	r1, #0
    1c2e:	4b15      	ldr	r3, [pc, #84]	; (1c84 <M522PcdCmd+0x2f4>)
    1c30:	4798      	blx	r3
    1c32:	e798      	b.n	1b66 <M522PcdCmd+0x1d6>
    1c34:	230b      	movs	r3, #11
    1c36:	9301      	str	r3, [sp, #4]
    1c38:	e007      	b.n	1c4a <M522PcdCmd+0x2ba>
    1c3a:	2309      	movs	r3, #9
    1c3c:	9301      	str	r3, [sp, #4]
    1c3e:	e004      	b.n	1c4a <M522PcdCmd+0x2ba>
    1c40:	2302      	movs	r3, #2
    1c42:	9301      	str	r3, [sp, #4]
    1c44:	e001      	b.n	1c4a <M522PcdCmd+0x2ba>
    1c46:	4b15      	ldr	r3, [pc, #84]	; (1c9c <M522PcdCmd+0x30c>)
    1c48:	9301      	str	r3, [sp, #4]
    1c4a:	0623      	lsls	r3, r4, #24
    1c4c:	d5ed      	bpl.n	1c2a <M522PcdCmd+0x29a>
    1c4e:	e7db      	b.n	1c08 <M522PcdCmd+0x278>
    1c50:	2004      	movs	r0, #4
    1c52:	1c29      	adds	r1, r5, #0
    1c54:	4c0b      	ldr	r4, [pc, #44]	; (1c84 <M522PcdCmd+0x2f4>)
    1c56:	47a0      	blx	r4
    1c58:	2005      	movs	r0, #5
    1c5a:	2100      	movs	r1, #0
    1c5c:	47a0      	blx	r4
    1c5e:	200a      	movs	r0, #10
    1c60:	2180      	movs	r1, #128	; 0x80
    1c62:	47a0      	blx	r4
    1c64:	2004      	movs	r0, #4
    1c66:	2101      	movs	r1, #1
    1c68:	47a0      	blx	r4
    1c6a:	200d      	movs	r0, #13
    1c6c:	2100      	movs	r1, #0
    1c6e:	47a0      	blx	r4
    1c70:	466b      	mov	r3, sp
    1c72:	2004      	movs	r0, #4
    1c74:	5e18      	ldrsh	r0, [r3, r0]
    1c76:	b003      	add	sp, #12
    1c78:	bc3c      	pop	{r2, r3, r4, r5}
    1c7a:	4690      	mov	r8, r2
    1c7c:	4699      	mov	r9, r3
    1c7e:	46a2      	mov	sl, r4
    1c80:	46ab      	mov	fp, r5
    1c82:	bdf0      	pop	{r4, r5, r6, r7, pc}
    1c84:	0000210d 	.word	0x0000210d
    1c88:	0000213d 	.word	0x0000213d
    1c8c:	200000ac 	.word	0x200000ac
    1c90:	00003e34 	.word	0x00003e34
    1c94:	0000218d 	.word	0x0000218d
    1c98:	00000202 	.word	0x00000202
    1c9c:	00007e04 	.word	0x00007e04

00001ca0 <SetTimeOut>:
    1ca0:	b538      	push	{r3, r4, r5, lr}
    1ca2:	2164      	movs	r1, #100	; 0x64
    1ca4:	4b12      	ldr	r3, [pc, #72]	; (1cf0 <SetTimeOut+0x50>)
    1ca6:	4798      	blx	r3
    1ca8:	1e04      	subs	r4, r0, #0
    1caa:	4b12      	ldr	r3, [pc, #72]	; (1cf4 <SetTimeOut+0x54>)
    1cac:	429c      	cmp	r4, r3
    1cae:	d81b      	bhi.n	1ce8 <SetTimeOut+0x48>
    1cb0:	202a      	movs	r0, #42	; 0x2a
    1cb2:	2101      	movs	r1, #1
    1cb4:	2280      	movs	r2, #128	; 0x80
    1cb6:	4b10      	ldr	r3, [pc, #64]	; (1cf8 <SetTimeOut+0x58>)
    1cb8:	4798      	blx	r3
    1cba:	202b      	movs	r0, #43	; 0x2b
    1cbc:	21a6      	movs	r1, #166	; 0xa6
    1cbe:	4d0f      	ldr	r5, [pc, #60]	; (1cfc <SetTimeOut+0x5c>)
    1cc0:	47a8      	blx	r5
    1cc2:	202a      	movs	r0, #42	; 0x2a
    1cc4:	4b0e      	ldr	r3, [pc, #56]	; (1d00 <SetTimeOut+0x60>)
    1cc6:	4798      	blx	r3
    1cc8:	23f0      	movs	r3, #240	; 0xf0
    1cca:	1c01      	adds	r1, r0, #0
    1ccc:	4019      	ands	r1, r3
    1cce:	3bee      	subs	r3, #238	; 0xee
    1cd0:	4319      	orrs	r1, r3
    1cd2:	202a      	movs	r0, #42	; 0x2a
    1cd4:	47a8      	blx	r5
    1cd6:	b2e1      	uxtb	r1, r4
    1cd8:	202d      	movs	r0, #45	; 0x2d
    1cda:	47a8      	blx	r5
    1cdc:	0a24      	lsrs	r4, r4, #8
    1cde:	b2e1      	uxtb	r1, r4
    1ce0:	202c      	movs	r0, #44	; 0x2c
    1ce2:	47a8      	blx	r5
    1ce4:	2000      	movs	r0, #0
    1ce6:	e001      	b.n	1cec <SetTimeOut+0x4c>
    1ce8:	2002      	movs	r0, #2
    1cea:	30ff      	adds	r0, #255	; 0xff
    1cec:	b200      	sxth	r0, r0
    1cee:	bd38      	pop	{r3, r4, r5, pc}
    1cf0:	000034d5 	.word	0x000034d5
    1cf4:	00000ffe 	.word	0x00000ffe
    1cf8:	0000218d 	.word	0x0000218d
    1cfc:	0000210d 	.word	0x0000210d
    1d00:	0000213d 	.word	0x0000213d

00001d04 <Rc522Init>:
    1d04:	b5f0      	push	{r4, r5, r6, r7, lr}
    1d06:	4647      	mov	r7, r8
    1d08:	b480      	push	{r7}
    1d0a:	2001      	movs	r0, #1
    1d0c:	210f      	movs	r1, #15
    1d0e:	4c30      	ldr	r4, [pc, #192]	; (1dd0 <Rc522Init+0xcc>)
    1d10:	47a0      	blx	r4
    1d12:	2015      	movs	r0, #21
    1d14:	2140      	movs	r1, #64	; 0x40
    1d16:	47a0      	blx	r4
    1d18:	202c      	movs	r0, #44	; 0x2c
    1d1a:	21aa      	movs	r1, #170	; 0xaa
    1d1c:	47a0      	blx	r4
    1d1e:	202c      	movs	r0, #44	; 0x2c
    1d20:	4b2c      	ldr	r3, [pc, #176]	; (1dd4 <Rc522Init+0xd0>)
    1d22:	4698      	mov	r8, r3
    1d24:	4798      	blx	r3
    1d26:	2008      	movs	r0, #8
    1d28:	2100      	movs	r1, #0
    1d2a:	2208      	movs	r2, #8
    1d2c:	4d2a      	ldr	r5, [pc, #168]	; (1dd8 <Rc522Init+0xd4>)
    1d2e:	47a8      	blx	r5
    1d30:	2012      	movs	r0, #18
    1d32:	47c0      	blx	r8
    1d34:	2708      	movs	r7, #8
    1d36:	1c01      	adds	r1, r0, #0
    1d38:	4039      	ands	r1, r7
    1d3a:	2680      	movs	r6, #128	; 0x80
    1d3c:	4276      	negs	r6, r6
    1d3e:	4331      	orrs	r1, r6
    1d40:	b2c9      	uxtb	r1, r1
    1d42:	2012      	movs	r0, #18
    1d44:	47a0      	blx	r4
    1d46:	2013      	movs	r0, #19
    1d48:	47c0      	blx	r8
    1d4a:	1c39      	adds	r1, r7, #0
    1d4c:	4001      	ands	r1, r0
    1d4e:	4331      	orrs	r1, r6
    1d50:	b2c9      	uxtb	r1, r1
    1d52:	2013      	movs	r0, #19
    1d54:	47a0      	blx	r4
    1d56:	2019      	movs	r0, #25
    1d58:	216d      	movs	r1, #109	; 0x6d
    1d5a:	47a0      	blx	r4
    1d5c:	2026      	movs	r0, #38	; 0x26
    1d5e:	2148      	movs	r1, #72	; 0x48
    1d60:	47a0      	blx	r4
    1d62:	2018      	movs	r0, #24
    1d64:	2155      	movs	r1, #85	; 0x55
    1d66:	47a0      	blx	r4
    1d68:	2024      	movs	r0, #36	; 0x24
    1d6a:	2126      	movs	r1, #38	; 0x26
    1d6c:	47a0      	blx	r4
    1d6e:	2027      	movs	r0, #39	; 0x27
    1d70:	21f4      	movs	r1, #244	; 0xf4
    1d72:	47a0      	blx	r4
    1d74:	4819      	ldr	r0, [pc, #100]	; (1ddc <Rc522Init+0xd8>)
    1d76:	4b1a      	ldr	r3, [pc, #104]	; (1de0 <Rc522Init+0xdc>)
    1d78:	4798      	blx	r3
    1d7a:	2014      	movs	r0, #20
    1d7c:	2101      	movs	r1, #1
    1d7e:	2203      	movs	r2, #3
    1d80:	47a8      	blx	r5
    1d82:	200c      	movs	r0, #12
    1d84:	2101      	movs	r1, #1
    1d86:	2240      	movs	r2, #64	; 0x40
    1d88:	47a8      	blx	r5
    1d8a:	4d12      	ldr	r5, [pc, #72]	; (1dd4 <Rc522Init+0xd0>)
    1d8c:	2401      	movs	r4, #1
    1d8e:	2004      	movs	r0, #4
    1d90:	47a8      	blx	r5
    1d92:	4204      	tst	r4, r0
    1d94:	d0fb      	beq.n	1d8e <Rc522Init+0x8a>
    1d96:	2004      	movs	r0, #4
    1d98:	2101      	movs	r1, #1
    1d9a:	4c0d      	ldr	r4, [pc, #52]	; (1dd0 <Rc522Init+0xcc>)
    1d9c:	47a0      	blx	r4
    1d9e:	480f      	ldr	r0, [pc, #60]	; (1ddc <Rc522Init+0xd8>)
    1da0:	4d0f      	ldr	r5, [pc, #60]	; (1de0 <Rc522Init+0xdc>)
    1da2:	47a8      	blx	r5
    1da4:	200b      	movs	r0, #11
    1da6:	211a      	movs	r1, #26
    1da8:	47a0      	blx	r4
    1daa:	2016      	movs	r0, #22
    1dac:	2110      	movs	r1, #16
    1dae:	47a0      	blx	r4
    1db0:	2017      	movs	r0, #23
    1db2:	2187      	movs	r1, #135	; 0x87
    1db4:	47a0      	blx	r4
    1db6:	2001      	movs	r0, #1
    1db8:	2100      	movs	r1, #0
    1dba:	47a0      	blx	r4
    1dbc:	20fa      	movs	r0, #250	; 0xfa
    1dbe:	00c0      	lsls	r0, r0, #3
    1dc0:	47a8      	blx	r5
    1dc2:	2038      	movs	r0, #56	; 0x38
    1dc4:	21cd      	movs	r1, #205	; 0xcd
    1dc6:	47a0      	blx	r4
    1dc8:	bc04      	pop	{r2}
    1dca:	4690      	mov	r8, r2
    1dcc:	bdf0      	pop	{r4, r5, r6, r7, pc}
    1dce:	46c0      	nop			; (mov r8, r8)
    1dd0:	0000210d 	.word	0x0000210d
    1dd4:	0000213d 	.word	0x0000213d
    1dd8:	0000218d 	.word	0x0000218d
    1ddc:	00001388 	.word	0x00001388
    1de0:	00001ca1 	.word	0x00001ca1

00001de4 <Rc522RFReset>:
    1de4:	b510      	push	{r4, lr}
    1de6:	1c04      	adds	r4, r0, #0
    1de8:	2001      	movs	r0, #1
    1dea:	210f      	movs	r1, #15
    1dec:	4b03      	ldr	r3, [pc, #12]	; (1dfc <Rc522RFReset+0x18>)
    1dee:	4798      	blx	r3
    1df0:	1c20      	adds	r0, r4, #0
    1df2:	4b03      	ldr	r3, [pc, #12]	; (1e00 <Rc522RFReset+0x1c>)
    1df4:	4798      	blx	r3
    1df6:	4b03      	ldr	r3, [pc, #12]	; (1e04 <Rc522RFReset+0x20>)
    1df8:	4798      	blx	r3
    1dfa:	bd10      	pop	{r4, pc}
    1dfc:	0000210d 	.word	0x0000210d
    1e00:	00000369 	.word	0x00000369
    1e04:	00001d05 	.word	0x00001d05

00001e08 <Request>:
    1e08:	b5f8      	push	{r3, r4, r5, r6, r7, lr}
    1e0a:	1c07      	adds	r7, r0, #0
    1e0c:	1c0d      	adds	r5, r1, #0
    1e0e:	2008      	movs	r0, #8
    1e10:	2100      	movs	r1, #0
    1e12:	2208      	movs	r2, #8
    1e14:	4c20      	ldr	r4, [pc, #128]	; (1e98 <Request+0x90>)
    1e16:	47a0      	blx	r4
    1e18:	200e      	movs	r0, #14
    1e1a:	2180      	movs	r1, #128	; 0x80
    1e1c:	4e1f      	ldr	r6, [pc, #124]	; (1e9c <Request+0x94>)
    1e1e:	47b0      	blx	r6
    1e20:	2012      	movs	r0, #18
    1e22:	2100      	movs	r1, #0
    1e24:	2280      	movs	r2, #128	; 0x80
    1e26:	47a0      	blx	r4
    1e28:	2013      	movs	r0, #19
    1e2a:	2100      	movs	r1, #0
    1e2c:	2280      	movs	r2, #128	; 0x80
    1e2e:	47a0      	blx	r4
    1e30:	200d      	movs	r0, #13
    1e32:	2107      	movs	r1, #7
    1e34:	47b0      	blx	r6
    1e36:	4c1a      	ldr	r4, [pc, #104]	; (1ea0 <Request+0x98>)
    1e38:	2300      	movs	r3, #0
    1e3a:	7023      	strb	r3, [r4, #0]
    1e3c:	7063      	strb	r3, [r4, #1]
    1e3e:	70a3      	strb	r3, [r4, #2]
    1e40:	7123      	strb	r3, [r4, #4]
    1e42:	80e3      	strh	r3, [r4, #6]
    1e44:	7223      	strb	r3, [r4, #8]
    1e46:	4e17      	ldr	r6, [pc, #92]	; (1ea4 <Request+0x9c>)
    1e48:	7037      	strb	r7, [r6, #0]
    1e4a:	2301      	movs	r3, #1
    1e4c:	70e3      	strb	r3, [r4, #3]
    1e4e:	20c8      	movs	r0, #200	; 0xc8
    1e50:	0040      	lsls	r0, r0, #1
    1e52:	4b15      	ldr	r3, [pc, #84]	; (1ea8 <Request+0xa0>)
    1e54:	4798      	blx	r3
    1e56:	200c      	movs	r0, #12
    1e58:	1c31      	adds	r1, r6, #0
    1e5a:	1c22      	adds	r2, r4, #0
    1e5c:	4b13      	ldr	r3, [pc, #76]	; (1eac <Request+0xa4>)
    1e5e:	4798      	blx	r3
    1e60:	b2c4      	uxtb	r4, r0
    1e62:	2c00      	cmp	r4, #0
    1e64:	d001      	beq.n	1e6a <Request+0x62>
    1e66:	2c06      	cmp	r4, #6
    1e68:	d10d      	bne.n	1e86 <Request+0x7e>
    1e6a:	4b0d      	ldr	r3, [pc, #52]	; (1ea0 <Request+0x98>)
    1e6c:	791b      	ldrb	r3, [r3, #4]
    1e6e:	2b02      	cmp	r3, #2
    1e70:	d10d      	bne.n	1e8e <Request+0x86>
    1e72:	4b0b      	ldr	r3, [pc, #44]	; (1ea0 <Request+0x98>)
    1e74:	88db      	ldrh	r3, [r3, #6]
    1e76:	2b00      	cmp	r3, #0
    1e78:	d10b      	bne.n	1e92 <Request+0x8a>
    1e7a:	1c28      	adds	r0, r5, #0
    1e7c:	4909      	ldr	r1, [pc, #36]	; (1ea4 <Request+0x9c>)
    1e7e:	2202      	movs	r2, #2
    1e80:	4b0b      	ldr	r3, [pc, #44]	; (1eb0 <Request+0xa8>)
    1e82:	4798      	blx	r3
    1e84:	e006      	b.n	1e94 <Request+0x8c>
    1e86:	2300      	movs	r3, #0
    1e88:	702b      	strb	r3, [r5, #0]
    1e8a:	706b      	strb	r3, [r5, #1]
    1e8c:	e002      	b.n	1e94 <Request+0x8c>
    1e8e:	240b      	movs	r4, #11
    1e90:	e000      	b.n	1e94 <Request+0x8c>
    1e92:	240b      	movs	r4, #11
    1e94:	b220      	sxth	r0, r4
    1e96:	bdf8      	pop	{r3, r4, r5, r6, r7, pc}
    1e98:	0000218d 	.word	0x0000218d
    1e9c:	0000210d 	.word	0x0000210d
    1ea0:	20000988 	.word	0x20000988
    1ea4:	20000948 	.word	0x20000948
    1ea8:	00001ca1 	.word	0x00001ca1
    1eac:	00001991 	.word	0x00001991
    1eb0:	00003cc1 	.word	0x00003cc1

00001eb4 <CascAnticoll>:
    1eb4:	b5f0      	push	{r4, r5, r6, r7, lr}
    1eb6:	465f      	mov	r7, fp
    1eb8:	4656      	mov	r6, sl
    1eba:	464d      	mov	r5, r9
    1ebc:	4644      	mov	r4, r8
    1ebe:	b4f0      	push	{r4, r5, r6, r7}
    1ec0:	b083      	sub	sp, #12
    1ec2:	4683      	mov	fp, r0
    1ec4:	1c0d      	adds	r5, r1, #0
    1ec6:	1c17      	adds	r7, r2, #0
    1ec8:	4b5e      	ldr	r3, [pc, #376]	; (2044 <CascAnticoll+0x190>)
    1eca:	2200      	movs	r2, #0
    1ecc:	709a      	strb	r2, [r3, #2]
    1ece:	70da      	strb	r2, [r3, #3]
    1ed0:	711a      	strb	r2, [r3, #4]
    1ed2:	715a      	strb	r2, [r3, #5]
    1ed4:	719a      	strb	r2, [r3, #6]
    1ed6:	2012      	movs	r0, #18
    1ed8:	2100      	movs	r1, #0
    1eda:	3280      	adds	r2, #128	; 0x80
    1edc:	4c5a      	ldr	r4, [pc, #360]	; (2048 <CascAnticoll+0x194>)
    1ede:	47a0      	blx	r4
    1ee0:	2013      	movs	r0, #19
    1ee2:	2100      	movs	r1, #0
    1ee4:	2280      	movs	r2, #128	; 0x80
    1ee6:	47a0      	blx	r4
    1ee8:	200e      	movs	r0, #14
    1eea:	2100      	movs	r1, #0
    1eec:	4b57      	ldr	r3, [pc, #348]	; (204c <CascAnticoll+0x198>)
    1eee:	4798      	blx	r3
    1ef0:	4b54      	ldr	r3, [pc, #336]	; (2044 <CascAnticoll+0x190>)
    1ef2:	4698      	mov	r8, r3
    1ef4:	4b56      	ldr	r3, [pc, #344]	; (2050 <CascAnticoll+0x19c>)
    1ef6:	3b02      	subs	r3, #2
    1ef8:	4699      	mov	r9, r3
    1efa:	465b      	mov	r3, fp
    1efc:	9301      	str	r3, [sp, #4]
    1efe:	e087      	b.n	2010 <CascAnticoll+0x15c>
    1f00:	2407      	movs	r4, #7
    1f02:	402c      	ands	r4, r5
    1f04:	08eb      	lsrs	r3, r5, #3
    1f06:	1c22      	adds	r2, r4, #0
    1f08:	1e51      	subs	r1, r2, #1
    1f0a:	418a      	sbcs	r2, r1
    1f0c:	4692      	mov	sl, r2
    1f0e:	449a      	add	sl, r3
    1f10:	4642      	mov	r2, r8
    1f12:	4669      	mov	r1, sp
    1f14:	7909      	ldrb	r1, [r1, #4]
    1f16:	7011      	strb	r1, [r2, #0]
    1f18:	1c22      	adds	r2, r4, #0
    1f1a:	3220      	adds	r2, #32
    1f1c:	011b      	lsls	r3, r3, #4
    1f1e:	18d3      	adds	r3, r2, r3
    1f20:	4642      	mov	r2, r8
    1f22:	7053      	strb	r3, [r2, #1]
    1f24:	4653      	mov	r3, sl
    1f26:	2b00      	cmp	r3, #0
    1f28:	d00c      	beq.n	1f44 <CascAnticoll+0x90>
    1f2a:	1c3a      	adds	r2, r7, #0
    1f2c:	4b48      	ldr	r3, [pc, #288]	; (2050 <CascAnticoll+0x19c>)
    1f2e:	4651      	mov	r1, sl
    1f30:	1e48      	subs	r0, r1, #1
    1f32:	b2c0      	uxtb	r0, r0
    1f34:	3003      	adds	r0, #3
    1f36:	4448      	add	r0, r9
    1f38:	7811      	ldrb	r1, [r2, #0]
    1f3a:	7019      	strb	r1, [r3, #0]
    1f3c:	3201      	adds	r2, #1
    1f3e:	3301      	adds	r3, #1
    1f40:	4283      	cmp	r3, r0
    1f42:	d1f9      	bne.n	1f38 <CascAnticoll+0x84>
    1f44:	0121      	lsls	r1, r4, #4
    1f46:	4321      	orrs	r1, r4
    1f48:	200d      	movs	r0, #13
    1f4a:	4b40      	ldr	r3, [pc, #256]	; (204c <CascAnticoll+0x198>)
    1f4c:	4798      	blx	r3
    1f4e:	4e41      	ldr	r6, [pc, #260]	; (2054 <CascAnticoll+0x1a0>)
    1f50:	2300      	movs	r3, #0
    1f52:	7033      	strb	r3, [r6, #0]
    1f54:	7073      	strb	r3, [r6, #1]
    1f56:	70b3      	strb	r3, [r6, #2]
    1f58:	7133      	strb	r3, [r6, #4]
    1f5a:	80f3      	strh	r3, [r6, #6]
    1f5c:	7233      	strb	r3, [r6, #8]
    1f5e:	4653      	mov	r3, sl
    1f60:	3302      	adds	r3, #2
    1f62:	70f3      	strb	r3, [r6, #3]
    1f64:	483c      	ldr	r0, [pc, #240]	; (2058 <CascAnticoll+0x1a4>)
    1f66:	4b3d      	ldr	r3, [pc, #244]	; (205c <CascAnticoll+0x1a8>)
    1f68:	4798      	blx	r3
    1f6a:	200c      	movs	r0, #12
    1f6c:	4935      	ldr	r1, [pc, #212]	; (2044 <CascAnticoll+0x190>)
    1f6e:	1c32      	adds	r2, r6, #0
    1f70:	4b3b      	ldr	r3, [pc, #236]	; (2060 <CascAnticoll+0x1ac>)
    1f72:	4798      	blx	r3
    1f74:	2806      	cmp	r0, #6
    1f76:	d001      	beq.n	1f7c <CascAnticoll+0xc8>
    1f78:	2800      	cmp	r0, #0
    1f7a:	d14f      	bne.n	201c <CascAnticoll+0x168>
    1f7c:	4b35      	ldr	r3, [pc, #212]	; (2054 <CascAnticoll+0x1a0>)
    1f7e:	88d9      	ldrh	r1, [r3, #6]
    1f80:	791a      	ldrb	r2, [r3, #4]
    1f82:	00d3      	lsls	r3, r2, #3
    1f84:	185b      	adds	r3, r3, r1
    1f86:	1b1b      	subs	r3, r3, r4
    1f88:	b2db      	uxtb	r3, r3
    1f8a:	469c      	mov	ip, r3
    1f8c:	195b      	adds	r3, r3, r5
    1f8e:	2b28      	cmp	r3, #40	; 0x28
    1f90:	dc46      	bgt.n	2020 <CascAnticoll+0x16c>
    1f92:	2900      	cmp	r1, #0
    1f94:	d002      	beq.n	1f9c <CascAnticoll+0xe8>
    1f96:	3201      	adds	r2, #1
    1f98:	4b2e      	ldr	r3, [pc, #184]	; (2054 <CascAnticoll+0x1a0>)
    1f9a:	711a      	strb	r2, [r3, #4]
    1f9c:	2600      	movs	r6, #0
    1f9e:	2c00      	cmp	r4, #0
    1fa0:	d008      	beq.n	1fb4 <CascAnticoll+0x100>
    1fa2:	4653      	mov	r3, sl
    1fa4:	3b01      	subs	r3, #1
    1fa6:	18fb      	adds	r3, r7, r3
    1fa8:	7819      	ldrb	r1, [r3, #0]
    1faa:	4a26      	ldr	r2, [pc, #152]	; (2044 <CascAnticoll+0x190>)
    1fac:	7812      	ldrb	r2, [r2, #0]
    1fae:	430a      	orrs	r2, r1
    1fb0:	701a      	strb	r2, [r3, #0]
    1fb2:	3601      	adds	r6, #1
    1fb4:	46d3      	mov	fp, sl
    1fb6:	2404      	movs	r4, #4
    1fb8:	4653      	mov	r3, sl
    1fba:	1ae4      	subs	r4, r4, r3
    1fbc:	2c00      	cmp	r4, #0
    1fbe:	dd11      	ble.n	1fe4 <CascAnticoll+0x130>
    1fc0:	2200      	movs	r2, #0
    1fc2:	2300      	movs	r3, #0
    1fc4:	491f      	ldr	r1, [pc, #124]	; (2044 <CascAnticoll+0x190>)
    1fc6:	468a      	mov	sl, r1
    1fc8:	4659      	mov	r1, fp
    1fca:	4683      	mov	fp, r0
    1fcc:	4650      	mov	r0, sl
    1fce:	1980      	adds	r0, r0, r6
    1fd0:	5c80      	ldrb	r0, [r0, r2]
    1fd2:	18ba      	adds	r2, r7, r2
    1fd4:	5450      	strb	r0, [r2, r1]
    1fd6:	3301      	adds	r3, #1
    1fd8:	b2db      	uxtb	r3, r3
    1fda:	1e1a      	subs	r2, r3, #0
    1fdc:	42a2      	cmp	r2, r4
    1fde:	dbf5      	blt.n	1fcc <CascAnticoll+0x118>
    1fe0:	4658      	mov	r0, fp
    1fe2:	e000      	b.n	1fe6 <CascAnticoll+0x132>
    1fe4:	2200      	movs	r2, #0
    1fe6:	2806      	cmp	r0, #6
    1fe8:	d102      	bne.n	1ff0 <CascAnticoll+0x13c>
    1fea:	4465      	add	r5, ip
    1fec:	b2ed      	uxtb	r5, r5
    1fee:	e00f      	b.n	2010 <CascAnticoll+0x15c>
    1ff0:	46b4      	mov	ip, r6
    1ff2:	1c06      	adds	r6, r0, #0
    1ff4:	7878      	ldrb	r0, [r7, #1]
    1ff6:	783b      	ldrb	r3, [r7, #0]
    1ff8:	4058      	eors	r0, r3
    1ffa:	78bb      	ldrb	r3, [r7, #2]
    1ffc:	4058      	eors	r0, r3
    1ffe:	78f9      	ldrb	r1, [r7, #3]
    2000:	4b10      	ldr	r3, [pc, #64]	; (2044 <CascAnticoll+0x190>)
    2002:	4463      	add	r3, ip
    2004:	5c9a      	ldrb	r2, [r3, r2]
    2006:	1c03      	adds	r3, r0, #0
    2008:	404b      	eors	r3, r1
    200a:	429a      	cmp	r2, r3
    200c:	d10a      	bne.n	2024 <CascAnticoll+0x170>
    200e:	e00a      	b.n	2026 <CascAnticoll+0x172>
    2010:	2d20      	cmp	r5, #32
    2012:	d800      	bhi.n	2016 <CascAnticoll+0x162>
    2014:	e774      	b.n	1f00 <CascAnticoll+0x4c>
    2016:	2602      	movs	r6, #2
    2018:	36ff      	adds	r6, #255	; 0xff
    201a:	e004      	b.n	2026 <CascAnticoll+0x172>
    201c:	1c06      	adds	r6, r0, #0
    201e:	e002      	b.n	2026 <CascAnticoll+0x172>
    2020:	2604      	movs	r6, #4
    2022:	e000      	b.n	2026 <CascAnticoll+0x172>
    2024:	4e0f      	ldr	r6, [pc, #60]	; (2064 <CascAnticoll+0x1b0>)
    2026:	200d      	movs	r0, #13
    2028:	2100      	movs	r1, #0
    202a:	4c08      	ldr	r4, [pc, #32]	; (204c <CascAnticoll+0x198>)
    202c:	47a0      	blx	r4
    202e:	200e      	movs	r0, #14
    2030:	2180      	movs	r1, #128	; 0x80
    2032:	47a0      	blx	r4
    2034:	b230      	sxth	r0, r6
    2036:	b003      	add	sp, #12
    2038:	bc3c      	pop	{r2, r3, r4, r5}
    203a:	4690      	mov	r8, r2
    203c:	4699      	mov	r9, r3
    203e:	46a2      	mov	sl, r4
    2040:	46ab      	mov	fp, r5
    2042:	bdf0      	pop	{r4, r5, r6, r7, pc}
    2044:	20000948 	.word	0x20000948
    2048:	0000218d 	.word	0x0000218d
    204c:	0000210d 	.word	0x0000210d
    2050:	2000094a 	.word	0x2000094a
    2054:	20000988 	.word	0x20000988
    2058:	00002710 	.word	0x00002710
    205c:	00001ca1 	.word	0x00001ca1
    2060:	00001991 	.word	0x00001991
    2064:	00000501 	.word	0x00000501

00002068 <Select>:
    2068:	b5f8      	push	{r3, r4, r5, r6, r7, lr}
    206a:	1c07      	adds	r7, r0, #0
    206c:	1c0c      	adds	r4, r1, #0
    206e:	1c15      	adds	r5, r2, #0
    2070:	2012      	movs	r0, #18
    2072:	2101      	movs	r1, #1
    2074:	2280      	movs	r2, #128	; 0x80
    2076:	4e20      	ldr	r6, [pc, #128]	; (20f8 <Select+0x90>)
    2078:	47b0      	blx	r6
    207a:	2013      	movs	r0, #19
    207c:	2101      	movs	r1, #1
    207e:	2280      	movs	r2, #128	; 0x80
    2080:	47b0      	blx	r6
    2082:	4b1e      	ldr	r3, [pc, #120]	; (20fc <Select+0x94>)
    2084:	701f      	strb	r7, [r3, #0]
    2086:	2270      	movs	r2, #112	; 0x70
    2088:	705a      	strb	r2, [r3, #1]
    208a:	2300      	movs	r3, #0
    208c:	481b      	ldr	r0, [pc, #108]	; (20fc <Select+0x94>)
    208e:	5ce1      	ldrb	r1, [r4, r3]
    2090:	181a      	adds	r2, r3, r0
    2092:	7091      	strb	r1, [r2, #2]
    2094:	3301      	adds	r3, #1
    2096:	2b04      	cmp	r3, #4
    2098:	d1f9      	bne.n	208e <Select+0x26>
    209a:	4e18      	ldr	r6, [pc, #96]	; (20fc <Select+0x94>)
    209c:	7862      	ldrb	r2, [r4, #1]
    209e:	7823      	ldrb	r3, [r4, #0]
    20a0:	4053      	eors	r3, r2
    20a2:	78a2      	ldrb	r2, [r4, #2]
    20a4:	4053      	eors	r3, r2
    20a6:	78e2      	ldrb	r2, [r4, #3]
    20a8:	4053      	eors	r3, r2
    20aa:	71b3      	strb	r3, [r6, #6]
    20ac:	4c14      	ldr	r4, [pc, #80]	; (2100 <Select+0x98>)
    20ae:	2300      	movs	r3, #0
    20b0:	7023      	strb	r3, [r4, #0]
    20b2:	7063      	strb	r3, [r4, #1]
    20b4:	70a3      	strb	r3, [r4, #2]
    20b6:	7123      	strb	r3, [r4, #4]
    20b8:	80e3      	strh	r3, [r4, #6]
    20ba:	7223      	strb	r3, [r4, #8]
    20bc:	2307      	movs	r3, #7
    20be:	70e3      	strb	r3, [r4, #3]
    20c0:	20fa      	movs	r0, #250	; 0xfa
    20c2:	00c0      	lsls	r0, r0, #3
    20c4:	4b0f      	ldr	r3, [pc, #60]	; (2104 <Select+0x9c>)
    20c6:	4798      	blx	r3
    20c8:	200c      	movs	r0, #12
    20ca:	1c31      	adds	r1, r6, #0
    20cc:	1c22      	adds	r2, r4, #0
    20ce:	4b0e      	ldr	r3, [pc, #56]	; (2108 <Select+0xa0>)
    20d0:	4798      	blx	r3
    20d2:	2800      	cmp	r0, #0
    20d4:	d10e      	bne.n	20f4 <Select+0x8c>
    20d6:	4b0a      	ldr	r3, [pc, #40]	; (2100 <Select+0x98>)
    20d8:	791b      	ldrb	r3, [r3, #4]
    20da:	2b01      	cmp	r3, #1
    20dc:	d107      	bne.n	20ee <Select+0x86>
    20de:	4b08      	ldr	r3, [pc, #32]	; (2100 <Select+0x98>)
    20e0:	88db      	ldrh	r3, [r3, #6]
    20e2:	2b00      	cmp	r3, #0
    20e4:	d105      	bne.n	20f2 <Select+0x8a>
    20e6:	4b05      	ldr	r3, [pc, #20]	; (20fc <Select+0x94>)
    20e8:	781b      	ldrb	r3, [r3, #0]
    20ea:	702b      	strb	r3, [r5, #0]
    20ec:	e002      	b.n	20f4 <Select+0x8c>
    20ee:	2004      	movs	r0, #4
    20f0:	e000      	b.n	20f4 <Select+0x8c>
    20f2:	2004      	movs	r0, #4
    20f4:	b200      	sxth	r0, r0
    20f6:	bdf8      	pop	{r3, r4, r5, r6, r7, pc}
    20f8:	0000218d 	.word	0x0000218d
    20fc:	20000948 	.word	0x20000948
    2100:	20000988 	.word	0x20000988
    2104:	00001ca1 	.word	0x00001ca1
    2108:	00001991 	.word	0x00001991

0000210c <RcSetReg>:
    210c:	b500      	push	{lr}
    210e:	b085      	sub	sp, #20
    2110:	466b      	mov	r3, sp
    2112:	7018      	strb	r0, [r3, #0]
    2114:	7059      	strb	r1, [r3, #1]
    2116:	a901      	add	r1, sp, #4
    2118:	2328      	movs	r3, #40	; 0x28
    211a:	800b      	strh	r3, [r1, #0]
    211c:	466b      	mov	r3, sp
    211e:	604b      	str	r3, [r1, #4]
    2120:	2302      	movs	r3, #2
    2122:	804b      	strh	r3, [r1, #2]
    2124:	2300      	movs	r3, #0
    2126:	720b      	strb	r3, [r1, #8]
    2128:	724b      	strb	r3, [r1, #9]
    212a:	4802      	ldr	r0, [pc, #8]	; (2134 <RcSetReg+0x28>)
    212c:	4b02      	ldr	r3, [pc, #8]	; (2138 <RcSetReg+0x2c>)
    212e:	4798      	blx	r3
    2130:	b005      	add	sp, #20
    2132:	bd00      	pop	{pc}
    2134:	20000994 	.word	0x20000994
    2138:	00000721 	.word	0x00000721

0000213c <RcGetReg>:
    213c:	b570      	push	{r4, r5, r6, lr}
    213e:	b08a      	sub	sp, #40	; 0x28
    2140:	466b      	mov	r3, sp
    2142:	71d8      	strb	r0, [r3, #7]
    2144:	3307      	adds	r3, #7
    2146:	a907      	add	r1, sp, #28
    2148:	2028      	movs	r0, #40	; 0x28
    214a:	8008      	strh	r0, [r1, #0]
    214c:	604b      	str	r3, [r1, #4]
    214e:	2201      	movs	r2, #1
    2150:	804a      	strh	r2, [r1, #2]
    2152:	2300      	movs	r3, #0
    2154:	720b      	strb	r3, [r1, #8]
    2156:	724b      	strb	r3, [r1, #9]
    2158:	ac04      	add	r4, sp, #16
    215a:	8020      	strh	r0, [r4, #0]
    215c:	250f      	movs	r5, #15
    215e:	446d      	add	r5, sp
    2160:	9505      	str	r5, [sp, #20]
    2162:	8062      	strh	r2, [r4, #2]
    2164:	7223      	strb	r3, [r4, #8]
    2166:	7263      	strb	r3, [r4, #9]
    2168:	4e05      	ldr	r6, [pc, #20]	; (2180 <RcGetReg+0x44>)
    216a:	1c30      	adds	r0, r6, #0
    216c:	4b05      	ldr	r3, [pc, #20]	; (2184 <RcGetReg+0x48>)
    216e:	4798      	blx	r3
    2170:	1c30      	adds	r0, r6, #0
    2172:	1c21      	adds	r1, r4, #0
    2174:	4b04      	ldr	r3, [pc, #16]	; (2188 <RcGetReg+0x4c>)
    2176:	4798      	blx	r3
    2178:	7828      	ldrb	r0, [r5, #0]
    217a:	b00a      	add	sp, #40	; 0x28
    217c:	bd70      	pop	{r4, r5, r6, pc}
    217e:	46c0      	nop			; (mov r8, r8)
    2180:	20000994 	.word	0x20000994
    2184:	00000721 	.word	0x00000721
    2188:	0000070d 	.word	0x0000070d

0000218c <RcModifyReg>:
    218c:	b570      	push	{r4, r5, r6, lr}
    218e:	1c04      	adds	r4, r0, #0
    2190:	1c0e      	adds	r6, r1, #0
    2192:	1c15      	adds	r5, r2, #0
    2194:	4b06      	ldr	r3, [pc, #24]	; (21b0 <RcModifyReg+0x24>)
    2196:	4798      	blx	r3
    2198:	2e00      	cmp	r6, #0
    219a:	d002      	beq.n	21a2 <RcModifyReg+0x16>
    219c:	4328      	orrs	r0, r5
    219e:	b2c1      	uxtb	r1, r0
    21a0:	e001      	b.n	21a6 <RcModifyReg+0x1a>
    21a2:	43a8      	bics	r0, r5
    21a4:	b2c1      	uxtb	r1, r0
    21a6:	1c20      	adds	r0, r4, #0
    21a8:	4b02      	ldr	r3, [pc, #8]	; (21b4 <RcModifyReg+0x28>)
    21aa:	4798      	blx	r3
    21ac:	bd70      	pop	{r4, r5, r6, pc}
    21ae:	46c0      	nop			; (mov r8, r8)
    21b0:	0000213d 	.word	0x0000213d
    21b4:	0000210d 	.word	0x0000210d

000021b8 <TC3_callback>:
    21b8:	b530      	push	{r4, r5, lr}
    21ba:	4b15      	ldr	r3, [pc, #84]	; (2210 <TC3_callback+0x58>)
    21bc:	4915      	ldr	r1, [pc, #84]	; (2214 <TC3_callback+0x5c>)
    21be:	6a1c      	ldr	r4, [r3, #32]
    21c0:	2301      	movs	r3, #1
    21c2:	8808      	ldrh	r0, [r1, #0]
    21c4:	4a14      	ldr	r2, [pc, #80]	; (2218 <TC3_callback+0x60>)
    21c6:	401c      	ands	r4, r3
    21c8:	4290      	cmp	r0, r2
    21ca:	d91e      	bls.n	220a <TC3_callback+0x52>
    21cc:	4a13      	ldr	r2, [pc, #76]	; (221c <TC3_callback+0x64>)
    21ce:	7013      	strb	r3, [r2, #0]
    21d0:	2300      	movs	r3, #0
    21d2:	800b      	strh	r3, [r1, #0]
    21d4:	4b12      	ldr	r3, [pc, #72]	; (2220 <TC3_callback+0x68>)
    21d6:	781a      	ldrb	r2, [r3, #0]
    21d8:	3201      	adds	r2, #1
    21da:	b2d2      	uxtb	r2, r2
    21dc:	701a      	strb	r2, [r3, #0]
    21de:	781a      	ldrb	r2, [r3, #0]
    21e0:	2a01      	cmp	r2, #1
    21e2:	d901      	bls.n	21e8 <TC3_callback+0x30>
    21e4:	2200      	movs	r2, #0
    21e6:	701a      	strb	r2, [r3, #0]
    21e8:	2501      	movs	r5, #1
    21ea:	781b      	ldrb	r3, [r3, #0]
    21ec:	880a      	ldrh	r2, [r1, #0]
    21ee:	005b      	lsls	r3, r3, #1
    21f0:	8808      	ldrh	r0, [r1, #0]
    21f2:	402a      	ands	r2, r5
    21f4:	189b      	adds	r3, r3, r2
    21f6:	025b      	lsls	r3, r3, #9
    21f8:	0842      	lsrs	r2, r0, #1
    21fa:	189b      	adds	r3, r3, r2
    21fc:	4a09      	ldr	r2, [pc, #36]	; (2224 <TC3_callback+0x6c>)
    21fe:	549c      	strb	r4, [r3, r2]
    2200:	880b      	ldrh	r3, [r1, #0]
    2202:	3301      	adds	r3, #1
    2204:	b29b      	uxth	r3, r3
    2206:	800b      	strh	r3, [r1, #0]
    2208:	bd30      	pop	{r4, r5, pc}
    220a:	4b05      	ldr	r3, [pc, #20]	; (2220 <TC3_callback+0x68>)
    220c:	e7ec      	b.n	21e8 <TC3_callback+0x30>
    220e:	46c0      	nop			; (mov r8, r8)
    2210:	41004400 	.word	0x41004400
    2214:	200008b4 	.word	0x200008b4
    2218:	000003ff 	.word	0x000003ff
    221c:	200000b0 	.word	0x200000b0
    2220:	200000b1 	.word	0x200000b1
    2224:	200000b4 	.word	0x200000b4

00002228 <ASK_Run>:
    2228:	b5f0      	push	{r4, r5, r6, r7, lr}
    222a:	465f      	mov	r7, fp
    222c:	4656      	mov	r6, sl
    222e:	464d      	mov	r5, r9
    2230:	4644      	mov	r4, r8
    2232:	2300      	movs	r3, #0
    2234:	b4f0      	push	{r4, r5, r6, r7}
    2236:	b095      	sub	sp, #84	; 0x54
    2238:	aa06      	add	r2, sp, #24
    223a:	8093      	strh	r3, [r2, #4]
    223c:	22c0      	movs	r2, #192	; 0xc0
    223e:	00d2      	lsls	r2, r2, #3
    2240:	4694      	mov	ip, r2
    2242:	9308      	str	r3, [sp, #32]
    2244:	9309      	str	r3, [sp, #36]	; 0x24
    2246:	930c      	str	r3, [sp, #48]	; 0x30
    2248:	930d      	str	r3, [sp, #52]	; 0x34
    224a:	930e      	str	r3, [sp, #56]	; 0x38
    224c:	930f      	str	r3, [sp, #60]	; 0x3c
    224e:	9310      	str	r3, [sp, #64]	; 0x40
    2250:	9311      	str	r3, [sp, #68]	; 0x44
    2252:	9312      	str	r3, [sp, #72]	; 0x48
    2254:	9313      	str	r3, [sp, #76]	; 0x4c
    2256:	930a      	str	r3, [sp, #40]	; 0x28
    2258:	930b      	str	r3, [sp, #44]	; 0x2c
    225a:	4b33      	ldr	r3, [pc, #204]	; (2328 <ASK_Run+0x100>)
    225c:	4463      	add	r3, ip
    225e:	9305      	str	r3, [sp, #20]
    2260:	4b32      	ldr	r3, [pc, #200]	; (232c <ASK_Run+0x104>)
    2262:	4798      	blx	r3
    2264:	4b32      	ldr	r3, [pc, #200]	; (2330 <ASK_Run+0x108>)
    2266:	781b      	ldrb	r3, [r3, #0]
    2268:	2b00      	cmp	r3, #0
    226a:	d0fb      	beq.n	2264 <ASK_Run+0x3c>
    226c:	4b2f      	ldr	r3, [pc, #188]	; (232c <ASK_Run+0x104>)
    226e:	4798      	blx	r3
    2270:	2200      	movs	r2, #0
    2272:	4b2f      	ldr	r3, [pc, #188]	; (2330 <ASK_Run+0x108>)
    2274:	af10      	add	r7, sp, #64	; 0x40
    2276:	701a      	strb	r2, [r3, #0]
    2278:	9b05      	ldr	r3, [sp, #20]
    227a:	469a      	mov	sl, r3
    227c:	ab07      	add	r3, sp, #28
    227e:	469b      	mov	fp, r3
    2280:	ab0c      	add	r3, sp, #48	; 0x30
    2282:	4699      	mov	r9, r3
    2284:	465a      	mov	r2, fp
    2286:	2300      	movs	r3, #0
    2288:	46c8      	mov	r8, r9
    228a:	46d3      	mov	fp, sl
    228c:	4699      	mov	r9, r3
    228e:	4692      	mov	sl, r2
    2290:	4e28      	ldr	r6, [pc, #160]	; (2334 <ASK_Run+0x10c>)
    2292:	445e      	add	r6, fp
    2294:	e015      	b.n	22c2 <ASK_Run+0x9a>
    2296:	4653      	mov	r3, sl
    2298:	781b      	ldrb	r3, [r3, #0]
    229a:	7834      	ldrb	r4, [r6, #0]
    229c:	2500      	movs	r5, #0
    229e:	2b01      	cmp	r3, #1
    22a0:	d01b      	beq.n	22da <ASK_Run+0xb2>
    22a2:	2b00      	cmp	r3, #0
    22a4:	d100      	bne.n	22a8 <ASK_Run+0x80>
    22a6:	e1f4      	b.n	2692 <ASK_Run+0x46a>
    22a8:	2b02      	cmp	r3, #2
    22aa:	d049      	beq.n	2340 <ASK_Run+0x118>
    22ac:	2b03      	cmp	r3, #3
    22ae:	d000      	beq.n	22b2 <ASK_Run+0x8a>
    22b0:	e1eb      	b.n	268a <ASK_Run+0x462>
    22b2:	2302      	movs	r3, #2
    22b4:	4652      	mov	r2, sl
    22b6:	7013      	strb	r3, [r2, #0]
    22b8:	3601      	adds	r6, #1
    22ba:	603c      	str	r4, [r7, #0]
    22bc:	607d      	str	r5, [r7, #4]
    22be:	45b3      	cmp	fp, r6
    22c0:	d020      	beq.n	2304 <ASK_Run+0xdc>
    22c2:	4b1d      	ldr	r3, [pc, #116]	; (2338 <ASK_Run+0x110>)
    22c4:	781b      	ldrb	r3, [r3, #0]
    22c6:	2b00      	cmp	r3, #0
    22c8:	d0e5      	beq.n	2296 <ASK_Run+0x6e>
    22ca:	4b1c      	ldr	r3, [pc, #112]	; (233c <ASK_Run+0x114>)
    22cc:	2500      	movs	r5, #0
    22ce:	18f3      	adds	r3, r6, r3
    22d0:	781c      	ldrb	r4, [r3, #0]
    22d2:	4653      	mov	r3, sl
    22d4:	781b      	ldrb	r3, [r3, #0]
    22d6:	2b01      	cmp	r3, #1
    22d8:	d1e3      	bne.n	22a2 <ASK_Run+0x7a>
    22da:	683b      	ldr	r3, [r7, #0]
    22dc:	42a3      	cmp	r3, r4
    22de:	d100      	bne.n	22e2 <ASK_Run+0xba>
    22e0:	e204      	b.n	26ec <ASK_Run+0x4c4>
    22e2:	2108      	movs	r1, #8
    22e4:	464a      	mov	r2, r9
    22e6:	ab06      	add	r3, sp, #24
    22e8:	2008      	movs	r0, #8
    22ea:	185b      	adds	r3, r3, r1
    22ec:	4649      	mov	r1, r9
    22ee:	589b      	ldr	r3, [r3, r2]
    22f0:	aa06      	add	r2, sp, #24
    22f2:	9300      	str	r3, [sp, #0]
    22f4:	1812      	adds	r2, r2, r0
    22f6:	3301      	adds	r3, #1
    22f8:	3601      	adds	r6, #1
    22fa:	5053      	str	r3, [r2, r1]
    22fc:	603c      	str	r4, [r7, #0]
    22fe:	607d      	str	r5, [r7, #4]
    2300:	45b3      	cmp	fp, r6
    2302:	d1de      	bne.n	22c2 <ASK_Run+0x9a>
    2304:	2380      	movs	r3, #128	; 0x80
    2306:	009b      	lsls	r3, r3, #2
    2308:	469c      	mov	ip, r3
    230a:	2301      	movs	r3, #1
    230c:	44e3      	add	fp, ip
    230e:	469c      	mov	ip, r3
    2310:	3303      	adds	r3, #3
    2312:	44e2      	add	sl, ip
    2314:	469c      	mov	ip, r3
    2316:	3304      	adds	r3, #4
    2318:	44e1      	add	r9, ip
    231a:	469c      	mov	ip, r3
    231c:	464b      	mov	r3, r9
    231e:	3708      	adds	r7, #8
    2320:	44e0      	add	r8, ip
    2322:	2b08      	cmp	r3, #8
    2324:	d1b4      	bne.n	2290 <ASK_Run+0x68>
    2326:	e79b      	b.n	2260 <ASK_Run+0x38>
    2328:	200000b4 	.word	0x200000b4
    232c:	0000102d 	.word	0x0000102d
    2330:	200000b0 	.word	0x200000b0
    2334:	fffffe00 	.word	0xfffffe00
    2338:	200000b1 	.word	0x200000b1
    233c:	fffffc00 	.word	0xfffffc00
    2340:	683b      	ldr	r3, [r7, #0]
    2342:	42a3      	cmp	r3, r4
    2344:	d100      	bne.n	2348 <ASK_Run+0x120>
    2346:	e1b0      	b.n	26aa <ASK_Run+0x482>
    2348:	4643      	mov	r3, r8
    234a:	681a      	ldr	r2, [r3, #0]
    234c:	685b      	ldr	r3, [r3, #4]
    234e:	1892      	adds	r2, r2, r2
    2350:	415b      	adcs	r3, r3
    2352:	9203      	str	r2, [sp, #12]
    2354:	9300      	str	r3, [sp, #0]
    2356:	2c01      	cmp	r4, #1
    2358:	d100      	bne.n	235c <ASK_Run+0x134>
    235a:	e214      	b.n	2786 <ASK_Run+0x55e>
    235c:	4641      	mov	r1, r8
    235e:	c10c      	stmia	r1!, {r2, r3}
    2360:	2303      	movs	r3, #3
    2362:	4652      	mov	r2, sl
    2364:	2110      	movs	r1, #16
    2366:	7013      	strb	r3, [r2, #0]
    2368:	464a      	mov	r2, r9
    236a:	ab06      	add	r3, sp, #24
    236c:	2010      	movs	r0, #16
    236e:	185b      	adds	r3, r3, r1
    2370:	4649      	mov	r1, r9
    2372:	589b      	ldr	r3, [r3, r2]
    2374:	aa06      	add	r2, sp, #24
    2376:	9302      	str	r3, [sp, #8]
    2378:	1812      	adds	r2, r2, r0
    237a:	3301      	adds	r3, #1
    237c:	5053      	str	r3, [r2, r1]
    237e:	2b40      	cmp	r3, #64	; 0x40
    2380:	d19a      	bne.n	22b8 <ASK_Run+0x90>
    2382:	9900      	ldr	r1, [sp, #0]
    2384:	9b03      	ldr	r3, [sp, #12]
    2386:	06ca      	lsls	r2, r1, #27
    2388:	095b      	lsrs	r3, r3, #5
    238a:	4313      	orrs	r3, r2
    238c:	0948      	lsrs	r0, r1, #5
    238e:	221f      	movs	r2, #31
    2390:	1c19      	adds	r1, r3, #0
    2392:	4694      	mov	ip, r2
    2394:	4011      	ands	r1, r2
    2396:	4ac7      	ldr	r2, [pc, #796]	; (26b4 <ASK_Run+0x48c>)
    2398:	0089      	lsls	r1, r1, #2
    239a:	5851      	ldr	r1, [r2, r1]
    239c:	2900      	cmp	r1, #0
    239e:	d100      	bne.n	23a2 <ASK_Run+0x17a>
    23a0:	e173      	b.n	268a <ASK_Run+0x462>
    23a2:	06c0      	lsls	r0, r0, #27
    23a4:	9900      	ldr	r1, [sp, #0]
    23a6:	095b      	lsrs	r3, r3, #5
    23a8:	4303      	orrs	r3, r0
    23aa:	4662      	mov	r2, ip
    23ac:	0a88      	lsrs	r0, r1, #10
    23ae:	1c19      	adds	r1, r3, #0
    23b0:	4011      	ands	r1, r2
    23b2:	4ac0      	ldr	r2, [pc, #768]	; (26b4 <ASK_Run+0x48c>)
    23b4:	0089      	lsls	r1, r1, #2
    23b6:	5851      	ldr	r1, [r2, r1]
    23b8:	2900      	cmp	r1, #0
    23ba:	d100      	bne.n	23be <ASK_Run+0x196>
    23bc:	e165      	b.n	268a <ASK_Run+0x462>
    23be:	06c0      	lsls	r0, r0, #27
    23c0:	095b      	lsrs	r3, r3, #5
    23c2:	4303      	orrs	r3, r0
    23c4:	4662      	mov	r2, ip
    23c6:	1c18      	adds	r0, r3, #0
    23c8:	4010      	ands	r0, r2
    23ca:	4aba      	ldr	r2, [pc, #744]	; (26b4 <ASK_Run+0x48c>)
    23cc:	0080      	lsls	r0, r0, #2
    23ce:	9900      	ldr	r1, [sp, #0]
    23d0:	5810      	ldr	r0, [r2, r0]
    23d2:	0bc9      	lsrs	r1, r1, #15
    23d4:	2800      	cmp	r0, #0
    23d6:	d100      	bne.n	23da <ASK_Run+0x1b2>
    23d8:	e157      	b.n	268a <ASK_Run+0x462>
    23da:	06c9      	lsls	r1, r1, #27
    23dc:	095b      	lsrs	r3, r3, #5
    23de:	430b      	orrs	r3, r1
    23e0:	9900      	ldr	r1, [sp, #0]
    23e2:	4662      	mov	r2, ip
    23e4:	0d08      	lsrs	r0, r1, #20
    23e6:	1c19      	adds	r1, r3, #0
    23e8:	4011      	ands	r1, r2
    23ea:	4ab2      	ldr	r2, [pc, #712]	; (26b4 <ASK_Run+0x48c>)
    23ec:	0089      	lsls	r1, r1, #2
    23ee:	5851      	ldr	r1, [r2, r1]
    23f0:	2900      	cmp	r1, #0
    23f2:	d100      	bne.n	23f6 <ASK_Run+0x1ce>
    23f4:	e149      	b.n	268a <ASK_Run+0x462>
    23f6:	06c0      	lsls	r0, r0, #27
    23f8:	9900      	ldr	r1, [sp, #0]
    23fa:	095b      	lsrs	r3, r3, #5
    23fc:	4303      	orrs	r3, r0
    23fe:	4662      	mov	r2, ip
    2400:	0e48      	lsrs	r0, r1, #25
    2402:	1c19      	adds	r1, r3, #0
    2404:	4011      	ands	r1, r2
    2406:	4aab      	ldr	r2, [pc, #684]	; (26b4 <ASK_Run+0x48c>)
    2408:	0089      	lsls	r1, r1, #2
    240a:	5851      	ldr	r1, [r2, r1]
    240c:	2900      	cmp	r1, #0
    240e:	d100      	bne.n	2412 <ASK_Run+0x1ea>
    2410:	e13b      	b.n	268a <ASK_Run+0x462>
    2412:	06c0      	lsls	r0, r0, #27
    2414:	095b      	lsrs	r3, r3, #5
    2416:	4303      	orrs	r3, r0
    2418:	4662      	mov	r2, ip
    241a:	1c18      	adds	r0, r3, #0
    241c:	4010      	ands	r0, r2
    241e:	4aa5      	ldr	r2, [pc, #660]	; (26b4 <ASK_Run+0x48c>)
    2420:	0080      	lsls	r0, r0, #2
    2422:	9900      	ldr	r1, [sp, #0]
    2424:	5810      	ldr	r0, [r2, r0]
    2426:	0f89      	lsrs	r1, r1, #30
    2428:	2800      	cmp	r0, #0
    242a:	d100      	bne.n	242e <ASK_Run+0x206>
    242c:	e12d      	b.n	268a <ASK_Run+0x462>
    242e:	06c9      	lsls	r1, r1, #27
    2430:	095b      	lsrs	r3, r3, #5
    2432:	430b      	orrs	r3, r1
    2434:	1c10      	adds	r0, r2, #0
    2436:	1c19      	adds	r1, r3, #0
    2438:	4662      	mov	r2, ip
    243a:	4011      	ands	r1, r2
    243c:	0089      	lsls	r1, r1, #2
    243e:	5841      	ldr	r1, [r0, r1]
    2440:	2900      	cmp	r1, #0
    2442:	d100      	bne.n	2446 <ASK_Run+0x21e>
    2444:	e121      	b.n	268a <ASK_Run+0x462>
    2446:	0959      	lsrs	r1, r3, #5
    2448:	4011      	ands	r1, r2
    244a:	0089      	lsls	r1, r1, #2
    244c:	5841      	ldr	r1, [r0, r1]
    244e:	2900      	cmp	r1, #0
    2450:	d100      	bne.n	2454 <ASK_Run+0x22c>
    2452:	e11a      	b.n	268a <ASK_Run+0x462>
    2454:	0a9b      	lsrs	r3, r3, #10
    2456:	401a      	ands	r2, r3
    2458:	0092      	lsls	r2, r2, #2
    245a:	5882      	ldr	r2, [r0, r2]
    245c:	2a00      	cmp	r2, #0
    245e:	d100      	bne.n	2462 <ASK_Run+0x23a>
    2460:	e113      	b.n	268a <ASK_Run+0x462>
    2462:	059b      	lsls	r3, r3, #22
    2464:	0edb      	lsrs	r3, r3, #27
    2466:	009b      	lsls	r3, r3, #2
    2468:	58c3      	ldr	r3, [r0, r3]
    246a:	2b00      	cmp	r3, #0
    246c:	d100      	bne.n	2470 <ASK_Run+0x248>
    246e:	e10c      	b.n	268a <ASK_Run+0x462>
    2470:	4a91      	ldr	r2, [pc, #580]	; (26b8 <ASK_Run+0x490>)
    2472:	9800      	ldr	r0, [sp, #0]
    2474:	9b03      	ldr	r3, [sp, #12]
    2476:	4991      	ldr	r1, [pc, #580]	; (26bc <ASK_Run+0x494>)
    2478:	4010      	ands	r0, r2
    247a:	4019      	ands	r1, r3
    247c:	1c03      	adds	r3, r0, #0
    247e:	0842      	lsrs	r2, r0, #1
    2480:	488f      	ldr	r0, [pc, #572]	; (26c0 <ASK_Run+0x498>)
    2482:	4002      	ands	r2, r0
    2484:	1a9a      	subs	r2, r3, r2
    2486:	1c10      	adds	r0, r2, #0
    2488:	4b8e      	ldr	r3, [pc, #568]	; (26c4 <ASK_Run+0x49c>)
    248a:	0892      	lsrs	r2, r2, #2
    248c:	401a      	ands	r2, r3
    248e:	4018      	ands	r0, r3
    2490:	1810      	adds	r0, r2, r0
    2492:	9002      	str	r0, [sp, #8]
    2494:	488a      	ldr	r0, [pc, #552]	; (26c0 <ASK_Run+0x498>)
    2496:	084a      	lsrs	r2, r1, #1
    2498:	4002      	ands	r2, r0
    249a:	1a89      	subs	r1, r1, r2
    249c:	1c0a      	adds	r2, r1, #0
    249e:	0889      	lsrs	r1, r1, #2
    24a0:	401a      	ands	r2, r3
    24a2:	4019      	ands	r1, r3
    24a4:	1888      	adds	r0, r1, r2
    24a6:	9004      	str	r0, [sp, #16]
    24a8:	9a03      	ldr	r2, [sp, #12]
    24aa:	4887      	ldr	r0, [pc, #540]	; (26c8 <ASK_Run+0x4a0>)
    24ac:	9900      	ldr	r1, [sp, #0]
    24ae:	4010      	ands	r0, r2
    24b0:	4a86      	ldr	r2, [pc, #536]	; (26cc <ASK_Run+0x4a4>)
    24b2:	4011      	ands	r1, r2
    24b4:	468c      	mov	ip, r1
    24b6:	084a      	lsrs	r2, r1, #1
    24b8:	4981      	ldr	r1, [pc, #516]	; (26c0 <ASK_Run+0x498>)
    24ba:	400a      	ands	r2, r1
    24bc:	4661      	mov	r1, ip
    24be:	1a8a      	subs	r2, r1, r2
    24c0:	1c11      	adds	r1, r2, #0
    24c2:	0892      	lsrs	r2, r2, #2
    24c4:	401a      	ands	r2, r3
    24c6:	4694      	mov	ip, r2
    24c8:	4019      	ands	r1, r3
    24ca:	448c      	add	ip, r1
    24cc:	497c      	ldr	r1, [pc, #496]	; (26c0 <ASK_Run+0x498>)
    24ce:	0842      	lsrs	r2, r0, #1
    24d0:	400a      	ands	r2, r1
    24d2:	1a80      	subs	r0, r0, r2
    24d4:	1c02      	adds	r2, r0, #0
    24d6:	4661      	mov	r1, ip
    24d8:	0880      	lsrs	r0, r0, #2
    24da:	4018      	ands	r0, r3
    24dc:	401a      	ands	r2, r3
    24de:	1882      	adds	r2, r0, r2
    24e0:	0908      	lsrs	r0, r1, #4
    24e2:	1c01      	adds	r1, r0, #0
    24e4:	487a      	ldr	r0, [pc, #488]	; (26d0 <ASK_Run+0x4a8>)
    24e6:	4461      	add	r1, ip
    24e8:	4001      	ands	r1, r0
    24ea:	0208      	lsls	r0, r1, #8
    24ec:	1841      	adds	r1, r0, r1
    24ee:	0408      	lsls	r0, r1, #16
    24f0:	1808      	adds	r0, r1, r0
    24f2:	0e01      	lsrs	r1, r0, #24
    24f4:	0910      	lsrs	r0, r2, #4
    24f6:	1882      	adds	r2, r0, r2
    24f8:	4875      	ldr	r0, [pc, #468]	; (26d0 <ASK_Run+0x4a8>)
    24fa:	4002      	ands	r2, r0
    24fc:	0210      	lsls	r0, r2, #8
    24fe:	1882      	adds	r2, r0, r2
    2500:	0410      	lsls	r0, r2, #16
    2502:	1810      	adds	r0, r2, r0
    2504:	0e00      	lsrs	r0, r0, #24
    2506:	1808      	adds	r0, r1, r0
    2508:	9902      	ldr	r1, [sp, #8]
    250a:	468c      	mov	ip, r1
    250c:	090a      	lsrs	r2, r1, #4
    250e:	4970      	ldr	r1, [pc, #448]	; (26d0 <ASK_Run+0x4a8>)
    2510:	4462      	add	r2, ip
    2512:	400a      	ands	r2, r1
    2514:	0211      	lsls	r1, r2, #8
    2516:	188a      	adds	r2, r1, r2
    2518:	0411      	lsls	r1, r2, #16
    251a:	1852      	adds	r2, r2, r1
    251c:	0e11      	lsrs	r1, r2, #24
    251e:	9a04      	ldr	r2, [sp, #16]
    2520:	9102      	str	r1, [sp, #8]
    2522:	4694      	mov	ip, r2
    2524:	0911      	lsrs	r1, r2, #4
    2526:	4a6a      	ldr	r2, [pc, #424]	; (26d0 <ASK_Run+0x4a8>)
    2528:	4461      	add	r1, ip
    252a:	4011      	ands	r1, r2
    252c:	020a      	lsls	r2, r1, #8
    252e:	1851      	adds	r1, r2, r1
    2530:	040a      	lsls	r2, r1, #16
    2532:	188a      	adds	r2, r1, r2
    2534:	9902      	ldr	r1, [sp, #8]
    2536:	0e12      	lsrs	r2, r2, #24
    2538:	468c      	mov	ip, r1
    253a:	2101      	movs	r1, #1
    253c:	4462      	add	r2, ip
    253e:	4302      	orrs	r2, r0
    2540:	4211      	tst	r1, r2
    2542:	d000      	beq.n	2546 <ASK_Run+0x31e>
    2544:	e0a1      	b.n	268a <ASK_Run+0x462>
    2546:	9a03      	ldr	r2, [sp, #12]
    2548:	4962      	ldr	r1, [pc, #392]	; (26d4 <ASK_Run+0x4ac>)
    254a:	9800      	ldr	r0, [sp, #0]
    254c:	4011      	ands	r1, r2
    254e:	4a62      	ldr	r2, [pc, #392]	; (26d8 <ASK_Run+0x4b0>)
    2550:	468c      	mov	ip, r1
    2552:	4010      	ands	r0, r2
    2554:	495a      	ldr	r1, [pc, #360]	; (26c0 <ASK_Run+0x498>)
    2556:	0842      	lsrs	r2, r0, #1
    2558:	400a      	ands	r2, r1
    255a:	1a82      	subs	r2, r0, r2
    255c:	1c10      	adds	r0, r2, #0
    255e:	0892      	lsrs	r2, r2, #2
    2560:	401a      	ands	r2, r3
    2562:	4018      	ands	r0, r3
    2564:	1810      	adds	r0, r2, r0
    2566:	4662      	mov	r2, ip
    2568:	0852      	lsrs	r2, r2, #1
    256a:	400a      	ands	r2, r1
    256c:	4661      	mov	r1, ip
    256e:	1a89      	subs	r1, r1, r2
    2570:	1c0a      	adds	r2, r1, #0
    2572:	0889      	lsrs	r1, r1, #2
    2574:	401a      	ands	r2, r3
    2576:	4019      	ands	r1, r3
    2578:	1889      	adds	r1, r1, r2
    257a:	9104      	str	r1, [sp, #16]
    257c:	9a03      	ldr	r2, [sp, #12]
    257e:	4957      	ldr	r1, [pc, #348]	; (26dc <ASK_Run+0x4b4>)
    2580:	9002      	str	r0, [sp, #8]
    2582:	4011      	ands	r1, r2
    2584:	468c      	mov	ip, r1
    2586:	4a56      	ldr	r2, [pc, #344]	; (26e0 <ASK_Run+0x4b8>)
    2588:	9800      	ldr	r0, [sp, #0]
    258a:	494d      	ldr	r1, [pc, #308]	; (26c0 <ASK_Run+0x498>)
    258c:	4010      	ands	r0, r2
    258e:	0842      	lsrs	r2, r0, #1
    2590:	400a      	ands	r2, r1
    2592:	1a82      	subs	r2, r0, r2
    2594:	1c10      	adds	r0, r2, #0
    2596:	4661      	mov	r1, ip
    2598:	0892      	lsrs	r2, r2, #2
    259a:	4018      	ands	r0, r3
    259c:	401a      	ands	r2, r3
    259e:	1812      	adds	r2, r2, r0
    25a0:	0848      	lsrs	r0, r1, #1
    25a2:	4947      	ldr	r1, [pc, #284]	; (26c0 <ASK_Run+0x498>)
    25a4:	4008      	ands	r0, r1
    25a6:	4661      	mov	r1, ip
    25a8:	1a09      	subs	r1, r1, r0
    25aa:	1c08      	adds	r0, r1, #0
    25ac:	0889      	lsrs	r1, r1, #2
    25ae:	4018      	ands	r0, r3
    25b0:	4019      	ands	r1, r3
    25b2:	180b      	adds	r3, r1, r0
    25b4:	0918      	lsrs	r0, r3, #4
    25b6:	18c3      	adds	r3, r0, r3
    25b8:	9802      	ldr	r0, [sp, #8]
    25ba:	0911      	lsrs	r1, r2, #4
    25bc:	4684      	mov	ip, r0
    25be:	188a      	adds	r2, r1, r2
    25c0:	4943      	ldr	r1, [pc, #268]	; (26d0 <ASK_Run+0x4a8>)
    25c2:	400a      	ands	r2, r1
    25c4:	0211      	lsls	r1, r2, #8
    25c6:	188a      	adds	r2, r1, r2
    25c8:	0411      	lsls	r1, r2, #16
    25ca:	1851      	adds	r1, r2, r1
    25cc:	0e0a      	lsrs	r2, r1, #24
    25ce:	4940      	ldr	r1, [pc, #256]	; (26d0 <ASK_Run+0x4a8>)
    25d0:	4019      	ands	r1, r3
    25d2:	020b      	lsls	r3, r1, #8
    25d4:	185b      	adds	r3, r3, r1
    25d6:	0419      	lsls	r1, r3, #16
    25d8:	1859      	adds	r1, r3, r1
    25da:	0903      	lsrs	r3, r0, #4
    25dc:	483c      	ldr	r0, [pc, #240]	; (26d0 <ASK_Run+0x4a8>)
    25de:	4463      	add	r3, ip
    25e0:	4018      	ands	r0, r3
    25e2:	0203      	lsls	r3, r0, #8
    25e4:	181b      	adds	r3, r3, r0
    25e6:	0418      	lsls	r0, r3, #16
    25e8:	1818      	adds	r0, r3, r0
    25ea:	9b04      	ldr	r3, [sp, #16]
    25ec:	0e09      	lsrs	r1, r1, #24
    25ee:	469c      	mov	ip, r3
    25f0:	1851      	adds	r1, r2, r1
    25f2:	091a      	lsrs	r2, r3, #4
    25f4:	4b36      	ldr	r3, [pc, #216]	; (26d0 <ASK_Run+0x4a8>)
    25f6:	4462      	add	r2, ip
    25f8:	401a      	ands	r2, r3
    25fa:	0213      	lsls	r3, r2, #8
    25fc:	189a      	adds	r2, r3, r2
    25fe:	0413      	lsls	r3, r2, #16
    2600:	18d3      	adds	r3, r2, r3
    2602:	0e00      	lsrs	r0, r0, #24
    2604:	0e1b      	lsrs	r3, r3, #24
    2606:	18c0      	adds	r0, r0, r3
    2608:	4301      	orrs	r1, r0
    260a:	2001      	movs	r0, #1
    260c:	4208      	tst	r0, r1
    260e:	d13c      	bne.n	268a <ASK_Run+0x462>
    2610:	2301      	movs	r3, #1
    2612:	9a03      	ldr	r2, [sp, #12]
    2614:	421a      	tst	r2, r3
    2616:	d138      	bne.n	268a <ASK_Run+0x462>
    2618:	9b00      	ldr	r3, [sp, #0]
    261a:	025b      	lsls	r3, r3, #9
    261c:	0a5b      	lsrs	r3, r3, #9
    261e:	4313      	orrs	r3, r2
    2620:	d033      	beq.n	268a <ASK_Run+0x462>
    2622:	1c10      	adds	r0, r2, #0
    2624:	9900      	ldr	r1, [sp, #0]
    2626:	0d52      	lsrs	r2, r2, #21
    2628:	02cb      	lsls	r3, r1, #11
    262a:	431a      	orrs	r2, r3
    262c:	0689      	lsls	r1, r1, #26
    262e:	0983      	lsrs	r3, r0, #6
    2630:	430b      	orrs	r3, r1
    2632:	210f      	movs	r1, #15
    2634:	400b      	ands	r3, r1
    2636:	1c19      	adds	r1, r3, #0
    2638:	9b00      	ldr	r3, [sp, #0]
    263a:	0312      	lsls	r2, r2, #12
    263c:	4311      	orrs	r1, r2
    263e:	055a      	lsls	r2, r3, #21
    2640:	0ac3      	lsrs	r3, r0, #11
    2642:	4313      	orrs	r3, r2
    2644:	22ff      	movs	r2, #255	; 0xff
    2646:	011b      	lsls	r3, r3, #4
    2648:	4013      	ands	r3, r2
    264a:	1c0a      	adds	r2, r1, #0
    264c:	431a      	orrs	r2, r3
    264e:	9b00      	ldr	r3, [sp, #0]
    2650:	0419      	lsls	r1, r3, #16
    2652:	0c03      	lsrs	r3, r0, #16
    2654:	430b      	orrs	r3, r1
    2656:	210f      	movs	r1, #15
    2658:	400b      	ands	r3, r1
    265a:	0219      	lsls	r1, r3, #8
    265c:	9b00      	ldr	r3, [sp, #0]
    265e:	430a      	orrs	r2, r1
    2660:	b291      	uxth	r1, r2
    2662:	005a      	lsls	r2, r3, #1
    2664:	0fc3      	lsrs	r3, r0, #31
    2666:	4313      	orrs	r3, r2
    2668:	9a00      	ldr	r2, [sp, #0]
    266a:	0e80      	lsrs	r0, r0, #26
    266c:	0192      	lsls	r2, r2, #6
    266e:	4310      	orrs	r0, r2
    2670:	1c02      	adds	r2, r0, #0
    2672:	200f      	movs	r0, #15
    2674:	011b      	lsls	r3, r3, #4
    2676:	4010      	ands	r0, r2
    2678:	4303      	orrs	r3, r0
    267a:	b2d8      	uxtb	r0, r3
    267c:	4b19      	ldr	r3, [pc, #100]	; (26e4 <ASK_Run+0x4bc>)
    267e:	0400      	lsls	r0, r0, #16
    2680:	1808      	adds	r0, r1, r0
    2682:	781a      	ldrb	r2, [r3, #0]
    2684:	2100      	movs	r1, #0
    2686:	4b18      	ldr	r3, [pc, #96]	; (26e8 <ASK_Run+0x4c0>)
    2688:	4798      	blx	r3
    268a:	4653      	mov	r3, sl
    268c:	2200      	movs	r2, #0
    268e:	701a      	strb	r2, [r3, #0]
    2690:	e612      	b.n	22b8 <ASK_Run+0x90>
    2692:	2c00      	cmp	r4, #0
    2694:	d000      	beq.n	2698 <ASK_Run+0x470>
    2696:	e60f      	b.n	22b8 <ASK_Run+0x90>
    2698:	683b      	ldr	r3, [r7, #0]
    269a:	687a      	ldr	r2, [r7, #4]
    269c:	4313      	orrs	r3, r2
    269e:	d000      	beq.n	26a2 <ASK_Run+0x47a>
    26a0:	e60a      	b.n	22b8 <ASK_Run+0x90>
    26a2:	4653      	mov	r3, sl
    26a4:	2201      	movs	r2, #1
    26a6:	701a      	strb	r2, [r3, #0]
    26a8:	e606      	b.n	22b8 <ASK_Run+0x90>
    26aa:	687b      	ldr	r3, [r7, #4]
    26ac:	2b00      	cmp	r3, #0
    26ae:	d000      	beq.n	26b2 <ASK_Run+0x48a>
    26b0:	e64a      	b.n	2348 <ASK_Run+0x120>
    26b2:	e7ea      	b.n	268a <ASK_Run+0x462>
    26b4:	00003e74 	.word	0x00003e74
    26b8:	00084210 	.word	0x00084210
    26bc:	84210842 	.word	0x84210842
    26c0:	55555555 	.word	0x55555555
    26c4:	33333333 	.word	0x33333333
    26c8:	08421084 	.word	0x08421084
    26cc:	00108421 	.word	0x00108421
    26d0:	0f0f0f0f 	.word	0x0f0f0f0f
    26d4:	10842108 	.word	0x10842108
    26d8:	00210842 	.word	0x00210842
    26dc:	21084210 	.word	0x21084210
    26e0:	00421084 	.word	0x00421084
    26e4:	20000944 	.word	0x20000944
    26e8:	000017d5 	.word	0x000017d5
    26ec:	687b      	ldr	r3, [r7, #4]
    26ee:	2b00      	cmp	r3, #0
    26f0:	d000      	beq.n	26f4 <ASK_Run+0x4cc>
    26f2:	e5f6      	b.n	22e2 <ASK_Run+0xba>
    26f4:	2108      	movs	r1, #8
    26f6:	464a      	mov	r2, r9
    26f8:	ab06      	add	r3, sp, #24
    26fa:	185b      	adds	r3, r3, r1
    26fc:	589b      	ldr	r3, [r3, r2]
    26fe:	2b10      	cmp	r3, #16
    2700:	dd3a      	ble.n	2778 <ASK_Run+0x550>
    2702:	4640      	mov	r0, r8
    2704:	2100      	movs	r1, #0
    2706:	2200      	movs	r2, #0
    2708:	6001      	str	r1, [r0, #0]
    270a:	6042      	str	r2, [r0, #4]
    270c:	2010      	movs	r0, #16
    270e:	aa06      	add	r2, sp, #24
    2710:	1812      	adds	r2, r2, r0
    2712:	4649      	mov	r1, r9
    2714:	2000      	movs	r0, #0
    2716:	3301      	adds	r3, #1
    2718:	105b      	asrs	r3, r3, #1
    271a:	5050      	str	r0, [r2, r1]
    271c:	1c19      	adds	r1, r3, #0
    271e:	2200      	movs	r2, #0
    2720:	2300      	movs	r3, #0
    2722:	4684      	mov	ip, r0
    2724:	9200      	str	r2, [sp, #0]
    2726:	9301      	str	r3, [sp, #4]
    2728:	2900      	cmp	r1, #0
    272a:	dd22      	ble.n	2772 <ASK_Run+0x54a>
    272c:	1c08      	adds	r0, r1, #0
    272e:	9702      	str	r7, [sp, #8]
    2730:	4661      	mov	r1, ip
    2732:	1c27      	adds	r7, r4, #0
    2734:	46ac      	mov	ip, r5
    2736:	9603      	str	r6, [sp, #12]
    2738:	1c14      	adds	r4, r2, #0
    273a:	1c1d      	adds	r5, r3, #0
    273c:	2601      	movs	r6, #1
    273e:	18a4      	adds	r4, r4, r2
    2740:	415d      	adcs	r5, r3
    2742:	3101      	adds	r1, #1
    2744:	4326      	orrs	r6, r4
    2746:	1c32      	adds	r2, r6, #0
    2748:	1c2b      	adds	r3, r5, #0
    274a:	4281      	cmp	r1, r0
    274c:	d1f4      	bne.n	2738 <ASK_Run+0x510>
    274e:	9200      	str	r2, [sp, #0]
    2750:	9301      	str	r3, [sp, #4]
    2752:	4665      	mov	r5, ip
    2754:	2310      	movs	r3, #16
    2756:	468c      	mov	ip, r1
    2758:	a906      	add	r1, sp, #24
    275a:	18c9      	adds	r1, r1, r3
    275c:	4648      	mov	r0, r9
    275e:	4663      	mov	r3, ip
    2760:	500b      	str	r3, [r1, r0]
    2762:	4643      	mov	r3, r8
    2764:	9900      	ldr	r1, [sp, #0]
    2766:	9a01      	ldr	r2, [sp, #4]
    2768:	6019      	str	r1, [r3, #0]
    276a:	605a      	str	r2, [r3, #4]
    276c:	1c3c      	adds	r4, r7, #0
    276e:	9e03      	ldr	r6, [sp, #12]
    2770:	9f02      	ldr	r7, [sp, #8]
    2772:	2302      	movs	r3, #2
    2774:	4652      	mov	r2, sl
    2776:	7013      	strb	r3, [r2, #0]
    2778:	2108      	movs	r1, #8
    277a:	ab06      	add	r3, sp, #24
    277c:	185b      	adds	r3, r3, r1
    277e:	464a      	mov	r2, r9
    2780:	2100      	movs	r1, #0
    2782:	5099      	str	r1, [r3, r2]
    2784:	e598      	b.n	22b8 <ASK_Run+0x90>
    2786:	1c21      	adds	r1, r4, #0
    2788:	4640      	mov	r0, r8
    278a:	4311      	orrs	r1, r2
    278c:	9103      	str	r1, [sp, #12]
    278e:	6001      	str	r1, [r0, #0]
    2790:	6043      	str	r3, [r0, #4]
    2792:	e5e5      	b.n	2360 <ASK_Run+0x138>

00002794 <ASK_Init>:
    2794:	b570      	push	{r4, r5, r6, lr}
    2796:	2500      	movs	r5, #0
    2798:	2400      	movs	r4, #0
    279a:	b08e      	sub	sp, #56	; 0x38
    279c:	4e24      	ldr	r6, [pc, #144]	; (2830 <ASK_Init+0x9c>)
    279e:	47b0      	blx	r6
    27a0:	4b24      	ldr	r3, [pc, #144]	; (2834 <ASK_Init+0xa0>)
    27a2:	701d      	strb	r5, [r3, #0]
    27a4:	4b24      	ldr	r3, [pc, #144]	; (2838 <ASK_Init+0xa4>)
    27a6:	801d      	strh	r5, [r3, #0]
    27a8:	4b24      	ldr	r3, [pc, #144]	; (283c <ASK_Init+0xa8>)
    27aa:	701c      	strb	r4, [r3, #0]
    27ac:	4b24      	ldr	r3, [pc, #144]	; (2840 <ASK_Init+0xac>)
    27ae:	4798      	blx	r3
    27b0:	2320      	movs	r3, #32
    27b2:	aa01      	add	r2, sp, #4
    27b4:	7014      	strb	r4, [r2, #0]
    27b6:	7094      	strb	r4, [r2, #2]
    27b8:	7054      	strb	r4, [r2, #1]
    27ba:	7294      	strb	r4, [r2, #10]
    27bc:	72d4      	strb	r4, [r2, #11]
    27be:	7314      	strb	r4, [r2, #12]
    27c0:	7394      	strb	r4, [r2, #14]
    27c2:	7354      	strb	r4, [r2, #13]
    27c4:	7414      	strb	r4, [r2, #16]
    27c6:	7714      	strb	r4, [r2, #28]
    27c8:	7193      	strb	r3, [r2, #6]
    27ca:	4c1e      	ldr	r4, [pc, #120]	; (2844 <ASK_Init+0xb0>)
    27cc:	4b1e      	ldr	r3, [pc, #120]	; (2848 <ASK_Init+0xb4>)
    27ce:	6155      	str	r5, [r2, #20]
    27d0:	8553      	strh	r3, [r2, #42]	; 0x2a
    27d2:	6195      	str	r5, [r2, #24]
    27d4:	6215      	str	r5, [r2, #32]
    27d6:	6255      	str	r5, [r2, #36]	; 0x24
    27d8:	491c      	ldr	r1, [pc, #112]	; (284c <ASK_Init+0xb8>)
    27da:	4b1d      	ldr	r3, [pc, #116]	; (2850 <ASK_Init+0xbc>)
    27dc:	1c20      	adds	r0, r4, #0
    27de:	8095      	strh	r5, [r2, #4]
    27e0:	8115      	strh	r5, [r2, #8]
    27e2:	8515      	strh	r5, [r2, #40]	; 0x28
    27e4:	8595      	strh	r5, [r2, #44]	; 0x2c
    27e6:	4798      	blx	r3
    27e8:	491a      	ldr	r1, [pc, #104]	; (2854 <ASK_Init+0xc0>)
    27ea:	2202      	movs	r2, #2
    27ec:	4b1a      	ldr	r3, [pc, #104]	; (2858 <ASK_Init+0xc4>)
    27ee:	1c20      	adds	r0, r4, #0
    27f0:	4798      	blx	r3
    27f2:	4b1a      	ldr	r3, [pc, #104]	; (285c <ASK_Init+0xc8>)
    27f4:	6820      	ldr	r0, [r4, #0]
    27f6:	4798      	blx	r3
    27f8:	221f      	movs	r2, #31
    27fa:	4b19      	ldr	r3, [pc, #100]	; (2860 <ASK_Init+0xcc>)
    27fc:	217f      	movs	r1, #127	; 0x7f
    27fe:	5c1b      	ldrb	r3, [r3, r0]
    2800:	4013      	ands	r3, r2
    2802:	3a1e      	subs	r2, #30
    2804:	409a      	lsls	r2, r3
    2806:	1c13      	adds	r3, r2, #0
    2808:	4a16      	ldr	r2, [pc, #88]	; (2864 <ASK_Init+0xd0>)
    280a:	6013      	str	r3, [r2, #0]
    280c:	2310      	movs	r3, #16
    280e:	7e62      	ldrb	r2, [r4, #25]
    2810:	4313      	orrs	r3, r2
    2812:	7663      	strb	r3, [r4, #25]
    2814:	2310      	movs	r3, #16
    2816:	6822      	ldr	r2, [r4, #0]
    2818:	7353      	strb	r3, [r2, #13]
    281a:	7bd3      	ldrb	r3, [r2, #15]
    281c:	438b      	bics	r3, r1
    281e:	d1fc      	bne.n	281a <ASK_Init+0x86>
    2820:	8811      	ldrh	r1, [r2, #0]
    2822:	3302      	adds	r3, #2
    2824:	430b      	orrs	r3, r1
    2826:	8013      	strh	r3, [r2, #0]
    2828:	47b0      	blx	r6
    282a:	b00e      	add	sp, #56	; 0x38
    282c:	bd70      	pop	{r4, r5, r6, pc}
    282e:	46c0      	nop			; (mov r8, r8)
    2830:	0000102d 	.word	0x0000102d
    2834:	200000b1 	.word	0x200000b1
    2838:	200008b4 	.word	0x200008b4
    283c:	200000b0 	.word	0x200000b0
    2840:	00001045 	.word	0x00001045
    2844:	200008b8 	.word	0x200008b8
    2848:	000017ff 	.word	0x000017ff
    284c:	42002c00 	.word	0x42002c00
    2850:	00000c81 	.word	0x00000c81
    2854:	000021b9 	.word	0x000021b9
    2858:	00000b55 	.word	0x00000b55
    285c:	00000c45 	.word	0x00000c45
    2860:	00003ef4 	.word	0x00003ef4
    2864:	e000e100 	.word	0xe000e100

00002868 <Mifare_Init>:
    2868:	2364      	movs	r3, #100	; 0x64
    286a:	b570      	push	{r4, r5, r6, lr}
    286c:	b08a      	sub	sp, #40	; 0x28
    286e:	466a      	mov	r2, sp
    2870:	9300      	str	r3, [sp, #0]
    2872:	2300      	movs	r3, #0
    2874:	7113      	strb	r3, [r2, #4]
    2876:	7413      	strb	r3, [r2, #16]
    2878:	2280      	movs	r2, #128	; 0x80
    287a:	4669      	mov	r1, sp
    287c:	0392      	lsls	r2, r2, #14
    287e:	9202      	str	r2, [sp, #8]
    2880:	2201      	movs	r2, #1
    2882:	770b      	strb	r3, [r1, #28]
    2884:	9308      	str	r3, [sp, #32]
    2886:	33d7      	adds	r3, #215	; 0xd7
    2888:	848b      	strh	r3, [r1, #36]	; 0x24
    288a:	4b19      	ldr	r3, [pc, #100]	; (28f0 <Mifare_Init+0x88>)
    288c:	4252      	negs	r2, r2
    288e:	81cb      	strh	r3, [r1, #14]
    2890:	4b18      	ldr	r3, [pc, #96]	; (28f4 <Mifare_Init+0x8c>)
    2892:	4c19      	ldr	r4, [pc, #100]	; (28f8 <Mifare_Init+0x90>)
    2894:	9305      	str	r3, [sp, #20]
    2896:	4b19      	ldr	r3, [pc, #100]	; (28fc <Mifare_Init+0x94>)
    2898:	4d19      	ldr	r5, [pc, #100]	; (2900 <Mifare_Init+0x98>)
    289a:	818a      	strh	r2, [r1, #12]
    289c:	9306      	str	r3, [sp, #24]
    289e:	1c20      	adds	r0, r4, #0
    28a0:	4918      	ldr	r1, [pc, #96]	; (2904 <Mifare_Init+0x9c>)
    28a2:	466a      	mov	r2, sp
    28a4:	47a8      	blx	r5
    28a6:	2800      	cmp	r0, #0
    28a8:	d1f9      	bne.n	289e <Mifare_Init+0x36>
    28aa:	6822      	ldr	r2, [r4, #0]
    28ac:	8a13      	ldrh	r3, [r2, #16]
    28ae:	0bdb      	lsrs	r3, r3, #15
    28b0:	d1fc      	bne.n	28ac <Mifare_Init+0x44>
    28b2:	6811      	ldr	r1, [r2, #0]
    28b4:	3302      	adds	r3, #2
    28b6:	430b      	orrs	r3, r1
    28b8:	6013      	str	r3, [r2, #0]
    28ba:	88e4      	ldrh	r4, [r4, #6]
    28bc:	2300      	movs	r3, #0
    28be:	2010      	movs	r0, #16
    28c0:	e002      	b.n	28c8 <Mifare_Init+0x60>
    28c2:	3301      	adds	r3, #1
    28c4:	42a3      	cmp	r3, r4
    28c6:	d210      	bcs.n	28ea <Mifare_Init+0x82>
    28c8:	8a11      	ldrh	r1, [r2, #16]
    28ca:	4208      	tst	r0, r1
    28cc:	d0f9      	beq.n	28c2 <Mifare_Init+0x5a>
    28ce:	2680      	movs	r6, #128	; 0x80
    28d0:	4d0d      	ldr	r5, [pc, #52]	; (2908 <Mifare_Init+0xa0>)
    28d2:	0276      	lsls	r6, r6, #9
    28d4:	4c0d      	ldr	r4, [pc, #52]	; (290c <Mifare_Init+0xa4>)
    28d6:	616e      	str	r6, [r5, #20]
    28d8:	2064      	movs	r0, #100	; 0x64
    28da:	47a0      	blx	r4
    28dc:	2064      	movs	r0, #100	; 0x64
    28de:	61ae      	str	r6, [r5, #24]
    28e0:	47a0      	blx	r4
    28e2:	4b0b      	ldr	r3, [pc, #44]	; (2910 <Mifare_Init+0xa8>)
    28e4:	4798      	blx	r3
    28e6:	b00a      	add	sp, #40	; 0x28
    28e8:	bd70      	pop	{r4, r5, r6, pc}
    28ea:	2310      	movs	r3, #16
    28ec:	8213      	strh	r3, [r2, #16]
    28ee:	e7ee      	b.n	28ce <Mifare_Init+0x66>
    28f0:	00002710 	.word	0x00002710
    28f4:	00160002 	.word	0x00160002
    28f8:	20000994 	.word	0x20000994
    28fc:	00170002 	.word	0x00170002
    2900:	000005b9 	.word	0x000005b9
    2904:	42001400 	.word	0x42001400
    2908:	41004400 	.word	0x41004400
    290c:	00000369 	.word	0x00000369
    2910:	00001d05 	.word	0x00001d05

00002914 <Mifare_Run>:
    2914:	b5f0      	push	{r4, r5, r6, r7, lr}
    2916:	465f      	mov	r7, fp
    2918:	4656      	mov	r6, sl
    291a:	464d      	mov	r5, r9
    291c:	4644      	mov	r4, r8
    291e:	4b17      	ldr	r3, [pc, #92]	; (297c <Mifare_Run+0x68>)
    2920:	b4f0      	push	{r4, r5, r6, r7}
    2922:	469a      	mov	sl, r3
    2924:	4b16      	ldr	r3, [pc, #88]	; (2980 <Mifare_Run+0x6c>)
    2926:	250b      	movs	r5, #11
    2928:	4699      	mov	r9, r3
    292a:	4b16      	ldr	r3, [pc, #88]	; (2984 <Mifare_Run+0x70>)
    292c:	270a      	movs	r7, #10
    292e:	469b      	mov	fp, r3
    2930:	4b15      	ldr	r3, [pc, #84]	; (2988 <Mifare_Run+0x74>)
    2932:	26ff      	movs	r6, #255	; 0xff
    2934:	4698      	mov	r8, r3
    2936:	b087      	sub	sp, #28
    2938:	446d      	add	r5, sp
    293a:	ac04      	add	r4, sp, #16
    293c:	446f      	add	r7, sp
    293e:	2005      	movs	r0, #5
    2940:	702e      	strb	r6, [r5, #0]
    2942:	47d0      	blx	sl
    2944:	9700      	str	r7, [sp, #0]
    2946:	2026      	movs	r0, #38	; 0x26
    2948:	a903      	add	r1, sp, #12
    294a:	1c22      	adds	r2, r4, #0
    294c:	1c2b      	adds	r3, r5, #0
    294e:	47c8      	blx	r9
    2950:	2800      	cmp	r0, #0
    2952:	d001      	beq.n	2958 <Mifare_Run+0x44>
    2954:	47c0      	blx	r8
    2956:	e7f2      	b.n	293e <Mifare_Run+0x2a>
    2958:	7823      	ldrb	r3, [r4, #0]
    295a:	2100      	movs	r1, #0
    295c:	0618      	lsls	r0, r3, #24
    295e:	7863      	ldrb	r3, [r4, #1]
    2960:	041b      	lsls	r3, r3, #16
    2962:	18c3      	adds	r3, r0, r3
    2964:	78e0      	ldrb	r0, [r4, #3]
    2966:	181b      	adds	r3, r3, r0
    2968:	78a0      	ldrb	r0, [r4, #2]
    296a:	0200      	lsls	r0, r0, #8
    296c:	1818      	adds	r0, r3, r0
    296e:	465b      	mov	r3, fp
    2970:	781a      	ldrb	r2, [r3, #0]
    2972:	4b06      	ldr	r3, [pc, #24]	; (298c <Mifare_Run+0x78>)
    2974:	4798      	blx	r3
    2976:	47c0      	blx	r8
    2978:	e7e1      	b.n	293e <Mifare_Run+0x2a>
    297a:	46c0      	nop			; (mov r8, r8)
    297c:	00001de5 	.word	0x00001de5
    2980:	00002991 	.word	0x00002991
    2984:	20000944 	.word	0x20000944
    2988:	0000102d 	.word	0x0000102d
    298c:	000017d5 	.word	0x000017d5

00002990 <ActivateCard>:
    2990:	b538      	push	{r3, r4, r5, lr}
    2992:	1c14      	adds	r4, r2, #0
    2994:	1c1d      	adds	r5, r3, #0
    2996:	4b17      	ldr	r3, [pc, #92]	; (29f4 <ActivateCard+0x64>)
    2998:	4798      	blx	r3
    299a:	1e03      	subs	r3, r0, #0
    299c:	d127      	bne.n	29ee <ActivateCard+0x5e>
    299e:	3093      	adds	r0, #147	; 0x93
    29a0:	2100      	movs	r1, #0
    29a2:	1c22      	adds	r2, r4, #0
    29a4:	4b14      	ldr	r3, [pc, #80]	; (29f8 <ActivateCard+0x68>)
    29a6:	4798      	blx	r3
    29a8:	1e03      	subs	r3, r0, #0
    29aa:	d120      	bne.n	29ee <ActivateCard+0x5e>
    29ac:	3093      	adds	r0, #147	; 0x93
    29ae:	1c21      	adds	r1, r4, #0
    29b0:	9a04      	ldr	r2, [sp, #16]
    29b2:	4b12      	ldr	r3, [pc, #72]	; (29fc <ActivateCard+0x6c>)
    29b4:	4798      	blx	r3
    29b6:	1e03      	subs	r3, r0, #0
    29b8:	d119      	bne.n	29ee <ActivateCard+0x5e>
    29ba:	9b04      	ldr	r3, [sp, #16]
    29bc:	781b      	ldrb	r3, [r3, #0]
    29be:	075b      	lsls	r3, r3, #29
    29c0:	d512      	bpl.n	29e8 <ActivateCard+0x58>
    29c2:	3404      	adds	r4, #4
    29c4:	3095      	adds	r0, #149	; 0x95
    29c6:	2100      	movs	r1, #0
    29c8:	1c22      	adds	r2, r4, #0
    29ca:	4b0b      	ldr	r3, [pc, #44]	; (29f8 <ActivateCard+0x68>)
    29cc:	4798      	blx	r3
    29ce:	1e03      	subs	r3, r0, #0
    29d0:	d10d      	bne.n	29ee <ActivateCard+0x5e>
    29d2:	3095      	adds	r0, #149	; 0x95
    29d4:	1c21      	adds	r1, r4, #0
    29d6:	9a04      	ldr	r2, [sp, #16]
    29d8:	4b08      	ldr	r3, [pc, #32]	; (29fc <ActivateCard+0x6c>)
    29da:	4798      	blx	r3
    29dc:	1e03      	subs	r3, r0, #0
    29de:	d106      	bne.n	29ee <ActivateCard+0x5e>
    29e0:	2308      	movs	r3, #8
    29e2:	702b      	strb	r3, [r5, #0]
    29e4:	1c03      	adds	r3, r0, #0
    29e6:	e002      	b.n	29ee <ActivateCard+0x5e>
    29e8:	2304      	movs	r3, #4
    29ea:	702b      	strb	r3, [r5, #0]
    29ec:	2300      	movs	r3, #0
    29ee:	b218      	sxth	r0, r3
    29f0:	bd38      	pop	{r3, r4, r5, pc}
    29f2:	46c0      	nop			; (mov r8, r8)
    29f4:	00001e09 	.word	0x00001e09
    29f8:	00001eb5 	.word	0x00001eb5
    29fc:	00002069 	.word	0x00002069

00002a00 <TxWiegandPacket>:
    2a00:	b5f8      	push	{r3, r4, r5, r6, r7, lr}
    2a02:	465f      	mov	r7, fp
    2a04:	4656      	mov	r6, sl
    2a06:	464d      	mov	r5, r9
    2a08:	4644      	mov	r4, r8
    2a0a:	b4f0      	push	{r4, r5, r6, r7}
    2a0c:	2a1a      	cmp	r2, #26
    2a0e:	d060      	beq.n	2ad2 <TxWiegandPacket+0xd2>
    2a10:	2a22      	cmp	r2, #34	; 0x22
    2a12:	d02d      	beq.n	2a70 <TxWiegandPacket+0x70>
    2a14:	1e54      	subs	r4, r2, #1
    2a16:	b2e4      	uxtb	r4, r4
    2a18:	b263      	sxtb	r3, r4
    2a1a:	2b00      	cmp	r3, #0
    2a1c:	db53      	blt.n	2ac6 <TxWiegandPacket+0xc6>
    2a1e:	4680      	mov	r8, r0
    2a20:	1c0d      	adds	r5, r1, #0
    2a22:	2220      	movs	r2, #32
    2a24:	4e40      	ldr	r6, [pc, #256]	; (2b28 <TxWiegandPacket+0x128>)
    2a26:	4691      	mov	r9, r2
    2a28:	2701      	movs	r7, #1
    2a2a:	e014      	b.n	2a56 <TxWiegandPacket+0x56>
    2a2c:	4b3f      	ldr	r3, [pc, #252]	; (2b2c <TxWiegandPacket+0x12c>)
    2a2e:	469a      	mov	sl, r3
    2a30:	2380      	movs	r3, #128	; 0x80
    2a32:	009b      	lsls	r3, r3, #2
    2a34:	469b      	mov	fp, r3
    2a36:	4653      	mov	r3, sl
    2a38:	465a      	mov	r2, fp
    2a3a:	2064      	movs	r0, #100	; 0x64
    2a3c:	619a      	str	r2, [r3, #24]
    2a3e:	47b0      	blx	r6
    2a40:	4653      	mov	r3, sl
    2a42:	465a      	mov	r2, fp
    2a44:	20fa      	movs	r0, #250	; 0xfa
    2a46:	3c01      	subs	r4, #1
    2a48:	615a      	str	r2, [r3, #20]
    2a4a:	00c0      	lsls	r0, r0, #3
    2a4c:	b2e4      	uxtb	r4, r4
    2a4e:	47b0      	blx	r6
    2a50:	b263      	sxtb	r3, r4
    2a52:	2b00      	cmp	r3, #0
    2a54:	db37      	blt.n	2ac6 <TxWiegandPacket+0xc6>
    2a56:	2220      	movs	r2, #32
    2a58:	4252      	negs	r2, r2
    2a5a:	189a      	adds	r2, r3, r2
    2a5c:	d429      	bmi.n	2ab2 <TxWiegandPacket+0xb2>
    2a5e:	1c2b      	adds	r3, r5, #0
    2a60:	40d3      	lsrs	r3, r2
    2a62:	423b      	tst	r3, r7
    2a64:	d1e2      	bne.n	2a2c <TxWiegandPacket+0x2c>
    2a66:	4b31      	ldr	r3, [pc, #196]	; (2b2c <TxWiegandPacket+0x12c>)
    2a68:	469a      	mov	sl, r3
    2a6a:	2380      	movs	r3, #128	; 0x80
    2a6c:	005b      	lsls	r3, r3, #1
    2a6e:	e7e1      	b.n	2a34 <TxWiegandPacket+0x34>
    2a70:	1c06      	adds	r6, r0, #0
    2a72:	2700      	movs	r7, #0
    2a74:	2500      	movs	r5, #0
    2a76:	0c03      	lsrs	r3, r0, #16
    2a78:	d006      	beq.n	2a88 <TxWiegandPacket+0x88>
    2a7a:	2001      	movs	r0, #1
    2a7c:	1c01      	adds	r1, r0, #0
    2a7e:	4019      	ands	r1, r3
    2a80:	404d      	eors	r5, r1
    2a82:	085b      	lsrs	r3, r3, #1
    2a84:	d1fa      	bne.n	2a7c <TxWiegandPacket+0x7c>
    2a86:	006d      	lsls	r5, r5, #1
    2a88:	0433      	lsls	r3, r6, #16
    2a8a:	0c1b      	lsrs	r3, r3, #16
    2a8c:	d047      	beq.n	2b1e <TxWiegandPacket+0x11e>
    2a8e:	2400      	movs	r4, #0
    2a90:	2101      	movs	r1, #1
    2a92:	1c08      	adds	r0, r1, #0
    2a94:	4018      	ands	r0, r3
    2a96:	4044      	eors	r4, r0
    2a98:	085b      	lsrs	r3, r3, #1
    2a9a:	d1fa      	bne.n	2a92 <TxWiegandPacket+0x92>
    2a9c:	2001      	movs	r0, #1
    2a9e:	43a0      	bics	r0, r4
    2aa0:	19b6      	adds	r6, r6, r6
    2aa2:	417f      	adcs	r7, r7
    2aa4:	4330      	orrs	r0, r6
    2aa6:	4680      	mov	r8, r0
    2aa8:	433d      	orrs	r5, r7
    2aaa:	1e54      	subs	r4, r2, #1
    2aac:	b2e4      	uxtb	r4, r4
    2aae:	b263      	sxtb	r3, r4
    2ab0:	e7b7      	b.n	2a22 <TxWiegandPacket+0x22>
    2ab2:	464a      	mov	r2, r9
    2ab4:	1c29      	adds	r1, r5, #0
    2ab6:	1ad2      	subs	r2, r2, r3
    2ab8:	4091      	lsls	r1, r2
    2aba:	1c0a      	adds	r2, r1, #0
    2abc:	4641      	mov	r1, r8
    2abe:	40d9      	lsrs	r1, r3
    2ac0:	1c0b      	adds	r3, r1, #0
    2ac2:	4313      	orrs	r3, r2
    2ac4:	e7cd      	b.n	2a62 <TxWiegandPacket+0x62>
    2ac6:	bc3c      	pop	{r2, r3, r4, r5}
    2ac8:	4690      	mov	r8, r2
    2aca:	4699      	mov	r9, r3
    2acc:	46a2      	mov	sl, r4
    2ace:	46ab      	mov	fp, r5
    2ad0:	bdf8      	pop	{r3, r4, r5, r6, r7, pc}
    2ad2:	2300      	movs	r3, #0
    2ad4:	0200      	lsls	r0, r0, #8
    2ad6:	0a06      	lsrs	r6, r0, #8
    2ad8:	0b30      	lsrs	r0, r6, #12
    2ada:	469c      	mov	ip, r3
    2adc:	2700      	movs	r7, #0
    2ade:	1e03      	subs	r3, r0, #0
    2ae0:	d009      	beq.n	2af6 <TxWiegandPacket+0xf6>
    2ae2:	2000      	movs	r0, #0
    2ae4:	2401      	movs	r4, #1
    2ae6:	1c21      	adds	r1, r4, #0
    2ae8:	4019      	ands	r1, r3
    2aea:	4048      	eors	r0, r1
    2aec:	085b      	lsrs	r3, r3, #1
    2aee:	d1fa      	bne.n	2ae6 <TxWiegandPacket+0xe6>
    2af0:	09c3      	lsrs	r3, r0, #7
    2af2:	469c      	mov	ip, r3
    2af4:	0640      	lsls	r0, r0, #25
    2af6:	0533      	lsls	r3, r6, #20
    2af8:	0d1b      	lsrs	r3, r3, #20
    2afa:	d012      	beq.n	2b22 <TxWiegandPacket+0x122>
    2afc:	2400      	movs	r4, #0
    2afe:	2501      	movs	r5, #1
    2b00:	1c29      	adds	r1, r5, #0
    2b02:	4019      	ands	r1, r3
    2b04:	404c      	eors	r4, r1
    2b06:	085b      	lsrs	r3, r3, #1
    2b08:	d1fa      	bne.n	2b00 <TxWiegandPacket+0x100>
    2b0a:	3301      	adds	r3, #1
    2b0c:	43a3      	bics	r3, r4
    2b0e:	19b6      	adds	r6, r6, r6
    2b10:	417f      	adcs	r7, r7
    2b12:	4665      	mov	r5, ip
    2b14:	4330      	orrs	r0, r6
    2b16:	4318      	orrs	r0, r3
    2b18:	4680      	mov	r8, r0
    2b1a:	433d      	orrs	r5, r7
    2b1c:	e7c5      	b.n	2aaa <TxWiegandPacket+0xaa>
    2b1e:	2001      	movs	r0, #1
    2b20:	e7be      	b.n	2aa0 <TxWiegandPacket+0xa0>
    2b22:	2301      	movs	r3, #1
    2b24:	e7f3      	b.n	2b0e <TxWiegandPacket+0x10e>
    2b26:	46c0      	nop			; (mov r8, r8)
    2b28:	0000033d 	.word	0x0000033d
    2b2c:	41004400 	.word	0x41004400

00002b30 <system_board_init>:
    2b30:	4770      	bx	lr
    2b32:	46c0      	nop			; (mov r8, r8)

00002b34 <cpu_irq_enter_critical>:
    2b34:	4b0c      	ldr	r3, [pc, #48]	; (2b68 <cpu_irq_enter_critical+0x34>)
    2b36:	681b      	ldr	r3, [r3, #0]
    2b38:	2b00      	cmp	r3, #0
    2b3a:	d110      	bne.n	2b5e <cpu_irq_enter_critical+0x2a>
    2b3c:	f3ef 8310 	mrs	r3, PRIMASK
    2b40:	2b00      	cmp	r3, #0
    2b42:	d109      	bne.n	2b58 <cpu_irq_enter_critical+0x24>
    2b44:	b672      	cpsid	i
    2b46:	f3bf 8f5f 	dmb	sy
    2b4a:	2200      	movs	r2, #0
    2b4c:	4b07      	ldr	r3, [pc, #28]	; (2b6c <cpu_irq_enter_critical+0x38>)
    2b4e:	701a      	strb	r2, [r3, #0]
    2b50:	3201      	adds	r2, #1
    2b52:	4b07      	ldr	r3, [pc, #28]	; (2b70 <cpu_irq_enter_critical+0x3c>)
    2b54:	701a      	strb	r2, [r3, #0]
    2b56:	e002      	b.n	2b5e <cpu_irq_enter_critical+0x2a>
    2b58:	2200      	movs	r2, #0
    2b5a:	4b05      	ldr	r3, [pc, #20]	; (2b70 <cpu_irq_enter_critical+0x3c>)
    2b5c:	701a      	strb	r2, [r3, #0]
    2b5e:	4a02      	ldr	r2, [pc, #8]	; (2b68 <cpu_irq_enter_critical+0x34>)
    2b60:	6813      	ldr	r3, [r2, #0]
    2b62:	3301      	adds	r3, #1
    2b64:	6013      	str	r3, [r2, #0]
    2b66:	4770      	bx	lr
    2b68:	200008d4 	.word	0x200008d4
    2b6c:	20000008 	.word	0x20000008
    2b70:	200008d8 	.word	0x200008d8

00002b74 <cpu_irq_leave_critical>:
    2b74:	4b08      	ldr	r3, [pc, #32]	; (2b98 <cpu_irq_leave_critical+0x24>)
    2b76:	681a      	ldr	r2, [r3, #0]
    2b78:	3a01      	subs	r2, #1
    2b7a:	601a      	str	r2, [r3, #0]
    2b7c:	681b      	ldr	r3, [r3, #0]
    2b7e:	2b00      	cmp	r3, #0
    2b80:	d109      	bne.n	2b96 <cpu_irq_leave_critical+0x22>
    2b82:	4b06      	ldr	r3, [pc, #24]	; (2b9c <cpu_irq_leave_critical+0x28>)
    2b84:	781b      	ldrb	r3, [r3, #0]
    2b86:	2b00      	cmp	r3, #0
    2b88:	d005      	beq.n	2b96 <cpu_irq_leave_critical+0x22>
    2b8a:	2201      	movs	r2, #1
    2b8c:	4b04      	ldr	r3, [pc, #16]	; (2ba0 <cpu_irq_leave_critical+0x2c>)
    2b8e:	701a      	strb	r2, [r3, #0]
    2b90:	f3bf 8f5f 	dmb	sy
    2b94:	b662      	cpsie	i
    2b96:	4770      	bx	lr
    2b98:	200008d4 	.word	0x200008d4
    2b9c:	200008d8 	.word	0x200008d8
    2ba0:	20000008 	.word	0x20000008

00002ba4 <system_clock_source_get_hz>:
    2ba4:	b508      	push	{r3, lr}
    2ba6:	2807      	cmp	r0, #7
    2ba8:	d803      	bhi.n	2bb2 <system_clock_source_get_hz+0xe>
    2baa:	0080      	lsls	r0, r0, #2
    2bac:	4b17      	ldr	r3, [pc, #92]	; (2c0c <system_clock_source_get_hz+0x68>)
    2bae:	581b      	ldr	r3, [r3, r0]
    2bb0:	469f      	mov	pc, r3
    2bb2:	2000      	movs	r0, #0
    2bb4:	e028      	b.n	2c08 <system_clock_source_get_hz+0x64>
    2bb6:	4b16      	ldr	r3, [pc, #88]	; (2c10 <system_clock_source_get_hz+0x6c>)
    2bb8:	68d8      	ldr	r0, [r3, #12]
    2bba:	e025      	b.n	2c08 <system_clock_source_get_hz+0x64>
    2bbc:	4b15      	ldr	r3, [pc, #84]	; (2c14 <system_clock_source_get_hz+0x70>)
    2bbe:	6a18      	ldr	r0, [r3, #32]
    2bc0:	0580      	lsls	r0, r0, #22
    2bc2:	0f80      	lsrs	r0, r0, #30
    2bc4:	4b14      	ldr	r3, [pc, #80]	; (2c18 <system_clock_source_get_hz+0x74>)
    2bc6:	40c3      	lsrs	r3, r0
    2bc8:	1c18      	adds	r0, r3, #0
    2bca:	e01d      	b.n	2c08 <system_clock_source_get_hz+0x64>
    2bcc:	4b10      	ldr	r3, [pc, #64]	; (2c10 <system_clock_source_get_hz+0x6c>)
    2bce:	6918      	ldr	r0, [r3, #16]
    2bd0:	e01a      	b.n	2c08 <system_clock_source_get_hz+0x64>
    2bd2:	4b0f      	ldr	r3, [pc, #60]	; (2c10 <system_clock_source_get_hz+0x6c>)
    2bd4:	681b      	ldr	r3, [r3, #0]
    2bd6:	2002      	movs	r0, #2
    2bd8:	4018      	ands	r0, r3
    2bda:	d015      	beq.n	2c08 <system_clock_source_get_hz+0x64>
    2bdc:	490d      	ldr	r1, [pc, #52]	; (2c14 <system_clock_source_get_hz+0x70>)
    2bde:	2210      	movs	r2, #16
    2be0:	68cb      	ldr	r3, [r1, #12]
    2be2:	421a      	tst	r2, r3
    2be4:	d0fc      	beq.n	2be0 <system_clock_source_get_hz+0x3c>
    2be6:	4b0a      	ldr	r3, [pc, #40]	; (2c10 <system_clock_source_get_hz+0x6c>)
    2be8:	681b      	ldr	r3, [r3, #0]
    2bea:	075b      	lsls	r3, r3, #29
    2bec:	d50b      	bpl.n	2c06 <system_clock_source_get_hz+0x62>
    2bee:	2000      	movs	r0, #0
    2bf0:	4b0a      	ldr	r3, [pc, #40]	; (2c1c <system_clock_source_get_hz+0x78>)
    2bf2:	4798      	blx	r3
    2bf4:	4b06      	ldr	r3, [pc, #24]	; (2c10 <system_clock_source_get_hz+0x6c>)
    2bf6:	689b      	ldr	r3, [r3, #8]
    2bf8:	041b      	lsls	r3, r3, #16
    2bfa:	0c1b      	lsrs	r3, r3, #16
    2bfc:	4358      	muls	r0, r3
    2bfe:	e003      	b.n	2c08 <system_clock_source_get_hz+0x64>
    2c00:	2080      	movs	r0, #128	; 0x80
    2c02:	0200      	lsls	r0, r0, #8
    2c04:	e000      	b.n	2c08 <system_clock_source_get_hz+0x64>
    2c06:	4806      	ldr	r0, [pc, #24]	; (2c20 <system_clock_source_get_hz+0x7c>)
    2c08:	bd08      	pop	{r3, pc}
    2c0a:	46c0      	nop			; (mov r8, r8)
    2c0c:	00003efc 	.word	0x00003efc
    2c10:	200008dc 	.word	0x200008dc
    2c14:	40000800 	.word	0x40000800
    2c18:	007a1200 	.word	0x007a1200
    2c1c:	0000327d 	.word	0x0000327d
    2c20:	02dc6c00 	.word	0x02dc6c00

00002c24 <system_clock_source_osc8m_set_config>:
    2c24:	b570      	push	{r4, r5, r6, lr}
    2c26:	4c0c      	ldr	r4, [pc, #48]	; (2c58 <system_clock_source_osc8m_set_config+0x34>)
    2c28:	6a23      	ldr	r3, [r4, #32]
    2c2a:	7801      	ldrb	r1, [r0, #0]
    2c2c:	7885      	ldrb	r5, [r0, #2]
    2c2e:	7842      	ldrb	r2, [r0, #1]
    2c30:	2001      	movs	r0, #1
    2c32:	4002      	ands	r2, r0
    2c34:	0192      	lsls	r2, r2, #6
    2c36:	2640      	movs	r6, #64	; 0x40
    2c38:	43b3      	bics	r3, r6
    2c3a:	4313      	orrs	r3, r2
    2c3c:	1c02      	adds	r2, r0, #0
    2c3e:	402a      	ands	r2, r5
    2c40:	01d2      	lsls	r2, r2, #7
    2c42:	307f      	adds	r0, #127	; 0x7f
    2c44:	4383      	bics	r3, r0
    2c46:	4313      	orrs	r3, r2
    2c48:	2203      	movs	r2, #3
    2c4a:	400a      	ands	r2, r1
    2c4c:	0212      	lsls	r2, r2, #8
    2c4e:	4903      	ldr	r1, [pc, #12]	; (2c5c <system_clock_source_osc8m_set_config+0x38>)
    2c50:	400b      	ands	r3, r1
    2c52:	4313      	orrs	r3, r2
    2c54:	6223      	str	r3, [r4, #32]
    2c56:	bd70      	pop	{r4, r5, r6, pc}
    2c58:	40000800 	.word	0x40000800
    2c5c:	fffffcff 	.word	0xfffffcff

00002c60 <system_clock_source_xosc_set_config>:
    2c60:	b5f0      	push	{r4, r5, r6, r7, lr}
    2c62:	4647      	mov	r7, r8
    2c64:	b480      	push	{r7}
    2c66:	1c02      	adds	r2, r0, #0
    2c68:	4b28      	ldr	r3, [pc, #160]	; (2d0c <system_clock_source_xosc_set_config+0xac>)
    2c6a:	8a19      	ldrh	r1, [r3, #16]
    2c6c:	054d      	lsls	r5, r1, #21
    2c6e:	0f6d      	lsrs	r5, r5, #29
    2c70:	7843      	ldrb	r3, [r0, #1]
    2c72:	240f      	movs	r4, #15
    2c74:	401c      	ands	r4, r3
    2c76:	7806      	ldrb	r6, [r0, #0]
    2c78:	4273      	negs	r3, r6
    2c7a:	415e      	adcs	r6, r3
    2c7c:	b2f6      	uxtb	r6, r6
    2c7e:	7883      	ldrb	r3, [r0, #2]
    2c80:	2b00      	cmp	r3, #0
    2c82:	d118      	bne.n	2cb6 <system_clock_source_xosc_set_config+0x56>
    2c84:	6840      	ldr	r0, [r0, #4]
    2c86:	4f22      	ldr	r7, [pc, #136]	; (2d10 <system_clock_source_xosc_set_config+0xb0>)
    2c88:	42b8      	cmp	r0, r7
    2c8a:	d90d      	bls.n	2ca8 <system_clock_source_xosc_set_config+0x48>
    2c8c:	4f21      	ldr	r7, [pc, #132]	; (2d14 <system_clock_source_xosc_set_config+0xb4>)
    2c8e:	42b8      	cmp	r0, r7
    2c90:	d90c      	bls.n	2cac <system_clock_source_xosc_set_config+0x4c>
    2c92:	4f21      	ldr	r7, [pc, #132]	; (2d18 <system_clock_source_xosc_set_config+0xb8>)
    2c94:	42b8      	cmp	r0, r7
    2c96:	d90b      	bls.n	2cb0 <system_clock_source_xosc_set_config+0x50>
    2c98:	4f20      	ldr	r7, [pc, #128]	; (2d1c <system_clock_source_xosc_set_config+0xbc>)
    2c9a:	42b8      	cmp	r0, r7
    2c9c:	d90a      	bls.n	2cb4 <system_clock_source_xosc_set_config+0x54>
    2c9e:	4f20      	ldr	r7, [pc, #128]	; (2d20 <system_clock_source_xosc_set_config+0xc0>)
    2ca0:	42b8      	cmp	r0, r7
    2ca2:	d808      	bhi.n	2cb6 <system_clock_source_xosc_set_config+0x56>
    2ca4:	2504      	movs	r5, #4
    2ca6:	e006      	b.n	2cb6 <system_clock_source_xosc_set_config+0x56>
    2ca8:	2500      	movs	r5, #0
    2caa:	e004      	b.n	2cb6 <system_clock_source_xosc_set_config+0x56>
    2cac:	2501      	movs	r5, #1
    2cae:	e002      	b.n	2cb6 <system_clock_source_xosc_set_config+0x56>
    2cb0:	2502      	movs	r5, #2
    2cb2:	e000      	b.n	2cb6 <system_clock_source_xosc_set_config+0x56>
    2cb4:	2503      	movs	r5, #3
    2cb6:	7a57      	ldrb	r7, [r2, #9]
    2cb8:	7a10      	ldrb	r0, [r2, #8]
    2cba:	4680      	mov	r8, r0
    2cbc:	6852      	ldr	r2, [r2, #4]
    2cbe:	4694      	mov	ip, r2
    2cc0:	4a18      	ldr	r2, [pc, #96]	; (2d24 <system_clock_source_xosc_set_config+0xc4>)
    2cc2:	4660      	mov	r0, ip
    2cc4:	60d0      	str	r0, [r2, #12]
    2cc6:	2201      	movs	r2, #1
    2cc8:	00b6      	lsls	r6, r6, #2
    2cca:	2004      	movs	r0, #4
    2ccc:	4381      	bics	r1, r0
    2cce:	4331      	orrs	r1, r6
    2cd0:	4640      	mov	r0, r8
    2cd2:	4010      	ands	r0, r2
    2cd4:	0180      	lsls	r0, r0, #6
    2cd6:	2640      	movs	r6, #64	; 0x40
    2cd8:	43b1      	bics	r1, r6
    2cda:	4301      	orrs	r1, r0
    2cdc:	1c38      	adds	r0, r7, #0
    2cde:	4010      	ands	r0, r2
    2ce0:	01c0      	lsls	r0, r0, #7
    2ce2:	3640      	adds	r6, #64	; 0x40
    2ce4:	43b1      	bics	r1, r6
    2ce6:	4301      	orrs	r1, r0
    2ce8:	022d      	lsls	r5, r5, #8
    2cea:	480f      	ldr	r0, [pc, #60]	; (2d28 <system_clock_source_xosc_set_config+0xc8>)
    2cec:	4001      	ands	r1, r0
    2cee:	4329      	orrs	r1, r5
    2cf0:	4013      	ands	r3, r2
    2cf2:	02da      	lsls	r2, r3, #11
    2cf4:	4b0d      	ldr	r3, [pc, #52]	; (2d2c <system_clock_source_xosc_set_config+0xcc>)
    2cf6:	400b      	ands	r3, r1
    2cf8:	4313      	orrs	r3, r2
    2cfa:	0324      	lsls	r4, r4, #12
    2cfc:	051b      	lsls	r3, r3, #20
    2cfe:	0d1b      	lsrs	r3, r3, #20
    2d00:	4323      	orrs	r3, r4
    2d02:	4a02      	ldr	r2, [pc, #8]	; (2d0c <system_clock_source_xosc_set_config+0xac>)
    2d04:	8213      	strh	r3, [r2, #16]
    2d06:	bc04      	pop	{r2}
    2d08:	4690      	mov	r8, r2
    2d0a:	bdf0      	pop	{r4, r5, r6, r7, pc}
    2d0c:	40000800 	.word	0x40000800
    2d10:	001e8480 	.word	0x001e8480
    2d14:	003d0900 	.word	0x003d0900
    2d18:	007a1200 	.word	0x007a1200
    2d1c:	00f42400 	.word	0x00f42400
    2d20:	01c9c380 	.word	0x01c9c380
    2d24:	200008dc 	.word	0x200008dc
    2d28:	fffff8ff 	.word	0xfffff8ff
    2d2c:	fffff7ff 	.word	0xfffff7ff

00002d30 <system_clock_source_dfll_set_config>:
    2d30:	b510      	push	{r4, lr}
    2d32:	4b26      	ldr	r3, [pc, #152]	; (2dcc <system_clock_source_dfll_set_config+0x9c>)
    2d34:	699b      	ldr	r3, [r3, #24]
    2d36:	051b      	lsls	r3, r3, #20
    2d38:	0f1b      	lsrs	r3, r3, #28
    2d3a:	2b02      	cmp	r3, #2
    2d3c:	d809      	bhi.n	2d52 <system_clock_source_dfll_set_config+0x22>
    2d3e:	7a02      	ldrb	r2, [r0, #8]
    2d40:	0212      	lsls	r2, r2, #8
    2d42:	21f8      	movs	r1, #248	; 0xf8
    2d44:	0149      	lsls	r1, r1, #5
    2d46:	400a      	ands	r2, r1
    2d48:	7a81      	ldrb	r1, [r0, #10]
    2d4a:	430a      	orrs	r2, r1
    2d4c:	4920      	ldr	r1, [pc, #128]	; (2dd0 <system_clock_source_dfll_set_config+0xa0>)
    2d4e:	604a      	str	r2, [r1, #4]
    2d50:	e008      	b.n	2d64 <system_clock_source_dfll_set_config+0x34>
    2d52:	7a02      	ldrb	r2, [r0, #8]
    2d54:	0692      	lsls	r2, r2, #26
    2d56:	0c11      	lsrs	r1, r2, #16
    2d58:	8942      	ldrh	r2, [r0, #10]
    2d5a:	0592      	lsls	r2, r2, #22
    2d5c:	0d92      	lsrs	r2, r2, #22
    2d5e:	430a      	orrs	r2, r1
    2d60:	491b      	ldr	r1, [pc, #108]	; (2dd0 <system_clock_source_dfll_set_config+0xa0>)
    2d62:	604a      	str	r2, [r1, #4]
    2d64:	8884      	ldrh	r4, [r0, #4]
    2d66:	8842      	ldrh	r2, [r0, #2]
    2d68:	4314      	orrs	r4, r2
    2d6a:	79c2      	ldrb	r2, [r0, #7]
    2d6c:	7981      	ldrb	r1, [r0, #6]
    2d6e:	430a      	orrs	r2, r1
    2d70:	4322      	orrs	r2, r4
    2d72:	7841      	ldrb	r1, [r0, #1]
    2d74:	01c9      	lsls	r1, r1, #7
    2d76:	430a      	orrs	r2, r1
    2d78:	4915      	ldr	r1, [pc, #84]	; (2dd0 <system_clock_source_dfll_set_config+0xa0>)
    2d7a:	600a      	str	r2, [r1, #0]
    2d7c:	7802      	ldrb	r2, [r0, #0]
    2d7e:	2a04      	cmp	r2, #4
    2d80:	d123      	bne.n	2dca <system_clock_source_dfll_set_config+0x9a>
    2d82:	2b02      	cmp	r3, #2
    2d84:	d810      	bhi.n	2da8 <system_clock_source_dfll_set_config+0x78>
    2d86:	7b03      	ldrb	r3, [r0, #12]
    2d88:	061b      	lsls	r3, r3, #24
    2d8a:	22f8      	movs	r2, #248	; 0xf8
    2d8c:	0552      	lsls	r2, r2, #21
    2d8e:	4013      	ands	r3, r2
    2d90:	1c19      	adds	r1, r3, #0
    2d92:	89c3      	ldrh	r3, [r0, #14]
    2d94:	041b      	lsls	r3, r3, #16
    2d96:	22ff      	movs	r2, #255	; 0xff
    2d98:	0412      	lsls	r2, r2, #16
    2d9a:	4013      	ands	r3, r2
    2d9c:	430b      	orrs	r3, r1
    2d9e:	8a02      	ldrh	r2, [r0, #16]
    2da0:	4313      	orrs	r3, r2
    2da2:	4a0b      	ldr	r2, [pc, #44]	; (2dd0 <system_clock_source_dfll_set_config+0xa0>)
    2da4:	6093      	str	r3, [r2, #8]
    2da6:	e00b      	b.n	2dc0 <system_clock_source_dfll_set_config+0x90>
    2da8:	7b03      	ldrb	r3, [r0, #12]
    2daa:	069b      	lsls	r3, r3, #26
    2dac:	8a02      	ldrh	r2, [r0, #16]
    2dae:	4313      	orrs	r3, r2
    2db0:	1c19      	adds	r1, r3, #0
    2db2:	89c3      	ldrh	r3, [r0, #14]
    2db4:	041b      	lsls	r3, r3, #16
    2db6:	4a07      	ldr	r2, [pc, #28]	; (2dd4 <system_clock_source_dfll_set_config+0xa4>)
    2db8:	4013      	ands	r3, r2
    2dba:	430b      	orrs	r3, r1
    2dbc:	4a04      	ldr	r2, [pc, #16]	; (2dd0 <system_clock_source_dfll_set_config+0xa0>)
    2dbe:	6093      	str	r3, [r2, #8]
    2dc0:	4a03      	ldr	r2, [pc, #12]	; (2dd0 <system_clock_source_dfll_set_config+0xa0>)
    2dc2:	6811      	ldr	r1, [r2, #0]
    2dc4:	2304      	movs	r3, #4
    2dc6:	430b      	orrs	r3, r1
    2dc8:	6013      	str	r3, [r2, #0]
    2dca:	bd10      	pop	{r4, pc}
    2dcc:	41002000 	.word	0x41002000
    2dd0:	200008dc 	.word	0x200008dc
    2dd4:	03ff0000 	.word	0x03ff0000

00002dd8 <system_clock_source_enable>:
    2dd8:	2807      	cmp	r0, #7
    2dda:	d803      	bhi.n	2de4 <system_clock_source_enable+0xc>
    2ddc:	0080      	lsls	r0, r0, #2
    2dde:	4b1e      	ldr	r3, [pc, #120]	; (2e58 <system_clock_source_enable+0x80>)
    2de0:	581b      	ldr	r3, [r3, r0]
    2de2:	469f      	mov	pc, r3
    2de4:	2017      	movs	r0, #23
    2de6:	e036      	b.n	2e56 <system_clock_source_enable+0x7e>
    2de8:	4a1c      	ldr	r2, [pc, #112]	; (2e5c <system_clock_source_enable+0x84>)
    2dea:	6a11      	ldr	r1, [r2, #32]
    2dec:	2302      	movs	r3, #2
    2dee:	430b      	orrs	r3, r1
    2df0:	6213      	str	r3, [r2, #32]
    2df2:	2000      	movs	r0, #0
    2df4:	e02f      	b.n	2e56 <system_clock_source_enable+0x7e>
    2df6:	4a19      	ldr	r2, [pc, #100]	; (2e5c <system_clock_source_enable+0x84>)
    2df8:	6991      	ldr	r1, [r2, #24]
    2dfa:	2302      	movs	r3, #2
    2dfc:	430b      	orrs	r3, r1
    2dfe:	6193      	str	r3, [r2, #24]
    2e00:	2000      	movs	r0, #0
    2e02:	e028      	b.n	2e56 <system_clock_source_enable+0x7e>
    2e04:	4a15      	ldr	r2, [pc, #84]	; (2e5c <system_clock_source_enable+0x84>)
    2e06:	8a11      	ldrh	r1, [r2, #16]
    2e08:	2302      	movs	r3, #2
    2e0a:	430b      	orrs	r3, r1
    2e0c:	8213      	strh	r3, [r2, #16]
    2e0e:	2000      	movs	r0, #0
    2e10:	e021      	b.n	2e56 <system_clock_source_enable+0x7e>
    2e12:	4a12      	ldr	r2, [pc, #72]	; (2e5c <system_clock_source_enable+0x84>)
    2e14:	8a91      	ldrh	r1, [r2, #20]
    2e16:	2302      	movs	r3, #2
    2e18:	430b      	orrs	r3, r1
    2e1a:	8293      	strh	r3, [r2, #20]
    2e1c:	2000      	movs	r0, #0
    2e1e:	e01a      	b.n	2e56 <system_clock_source_enable+0x7e>
    2e20:	4b0f      	ldr	r3, [pc, #60]	; (2e60 <system_clock_source_enable+0x88>)
    2e22:	6819      	ldr	r1, [r3, #0]
    2e24:	2202      	movs	r2, #2
    2e26:	430a      	orrs	r2, r1
    2e28:	601a      	str	r2, [r3, #0]
    2e2a:	681a      	ldr	r2, [r3, #0]
    2e2c:	4b0d      	ldr	r3, [pc, #52]	; (2e64 <system_clock_source_enable+0x8c>)
    2e2e:	4013      	ands	r3, r2
    2e30:	4a0a      	ldr	r2, [pc, #40]	; (2e5c <system_clock_source_enable+0x84>)
    2e32:	8493      	strh	r3, [r2, #36]	; 0x24
    2e34:	1c11      	adds	r1, r2, #0
    2e36:	2210      	movs	r2, #16
    2e38:	68cb      	ldr	r3, [r1, #12]
    2e3a:	421a      	tst	r2, r3
    2e3c:	d0fc      	beq.n	2e38 <system_clock_source_enable+0x60>
    2e3e:	4a08      	ldr	r2, [pc, #32]	; (2e60 <system_clock_source_enable+0x88>)
    2e40:	6891      	ldr	r1, [r2, #8]
    2e42:	4b06      	ldr	r3, [pc, #24]	; (2e5c <system_clock_source_enable+0x84>)
    2e44:	62d9      	str	r1, [r3, #44]	; 0x2c
    2e46:	6851      	ldr	r1, [r2, #4]
    2e48:	6299      	str	r1, [r3, #40]	; 0x28
    2e4a:	6812      	ldr	r2, [r2, #0]
    2e4c:	b292      	uxth	r2, r2
    2e4e:	849a      	strh	r2, [r3, #36]	; 0x24
    2e50:	2000      	movs	r0, #0
    2e52:	e000      	b.n	2e56 <system_clock_source_enable+0x7e>
    2e54:	2000      	movs	r0, #0
    2e56:	4770      	bx	lr
    2e58:	00003f1c 	.word	0x00003f1c
    2e5c:	40000800 	.word	0x40000800
    2e60:	200008dc 	.word	0x200008dc
    2e64:	0000ff7f 	.word	0x0000ff7f

00002e68 <system_clock_init>:
    2e68:	b5f0      	push	{r4, r5, r6, r7, lr}
    2e6a:	4647      	mov	r7, r8
    2e6c:	b480      	push	{r7}
    2e6e:	b08c      	sub	sp, #48	; 0x30
    2e70:	22c2      	movs	r2, #194	; 0xc2
    2e72:	00d2      	lsls	r2, r2, #3
    2e74:	4b51      	ldr	r3, [pc, #324]	; (2fbc <system_clock_init+0x154>)
    2e76:	609a      	str	r2, [r3, #8]
    2e78:	4951      	ldr	r1, [pc, #324]	; (2fc0 <system_clock_init+0x158>)
    2e7a:	684b      	ldr	r3, [r1, #4]
    2e7c:	221e      	movs	r2, #30
    2e7e:	4393      	bics	r3, r2
    2e80:	3a1c      	subs	r2, #28
    2e82:	4313      	orrs	r3, r2
    2e84:	604b      	str	r3, [r1, #4]
    2e86:	2303      	movs	r3, #3
    2e88:	466a      	mov	r2, sp
    2e8a:	7013      	strb	r3, [r2, #0]
    2e8c:	2400      	movs	r4, #0
    2e8e:	4d4d      	ldr	r5, [pc, #308]	; (2fc4 <system_clock_init+0x15c>)
    2e90:	b2e0      	uxtb	r0, r4
    2e92:	4669      	mov	r1, sp
    2e94:	47a8      	blx	r5
    2e96:	3401      	adds	r4, #1
    2e98:	2c1c      	cmp	r4, #28
    2e9a:	d1f9      	bne.n	2e90 <system_clock_init+0x28>
    2e9c:	a809      	add	r0, sp, #36	; 0x24
    2e9e:	2500      	movs	r5, #0
    2ea0:	7005      	strb	r5, [r0, #0]
    2ea2:	3c1b      	subs	r4, #27
    2ea4:	7084      	strb	r4, [r0, #2]
    2ea6:	7244      	strb	r4, [r0, #9]
    2ea8:	230f      	movs	r3, #15
    2eaa:	7043      	strb	r3, [r0, #1]
    2eac:	4b46      	ldr	r3, [pc, #280]	; (2fc8 <system_clock_init+0x160>)
    2eae:	6043      	str	r3, [r0, #4]
    2eb0:	7204      	strb	r4, [r0, #8]
    2eb2:	4b46      	ldr	r3, [pc, #280]	; (2fcc <system_clock_init+0x164>)
    2eb4:	4798      	blx	r3
    2eb6:	2000      	movs	r0, #0
    2eb8:	4b45      	ldr	r3, [pc, #276]	; (2fd0 <system_clock_init+0x168>)
    2eba:	4798      	blx	r3
    2ebc:	ab04      	add	r3, sp, #16
    2ebe:	2200      	movs	r2, #0
    2ec0:	805d      	strh	r5, [r3, #2]
    2ec2:	809d      	strh	r5, [r3, #4]
    2ec4:	719a      	strb	r2, [r3, #6]
    2ec6:	71da      	strb	r2, [r3, #7]
    2ec8:	2107      	movs	r1, #7
    2eca:	7219      	strb	r1, [r3, #8]
    2ecc:	3138      	adds	r1, #56	; 0x38
    2ece:	8159      	strh	r1, [r3, #10]
    2ed0:	731c      	strb	r4, [r3, #12]
    2ed2:	81dc      	strh	r4, [r3, #14]
    2ed4:	3939      	subs	r1, #57	; 0x39
    2ed6:	8219      	strh	r1, [r3, #16]
    2ed8:	3902      	subs	r1, #2
    2eda:	7019      	strb	r1, [r3, #0]
    2edc:	705a      	strb	r2, [r3, #1]
    2ede:	4b3d      	ldr	r3, [pc, #244]	; (2fd4 <system_clock_init+0x16c>)
    2ee0:	699b      	ldr	r3, [r3, #24]
    2ee2:	051b      	lsls	r3, r3, #20
    2ee4:	0f1b      	lsrs	r3, r3, #28
    2ee6:	2b02      	cmp	r3, #2
    2ee8:	d907      	bls.n	2efa <system_clock_init+0x92>
    2eea:	4b3b      	ldr	r3, [pc, #236]	; (2fd8 <system_clock_init+0x170>)
    2eec:	681b      	ldr	r3, [r3, #0]
    2eee:	0e9b      	lsrs	r3, r3, #26
    2ef0:	2b3f      	cmp	r3, #63	; 0x3f
    2ef2:	d100      	bne.n	2ef6 <system_clock_init+0x8e>
    2ef4:	3b20      	subs	r3, #32
    2ef6:	aa04      	add	r2, sp, #16
    2ef8:	7213      	strb	r3, [r2, #8]
    2efa:	a804      	add	r0, sp, #16
    2efc:	23c0      	movs	r3, #192	; 0xc0
    2efe:	00db      	lsls	r3, r3, #3
    2f00:	8203      	strh	r3, [r0, #16]
    2f02:	2307      	movs	r3, #7
    2f04:	7303      	strb	r3, [r0, #12]
    2f06:	3338      	adds	r3, #56	; 0x38
    2f08:	81c3      	strh	r3, [r0, #14]
    2f0a:	4b34      	ldr	r3, [pc, #208]	; (2fdc <system_clock_init+0x174>)
    2f0c:	4798      	blx	r3
    2f0e:	a803      	add	r0, sp, #12
    2f10:	2400      	movs	r4, #0
    2f12:	7044      	strb	r4, [r0, #1]
    2f14:	2501      	movs	r5, #1
    2f16:	7085      	strb	r5, [r0, #2]
    2f18:	7004      	strb	r4, [r0, #0]
    2f1a:	4b31      	ldr	r3, [pc, #196]	; (2fe0 <system_clock_init+0x178>)
    2f1c:	4798      	blx	r3
    2f1e:	2006      	movs	r0, #6
    2f20:	4e2b      	ldr	r6, [pc, #172]	; (2fd0 <system_clock_init+0x168>)
    2f22:	47b0      	blx	r6
    2f24:	4b2f      	ldr	r3, [pc, #188]	; (2fe4 <system_clock_init+0x17c>)
    2f26:	4798      	blx	r3
    2f28:	466b      	mov	r3, sp
    2f2a:	705c      	strb	r4, [r3, #1]
    2f2c:	725c      	strb	r4, [r3, #9]
    2f2e:	701c      	strb	r4, [r3, #0]
    2f30:	2380      	movs	r3, #128	; 0x80
    2f32:	005b      	lsls	r3, r3, #1
    2f34:	9301      	str	r3, [sp, #4]
    2f36:	466b      	mov	r3, sp
    2f38:	721d      	strb	r5, [r3, #8]
    2f3a:	2001      	movs	r0, #1
    2f3c:	4669      	mov	r1, sp
    2f3e:	4b2a      	ldr	r3, [pc, #168]	; (2fe8 <system_clock_init+0x180>)
    2f40:	4698      	mov	r8, r3
    2f42:	4798      	blx	r3
    2f44:	2001      	movs	r0, #1
    2f46:	4f29      	ldr	r7, [pc, #164]	; (2fec <system_clock_init+0x184>)
    2f48:	47b8      	blx	r7
    2f4a:	466b      	mov	r3, sp
    2f4c:	705c      	strb	r4, [r3, #1]
    2f4e:	725c      	strb	r4, [r3, #9]
    2f50:	2304      	movs	r3, #4
    2f52:	466a      	mov	r2, sp
    2f54:	7013      	strb	r3, [r2, #0]
    2f56:	331c      	adds	r3, #28
    2f58:	9301      	str	r3, [sp, #4]
    2f5a:	7215      	strb	r5, [r2, #8]
    2f5c:	2002      	movs	r0, #2
    2f5e:	4669      	mov	r1, sp
    2f60:	47c0      	blx	r8
    2f62:	2002      	movs	r0, #2
    2f64:	47b8      	blx	r7
    2f66:	466b      	mov	r3, sp
    2f68:	701d      	strb	r5, [r3, #0]
    2f6a:	2000      	movs	r0, #0
    2f6c:	4669      	mov	r1, sp
    2f6e:	4b15      	ldr	r3, [pc, #84]	; (2fc4 <system_clock_init+0x15c>)
    2f70:	4798      	blx	r3
    2f72:	2000      	movs	r0, #0
    2f74:	4b1e      	ldr	r3, [pc, #120]	; (2ff0 <system_clock_init+0x188>)
    2f76:	4798      	blx	r3
    2f78:	2007      	movs	r0, #7
    2f7a:	47b0      	blx	r6
    2f7c:	490f      	ldr	r1, [pc, #60]	; (2fbc <system_clock_init+0x154>)
    2f7e:	22d0      	movs	r2, #208	; 0xd0
    2f80:	68cb      	ldr	r3, [r1, #12]
    2f82:	4013      	ands	r3, r2
    2f84:	2bd0      	cmp	r3, #208	; 0xd0
    2f86:	d1fb      	bne.n	2f80 <system_clock_init+0x118>
    2f88:	4a1a      	ldr	r2, [pc, #104]	; (2ff4 <system_clock_init+0x18c>)
    2f8a:	2300      	movs	r3, #0
    2f8c:	7213      	strb	r3, [r2, #8]
    2f8e:	7253      	strb	r3, [r2, #9]
    2f90:	7293      	strb	r3, [r2, #10]
    2f92:	72d3      	strb	r3, [r2, #11]
    2f94:	2201      	movs	r2, #1
    2f96:	9201      	str	r2, [sp, #4]
    2f98:	466a      	mov	r2, sp
    2f9a:	7053      	strb	r3, [r2, #1]
    2f9c:	7213      	strb	r3, [r2, #8]
    2f9e:	7253      	strb	r3, [r2, #9]
    2fa0:	3307      	adds	r3, #7
    2fa2:	7013      	strb	r3, [r2, #0]
    2fa4:	2000      	movs	r0, #0
    2fa6:	4669      	mov	r1, sp
    2fa8:	4b0f      	ldr	r3, [pc, #60]	; (2fe8 <system_clock_init+0x180>)
    2faa:	4798      	blx	r3
    2fac:	2000      	movs	r0, #0
    2fae:	4b0f      	ldr	r3, [pc, #60]	; (2fec <system_clock_init+0x184>)
    2fb0:	4798      	blx	r3
    2fb2:	b00c      	add	sp, #48	; 0x30
    2fb4:	bc04      	pop	{r2}
    2fb6:	4690      	mov	r8, r2
    2fb8:	bdf0      	pop	{r4, r5, r6, r7, pc}
    2fba:	46c0      	nop			; (mov r8, r8)
    2fbc:	40000800 	.word	0x40000800
    2fc0:	41004000 	.word	0x41004000
    2fc4:	00003231 	.word	0x00003231
    2fc8:	007a1200 	.word	0x007a1200
    2fcc:	00002c61 	.word	0x00002c61
    2fd0:	00002dd9 	.word	0x00002dd9
    2fd4:	41002000 	.word	0x41002000
    2fd8:	00806024 	.word	0x00806024
    2fdc:	00002d31 	.word	0x00002d31
    2fe0:	00002c25 	.word	0x00002c25
    2fe4:	00002ff9 	.word	0x00002ff9
    2fe8:	0000301d 	.word	0x0000301d
    2fec:	000030d5 	.word	0x000030d5
    2ff0:	000031a5 	.word	0x000031a5
    2ff4:	40000400 	.word	0x40000400

00002ff8 <system_gclk_init>:
    2ff8:	4a06      	ldr	r2, [pc, #24]	; (3014 <system_gclk_init+0x1c>)
    2ffa:	6991      	ldr	r1, [r2, #24]
    2ffc:	2308      	movs	r3, #8
    2ffe:	430b      	orrs	r3, r1
    3000:	6193      	str	r3, [r2, #24]
    3002:	2201      	movs	r2, #1
    3004:	4b04      	ldr	r3, [pc, #16]	; (3018 <system_gclk_init+0x20>)
    3006:	701a      	strb	r2, [r3, #0]
    3008:	1c19      	adds	r1, r3, #0
    300a:	780b      	ldrb	r3, [r1, #0]
    300c:	4213      	tst	r3, r2
    300e:	d1fc      	bne.n	300a <system_gclk_init+0x12>
    3010:	4770      	bx	lr
    3012:	46c0      	nop			; (mov r8, r8)
    3014:	40000400 	.word	0x40000400
    3018:	40000c00 	.word	0x40000c00

0000301c <system_gclk_gen_set_config>:
    301c:	b570      	push	{r4, r5, r6, lr}
    301e:	1c06      	adds	r6, r0, #0
    3020:	1c04      	adds	r4, r0, #0
    3022:	780d      	ldrb	r5, [r1, #0]
    3024:	022d      	lsls	r5, r5, #8
    3026:	4305      	orrs	r5, r0
    3028:	784b      	ldrb	r3, [r1, #1]
    302a:	2b00      	cmp	r3, #0
    302c:	d002      	beq.n	3034 <system_gclk_gen_set_config+0x18>
    302e:	2380      	movs	r3, #128	; 0x80
    3030:	02db      	lsls	r3, r3, #11
    3032:	431d      	orrs	r5, r3
    3034:	7a4b      	ldrb	r3, [r1, #9]
    3036:	2b00      	cmp	r3, #0
    3038:	d002      	beq.n	3040 <system_gclk_gen_set_config+0x24>
    303a:	2380      	movs	r3, #128	; 0x80
    303c:	031b      	lsls	r3, r3, #12
    303e:	431d      	orrs	r5, r3
    3040:	6848      	ldr	r0, [r1, #4]
    3042:	2801      	cmp	r0, #1
    3044:	d918      	bls.n	3078 <system_gclk_gen_set_config+0x5c>
    3046:	1e43      	subs	r3, r0, #1
    3048:	4218      	tst	r0, r3
    304a:	d110      	bne.n	306e <system_gclk_gen_set_config+0x52>
    304c:	2802      	cmp	r0, #2
    304e:	d906      	bls.n	305e <system_gclk_gen_set_config+0x42>
    3050:	2302      	movs	r3, #2
    3052:	2200      	movs	r2, #0
    3054:	3201      	adds	r2, #1
    3056:	005b      	lsls	r3, r3, #1
    3058:	4298      	cmp	r0, r3
    305a:	d8fb      	bhi.n	3054 <system_gclk_gen_set_config+0x38>
    305c:	e000      	b.n	3060 <system_gclk_gen_set_config+0x44>
    305e:	2200      	movs	r2, #0
    3060:	0212      	lsls	r2, r2, #8
    3062:	4332      	orrs	r2, r6
    3064:	1c14      	adds	r4, r2, #0
    3066:	2380      	movs	r3, #128	; 0x80
    3068:	035b      	lsls	r3, r3, #13
    306a:	431d      	orrs	r5, r3
    306c:	e004      	b.n	3078 <system_gclk_gen_set_config+0x5c>
    306e:	0204      	lsls	r4, r0, #8
    3070:	4334      	orrs	r4, r6
    3072:	2380      	movs	r3, #128	; 0x80
    3074:	029b      	lsls	r3, r3, #10
    3076:	431d      	orrs	r5, r3
    3078:	7a0b      	ldrb	r3, [r1, #8]
    307a:	2b00      	cmp	r3, #0
    307c:	d002      	beq.n	3084 <system_gclk_gen_set_config+0x68>
    307e:	2380      	movs	r3, #128	; 0x80
    3080:	039b      	lsls	r3, r3, #14
    3082:	431d      	orrs	r5, r3
    3084:	4a0f      	ldr	r2, [pc, #60]	; (30c4 <system_gclk_gen_set_config+0xa8>)
    3086:	7853      	ldrb	r3, [r2, #1]
    3088:	b25b      	sxtb	r3, r3
    308a:	2b00      	cmp	r3, #0
    308c:	dbfb      	blt.n	3086 <system_gclk_gen_set_config+0x6a>
    308e:	4b0e      	ldr	r3, [pc, #56]	; (30c8 <system_gclk_gen_set_config+0xac>)
    3090:	4798      	blx	r3
    3092:	4b0e      	ldr	r3, [pc, #56]	; (30cc <system_gclk_gen_set_config+0xb0>)
    3094:	701e      	strb	r6, [r3, #0]
    3096:	4a0b      	ldr	r2, [pc, #44]	; (30c4 <system_gclk_gen_set_config+0xa8>)
    3098:	7853      	ldrb	r3, [r2, #1]
    309a:	b25b      	sxtb	r3, r3
    309c:	2b00      	cmp	r3, #0
    309e:	dbfb      	blt.n	3098 <system_gclk_gen_set_config+0x7c>
    30a0:	4b08      	ldr	r3, [pc, #32]	; (30c4 <system_gclk_gen_set_config+0xa8>)
    30a2:	609c      	str	r4, [r3, #8]
    30a4:	1c1a      	adds	r2, r3, #0
    30a6:	7853      	ldrb	r3, [r2, #1]
    30a8:	b25b      	sxtb	r3, r3
    30aa:	2b00      	cmp	r3, #0
    30ac:	dbfb      	blt.n	30a6 <system_gclk_gen_set_config+0x8a>
    30ae:	4a05      	ldr	r2, [pc, #20]	; (30c4 <system_gclk_gen_set_config+0xa8>)
    30b0:	6851      	ldr	r1, [r2, #4]
    30b2:	2380      	movs	r3, #128	; 0x80
    30b4:	025b      	lsls	r3, r3, #9
    30b6:	400b      	ands	r3, r1
    30b8:	431d      	orrs	r5, r3
    30ba:	6055      	str	r5, [r2, #4]
    30bc:	4b04      	ldr	r3, [pc, #16]	; (30d0 <system_gclk_gen_set_config+0xb4>)
    30be:	4798      	blx	r3
    30c0:	bd70      	pop	{r4, r5, r6, pc}
    30c2:	46c0      	nop			; (mov r8, r8)
    30c4:	40000c00 	.word	0x40000c00
    30c8:	00002b35 	.word	0x00002b35
    30cc:	40000c08 	.word	0x40000c08
    30d0:	00002b75 	.word	0x00002b75

000030d4 <system_gclk_gen_enable>:
    30d4:	b510      	push	{r4, lr}
    30d6:	1c04      	adds	r4, r0, #0
    30d8:	4a0b      	ldr	r2, [pc, #44]	; (3108 <system_gclk_gen_enable+0x34>)
    30da:	7853      	ldrb	r3, [r2, #1]
    30dc:	b25b      	sxtb	r3, r3
    30de:	2b00      	cmp	r3, #0
    30e0:	dbfb      	blt.n	30da <system_gclk_gen_enable+0x6>
    30e2:	4b0a      	ldr	r3, [pc, #40]	; (310c <system_gclk_gen_enable+0x38>)
    30e4:	4798      	blx	r3
    30e6:	4b0a      	ldr	r3, [pc, #40]	; (3110 <system_gclk_gen_enable+0x3c>)
    30e8:	701c      	strb	r4, [r3, #0]
    30ea:	4a07      	ldr	r2, [pc, #28]	; (3108 <system_gclk_gen_enable+0x34>)
    30ec:	7853      	ldrb	r3, [r2, #1]
    30ee:	b25b      	sxtb	r3, r3
    30f0:	2b00      	cmp	r3, #0
    30f2:	dbfb      	blt.n	30ec <system_gclk_gen_enable+0x18>
    30f4:	4a04      	ldr	r2, [pc, #16]	; (3108 <system_gclk_gen_enable+0x34>)
    30f6:	6853      	ldr	r3, [r2, #4]
    30f8:	2180      	movs	r1, #128	; 0x80
    30fa:	0249      	lsls	r1, r1, #9
    30fc:	430b      	orrs	r3, r1
    30fe:	6053      	str	r3, [r2, #4]
    3100:	4b04      	ldr	r3, [pc, #16]	; (3114 <system_gclk_gen_enable+0x40>)
    3102:	4798      	blx	r3
    3104:	bd10      	pop	{r4, pc}
    3106:	46c0      	nop			; (mov r8, r8)
    3108:	40000c00 	.word	0x40000c00
    310c:	00002b35 	.word	0x00002b35
    3110:	40000c04 	.word	0x40000c04
    3114:	00002b75 	.word	0x00002b75

00003118 <system_gclk_gen_get_hz>:
    3118:	b570      	push	{r4, r5, r6, lr}
    311a:	1c04      	adds	r4, r0, #0
    311c:	4a1a      	ldr	r2, [pc, #104]	; (3188 <system_gclk_gen_get_hz+0x70>)
    311e:	7853      	ldrb	r3, [r2, #1]
    3120:	b25b      	sxtb	r3, r3
    3122:	2b00      	cmp	r3, #0
    3124:	dbfb      	blt.n	311e <system_gclk_gen_get_hz+0x6>
    3126:	4b19      	ldr	r3, [pc, #100]	; (318c <system_gclk_gen_get_hz+0x74>)
    3128:	4798      	blx	r3
    312a:	4b19      	ldr	r3, [pc, #100]	; (3190 <system_gclk_gen_get_hz+0x78>)
    312c:	701c      	strb	r4, [r3, #0]
    312e:	4a16      	ldr	r2, [pc, #88]	; (3188 <system_gclk_gen_get_hz+0x70>)
    3130:	7853      	ldrb	r3, [r2, #1]
    3132:	b25b      	sxtb	r3, r3
    3134:	2b00      	cmp	r3, #0
    3136:	dbfb      	blt.n	3130 <system_gclk_gen_get_hz+0x18>
    3138:	4e13      	ldr	r6, [pc, #76]	; (3188 <system_gclk_gen_get_hz+0x70>)
    313a:	6870      	ldr	r0, [r6, #4]
    313c:	04c0      	lsls	r0, r0, #19
    313e:	0ec0      	lsrs	r0, r0, #27
    3140:	4b14      	ldr	r3, [pc, #80]	; (3194 <system_gclk_gen_get_hz+0x7c>)
    3142:	4798      	blx	r3
    3144:	1c05      	adds	r5, r0, #0
    3146:	4b12      	ldr	r3, [pc, #72]	; (3190 <system_gclk_gen_get_hz+0x78>)
    3148:	701c      	strb	r4, [r3, #0]
    314a:	6876      	ldr	r6, [r6, #4]
    314c:	02f6      	lsls	r6, r6, #11
    314e:	0ff6      	lsrs	r6, r6, #31
    3150:	4b11      	ldr	r3, [pc, #68]	; (3198 <system_gclk_gen_get_hz+0x80>)
    3152:	701c      	strb	r4, [r3, #0]
    3154:	4a0c      	ldr	r2, [pc, #48]	; (3188 <system_gclk_gen_get_hz+0x70>)
    3156:	7853      	ldrb	r3, [r2, #1]
    3158:	b25b      	sxtb	r3, r3
    315a:	2b00      	cmp	r3, #0
    315c:	dbfb      	blt.n	3156 <system_gclk_gen_get_hz+0x3e>
    315e:	4b0a      	ldr	r3, [pc, #40]	; (3188 <system_gclk_gen_get_hz+0x70>)
    3160:	689c      	ldr	r4, [r3, #8]
    3162:	0a24      	lsrs	r4, r4, #8
    3164:	b2a4      	uxth	r4, r4
    3166:	4b0d      	ldr	r3, [pc, #52]	; (319c <system_gclk_gen_get_hz+0x84>)
    3168:	4798      	blx	r3
    316a:	2e00      	cmp	r6, #0
    316c:	d107      	bne.n	317e <system_gclk_gen_get_hz+0x66>
    316e:	2c01      	cmp	r4, #1
    3170:	d907      	bls.n	3182 <system_gclk_gen_get_hz+0x6a>
    3172:	1c28      	adds	r0, r5, #0
    3174:	1c21      	adds	r1, r4, #0
    3176:	4b0a      	ldr	r3, [pc, #40]	; (31a0 <system_gclk_gen_get_hz+0x88>)
    3178:	4798      	blx	r3
    317a:	1c05      	adds	r5, r0, #0
    317c:	e001      	b.n	3182 <system_gclk_gen_get_hz+0x6a>
    317e:	3401      	adds	r4, #1
    3180:	40e5      	lsrs	r5, r4
    3182:	1c28      	adds	r0, r5, #0
    3184:	bd70      	pop	{r4, r5, r6, pc}
    3186:	46c0      	nop			; (mov r8, r8)
    3188:	40000c00 	.word	0x40000c00
    318c:	00002b35 	.word	0x00002b35
    3190:	40000c04 	.word	0x40000c04
    3194:	00002ba5 	.word	0x00002ba5
    3198:	40000c08 	.word	0x40000c08
    319c:	00002b75 	.word	0x00002b75
    31a0:	000034d5 	.word	0x000034d5

000031a4 <system_gclk_chan_enable>:
    31a4:	b510      	push	{r4, lr}
    31a6:	1c04      	adds	r4, r0, #0
    31a8:	4b06      	ldr	r3, [pc, #24]	; (31c4 <system_gclk_chan_enable+0x20>)
    31aa:	4798      	blx	r3
    31ac:	4b06      	ldr	r3, [pc, #24]	; (31c8 <system_gclk_chan_enable+0x24>)
    31ae:	701c      	strb	r4, [r3, #0]
    31b0:	4a06      	ldr	r2, [pc, #24]	; (31cc <system_gclk_chan_enable+0x28>)
    31b2:	8851      	ldrh	r1, [r2, #2]
    31b4:	2380      	movs	r3, #128	; 0x80
    31b6:	01db      	lsls	r3, r3, #7
    31b8:	430b      	orrs	r3, r1
    31ba:	8053      	strh	r3, [r2, #2]
    31bc:	4b04      	ldr	r3, [pc, #16]	; (31d0 <system_gclk_chan_enable+0x2c>)
    31be:	4798      	blx	r3
    31c0:	bd10      	pop	{r4, pc}
    31c2:	46c0      	nop			; (mov r8, r8)
    31c4:	00002b35 	.word	0x00002b35
    31c8:	40000c02 	.word	0x40000c02
    31cc:	40000c00 	.word	0x40000c00
    31d0:	00002b75 	.word	0x00002b75

000031d4 <system_gclk_chan_disable>:
    31d4:	b510      	push	{r4, lr}
    31d6:	1c04      	adds	r4, r0, #0
    31d8:	4b0f      	ldr	r3, [pc, #60]	; (3218 <system_gclk_chan_disable+0x44>)
    31da:	4798      	blx	r3
    31dc:	4b0f      	ldr	r3, [pc, #60]	; (321c <system_gclk_chan_disable+0x48>)
    31de:	701c      	strb	r4, [r3, #0]
    31e0:	4b0f      	ldr	r3, [pc, #60]	; (3220 <system_gclk_chan_disable+0x4c>)
    31e2:	885a      	ldrh	r2, [r3, #2]
    31e4:	0512      	lsls	r2, r2, #20
    31e6:	0f10      	lsrs	r0, r2, #28
    31e8:	8859      	ldrh	r1, [r3, #2]
    31ea:	4a0e      	ldr	r2, [pc, #56]	; (3224 <system_gclk_chan_disable+0x50>)
    31ec:	400a      	ands	r2, r1
    31ee:	805a      	strh	r2, [r3, #2]
    31f0:	8859      	ldrh	r1, [r3, #2]
    31f2:	4a0d      	ldr	r2, [pc, #52]	; (3228 <system_gclk_chan_disable+0x54>)
    31f4:	400a      	ands	r2, r1
    31f6:	805a      	strh	r2, [r3, #2]
    31f8:	1c19      	adds	r1, r3, #0
    31fa:	2280      	movs	r2, #128	; 0x80
    31fc:	01d2      	lsls	r2, r2, #7
    31fe:	884b      	ldrh	r3, [r1, #2]
    3200:	4213      	tst	r3, r2
    3202:	d1fc      	bne.n	31fe <system_gclk_chan_disable+0x2a>
    3204:	4906      	ldr	r1, [pc, #24]	; (3220 <system_gclk_chan_disable+0x4c>)
    3206:	0202      	lsls	r2, r0, #8
    3208:	8848      	ldrh	r0, [r1, #2]
    320a:	4b06      	ldr	r3, [pc, #24]	; (3224 <system_gclk_chan_disable+0x50>)
    320c:	4003      	ands	r3, r0
    320e:	4313      	orrs	r3, r2
    3210:	804b      	strh	r3, [r1, #2]
    3212:	4b06      	ldr	r3, [pc, #24]	; (322c <system_gclk_chan_disable+0x58>)
    3214:	4798      	blx	r3
    3216:	bd10      	pop	{r4, pc}
    3218:	00002b35 	.word	0x00002b35
    321c:	40000c02 	.word	0x40000c02
    3220:	40000c00 	.word	0x40000c00
    3224:	fffff0ff 	.word	0xfffff0ff
    3228:	ffffbfff 	.word	0xffffbfff
    322c:	00002b75 	.word	0x00002b75

00003230 <system_gclk_chan_set_config>:
    3230:	b510      	push	{r4, lr}
    3232:	780c      	ldrb	r4, [r1, #0]
    3234:	0224      	lsls	r4, r4, #8
    3236:	4304      	orrs	r4, r0
    3238:	4b02      	ldr	r3, [pc, #8]	; (3244 <system_gclk_chan_set_config+0x14>)
    323a:	4798      	blx	r3
    323c:	b2a4      	uxth	r4, r4
    323e:	4b02      	ldr	r3, [pc, #8]	; (3248 <system_gclk_chan_set_config+0x18>)
    3240:	805c      	strh	r4, [r3, #2]
    3242:	bd10      	pop	{r4, pc}
    3244:	000031d5 	.word	0x000031d5
    3248:	40000c00 	.word	0x40000c00

0000324c <system_gclk_chan_lock>:
    324c:	b510      	push	{r4, lr}
    324e:	1c04      	adds	r4, r0, #0
    3250:	4b06      	ldr	r3, [pc, #24]	; (326c <system_gclk_chan_lock+0x20>)
    3252:	4798      	blx	r3
    3254:	4b06      	ldr	r3, [pc, #24]	; (3270 <system_gclk_chan_lock+0x24>)
    3256:	701c      	strb	r4, [r3, #0]
    3258:	4a06      	ldr	r2, [pc, #24]	; (3274 <system_gclk_chan_lock+0x28>)
    325a:	8851      	ldrh	r1, [r2, #2]
    325c:	23c0      	movs	r3, #192	; 0xc0
    325e:	021b      	lsls	r3, r3, #8
    3260:	430b      	orrs	r3, r1
    3262:	8053      	strh	r3, [r2, #2]
    3264:	4b04      	ldr	r3, [pc, #16]	; (3278 <system_gclk_chan_lock+0x2c>)
    3266:	4798      	blx	r3
    3268:	bd10      	pop	{r4, pc}
    326a:	46c0      	nop			; (mov r8, r8)
    326c:	00002b35 	.word	0x00002b35
    3270:	40000c02 	.word	0x40000c02
    3274:	40000c00 	.word	0x40000c00
    3278:	00002b75 	.word	0x00002b75

0000327c <system_gclk_chan_get_hz>:
    327c:	b510      	push	{r4, lr}
    327e:	1c04      	adds	r4, r0, #0
    3280:	4b06      	ldr	r3, [pc, #24]	; (329c <system_gclk_chan_get_hz+0x20>)
    3282:	4798      	blx	r3
    3284:	4b06      	ldr	r3, [pc, #24]	; (32a0 <system_gclk_chan_get_hz+0x24>)
    3286:	701c      	strb	r4, [r3, #0]
    3288:	4b06      	ldr	r3, [pc, #24]	; (32a4 <system_gclk_chan_get_hz+0x28>)
    328a:	885c      	ldrh	r4, [r3, #2]
    328c:	0524      	lsls	r4, r4, #20
    328e:	0f24      	lsrs	r4, r4, #28
    3290:	4b05      	ldr	r3, [pc, #20]	; (32a8 <system_gclk_chan_get_hz+0x2c>)
    3292:	4798      	blx	r3
    3294:	1c20      	adds	r0, r4, #0
    3296:	4b05      	ldr	r3, [pc, #20]	; (32ac <system_gclk_chan_get_hz+0x30>)
    3298:	4798      	blx	r3
    329a:	bd10      	pop	{r4, pc}
    329c:	00002b35 	.word	0x00002b35
    32a0:	40000c02 	.word	0x40000c02
    32a4:	40000c00 	.word	0x40000c00
    32a8:	00002b75 	.word	0x00002b75
    32ac:	00003119 	.word	0x00003119

000032b0 <_system_pinmux_config>:
    32b0:	b530      	push	{r4, r5, lr}
    32b2:	78d3      	ldrb	r3, [r2, #3]
    32b4:	2b00      	cmp	r3, #0
    32b6:	d11e      	bne.n	32f6 <_system_pinmux_config+0x46>
    32b8:	7814      	ldrb	r4, [r2, #0]
    32ba:	2c80      	cmp	r4, #128	; 0x80
    32bc:	d004      	beq.n	32c8 <_system_pinmux_config+0x18>
    32be:	0624      	lsls	r4, r4, #24
    32c0:	2380      	movs	r3, #128	; 0x80
    32c2:	025b      	lsls	r3, r3, #9
    32c4:	431c      	orrs	r4, r3
    32c6:	e000      	b.n	32ca <_system_pinmux_config+0x1a>
    32c8:	2400      	movs	r4, #0
    32ca:	7853      	ldrb	r3, [r2, #1]
    32cc:	2502      	movs	r5, #2
    32ce:	43ab      	bics	r3, r5
    32d0:	d10a      	bne.n	32e8 <_system_pinmux_config+0x38>
    32d2:	7893      	ldrb	r3, [r2, #2]
    32d4:	2b00      	cmp	r3, #0
    32d6:	d103      	bne.n	32e0 <_system_pinmux_config+0x30>
    32d8:	2380      	movs	r3, #128	; 0x80
    32da:	029b      	lsls	r3, r3, #10
    32dc:	431c      	orrs	r4, r3
    32de:	e002      	b.n	32e6 <_system_pinmux_config+0x36>
    32e0:	23c0      	movs	r3, #192	; 0xc0
    32e2:	02db      	lsls	r3, r3, #11
    32e4:	431c      	orrs	r4, r3
    32e6:	6041      	str	r1, [r0, #4]
    32e8:	7853      	ldrb	r3, [r2, #1]
    32ea:	3b01      	subs	r3, #1
    32ec:	2b01      	cmp	r3, #1
    32ee:	d812      	bhi.n	3316 <_system_pinmux_config+0x66>
    32f0:	4b18      	ldr	r3, [pc, #96]	; (3354 <_system_pinmux_config+0xa4>)
    32f2:	401c      	ands	r4, r3
    32f4:	e00f      	b.n	3316 <_system_pinmux_config+0x66>
    32f6:	6041      	str	r1, [r0, #4]
    32f8:	040b      	lsls	r3, r1, #16
    32fa:	0c1b      	lsrs	r3, r3, #16
    32fc:	24a0      	movs	r4, #160	; 0xa0
    32fe:	05e4      	lsls	r4, r4, #23
    3300:	4323      	orrs	r3, r4
    3302:	6283      	str	r3, [r0, #40]	; 0x28
    3304:	0c0b      	lsrs	r3, r1, #16
    3306:	24d0      	movs	r4, #208	; 0xd0
    3308:	0624      	lsls	r4, r4, #24
    330a:	4323      	orrs	r3, r4
    330c:	6283      	str	r3, [r0, #40]	; 0x28
    330e:	78d3      	ldrb	r3, [r2, #3]
    3310:	2b00      	cmp	r3, #0
    3312:	d018      	beq.n	3346 <_system_pinmux_config+0x96>
    3314:	e01c      	b.n	3350 <_system_pinmux_config+0xa0>
    3316:	040b      	lsls	r3, r1, #16
    3318:	0c1b      	lsrs	r3, r3, #16
    331a:	25a0      	movs	r5, #160	; 0xa0
    331c:	05ed      	lsls	r5, r5, #23
    331e:	432b      	orrs	r3, r5
    3320:	4323      	orrs	r3, r4
    3322:	6283      	str	r3, [r0, #40]	; 0x28
    3324:	0c0b      	lsrs	r3, r1, #16
    3326:	25d0      	movs	r5, #208	; 0xd0
    3328:	062d      	lsls	r5, r5, #24
    332a:	432b      	orrs	r3, r5
    332c:	4323      	orrs	r3, r4
    332e:	6283      	str	r3, [r0, #40]	; 0x28
    3330:	78d3      	ldrb	r3, [r2, #3]
    3332:	2b00      	cmp	r3, #0
    3334:	d10c      	bne.n	3350 <_system_pinmux_config+0xa0>
    3336:	0363      	lsls	r3, r4, #13
    3338:	d505      	bpl.n	3346 <_system_pinmux_config+0x96>
    333a:	7893      	ldrb	r3, [r2, #2]
    333c:	2b01      	cmp	r3, #1
    333e:	d101      	bne.n	3344 <_system_pinmux_config+0x94>
    3340:	6181      	str	r1, [r0, #24]
    3342:	e000      	b.n	3346 <_system_pinmux_config+0x96>
    3344:	6141      	str	r1, [r0, #20]
    3346:	7853      	ldrb	r3, [r2, #1]
    3348:	3b01      	subs	r3, #1
    334a:	2b01      	cmp	r3, #1
    334c:	d800      	bhi.n	3350 <_system_pinmux_config+0xa0>
    334e:	6081      	str	r1, [r0, #8]
    3350:	bd30      	pop	{r4, r5, pc}
    3352:	46c0      	nop			; (mov r8, r8)
    3354:	fffbffff 	.word	0xfffbffff

00003358 <system_pinmux_pin_set_config>:
    3358:	b508      	push	{r3, lr}
    335a:	1c03      	adds	r3, r0, #0
    335c:	1c0a      	adds	r2, r1, #0
    335e:	09c1      	lsrs	r1, r0, #7
    3360:	2000      	movs	r0, #0
    3362:	2900      	cmp	r1, #0
    3364:	d104      	bne.n	3370 <system_pinmux_pin_set_config+0x18>
    3366:	0958      	lsrs	r0, r3, #5
    3368:	01c0      	lsls	r0, r0, #7
    336a:	4905      	ldr	r1, [pc, #20]	; (3380 <system_pinmux_pin_set_config+0x28>)
    336c:	468c      	mov	ip, r1
    336e:	4460      	add	r0, ip
    3370:	211f      	movs	r1, #31
    3372:	400b      	ands	r3, r1
    3374:	391e      	subs	r1, #30
    3376:	4099      	lsls	r1, r3
    3378:	4b02      	ldr	r3, [pc, #8]	; (3384 <system_pinmux_pin_set_config+0x2c>)
    337a:	4798      	blx	r3
    337c:	bd08      	pop	{r3, pc}
    337e:	46c0      	nop			; (mov r8, r8)
    3380:	41004400 	.word	0x41004400
    3384:	000032b1 	.word	0x000032b1

00003388 <_system_dummy_init>:
    3388:	4770      	bx	lr
    338a:	46c0      	nop			; (mov r8, r8)

0000338c <system_init>:
    338c:	b508      	push	{r3, lr}
    338e:	4b05      	ldr	r3, [pc, #20]	; (33a4 <system_init+0x18>)
    3390:	4798      	blx	r3
    3392:	4b05      	ldr	r3, [pc, #20]	; (33a8 <system_init+0x1c>)
    3394:	4798      	blx	r3
    3396:	4b05      	ldr	r3, [pc, #20]	; (33ac <system_init+0x20>)
    3398:	4798      	blx	r3
    339a:	4b05      	ldr	r3, [pc, #20]	; (33b0 <system_init+0x24>)
    339c:	4798      	blx	r3
    339e:	4b05      	ldr	r3, [pc, #20]	; (33b4 <system_init+0x28>)
    33a0:	4798      	blx	r3
    33a2:	bd08      	pop	{r3, pc}
    33a4:	00002e69 	.word	0x00002e69
    33a8:	00002b31 	.word	0x00002b31
    33ac:	00003389 	.word	0x00003389
    33b0:	00003389 	.word	0x00003389
    33b4:	00003389 	.word	0x00003389

000033b8 <Dummy_Handler>:
    33b8:	e7fe      	b.n	33b8 <Dummy_Handler>
    33ba:	46c0      	nop			; (mov r8, r8)

000033bc <Reset_Handler>:
    33bc:	b510      	push	{r4, lr}
    33be:	4b1d      	ldr	r3, [pc, #116]	; (3434 <Reset_Handler+0x78>)
    33c0:	4a1d      	ldr	r2, [pc, #116]	; (3438 <Reset_Handler+0x7c>)
    33c2:	429a      	cmp	r2, r3
    33c4:	d003      	beq.n	33ce <Reset_Handler+0x12>
    33c6:	4b1d      	ldr	r3, [pc, #116]	; (343c <Reset_Handler+0x80>)
    33c8:	4a1a      	ldr	r2, [pc, #104]	; (3434 <Reset_Handler+0x78>)
    33ca:	429a      	cmp	r2, r3
    33cc:	d304      	bcc.n	33d8 <Reset_Handler+0x1c>
    33ce:	4b1c      	ldr	r3, [pc, #112]	; (3440 <Reset_Handler+0x84>)
    33d0:	4a1c      	ldr	r2, [pc, #112]	; (3444 <Reset_Handler+0x88>)
    33d2:	429a      	cmp	r2, r3
    33d4:	d310      	bcc.n	33f8 <Reset_Handler+0x3c>
    33d6:	e01e      	b.n	3416 <Reset_Handler+0x5a>
    33d8:	4a1b      	ldr	r2, [pc, #108]	; (3448 <Reset_Handler+0x8c>)
    33da:	4b18      	ldr	r3, [pc, #96]	; (343c <Reset_Handler+0x80>)
    33dc:	3303      	adds	r3, #3
    33de:	1a9b      	subs	r3, r3, r2
    33e0:	089b      	lsrs	r3, r3, #2
    33e2:	3301      	adds	r3, #1
    33e4:	009b      	lsls	r3, r3, #2
    33e6:	2200      	movs	r2, #0
    33e8:	4812      	ldr	r0, [pc, #72]	; (3434 <Reset_Handler+0x78>)
    33ea:	4913      	ldr	r1, [pc, #76]	; (3438 <Reset_Handler+0x7c>)
    33ec:	588c      	ldr	r4, [r1, r2]
    33ee:	5084      	str	r4, [r0, r2]
    33f0:	3204      	adds	r2, #4
    33f2:	429a      	cmp	r2, r3
    33f4:	d1fa      	bne.n	33ec <Reset_Handler+0x30>
    33f6:	e7ea      	b.n	33ce <Reset_Handler+0x12>
    33f8:	4a14      	ldr	r2, [pc, #80]	; (344c <Reset_Handler+0x90>)
    33fa:	4b11      	ldr	r3, [pc, #68]	; (3440 <Reset_Handler+0x84>)
    33fc:	3303      	adds	r3, #3
    33fe:	1a9b      	subs	r3, r3, r2
    3400:	089b      	lsrs	r3, r3, #2
    3402:	3301      	adds	r3, #1
    3404:	009b      	lsls	r3, r3, #2
    3406:	2200      	movs	r2, #0
    3408:	480e      	ldr	r0, [pc, #56]	; (3444 <Reset_Handler+0x88>)
    340a:	2100      	movs	r1, #0
    340c:	1814      	adds	r4, r2, r0
    340e:	6021      	str	r1, [r4, #0]
    3410:	3204      	adds	r2, #4
    3412:	429a      	cmp	r2, r3
    3414:	d1fa      	bne.n	340c <Reset_Handler+0x50>
    3416:	4a0e      	ldr	r2, [pc, #56]	; (3450 <Reset_Handler+0x94>)
    3418:	21ff      	movs	r1, #255	; 0xff
    341a:	4b0e      	ldr	r3, [pc, #56]	; (3454 <Reset_Handler+0x98>)
    341c:	438b      	bics	r3, r1
    341e:	6093      	str	r3, [r2, #8]
    3420:	4a0d      	ldr	r2, [pc, #52]	; (3458 <Reset_Handler+0x9c>)
    3422:	6851      	ldr	r1, [r2, #4]
    3424:	2380      	movs	r3, #128	; 0x80
    3426:	430b      	orrs	r3, r1
    3428:	6053      	str	r3, [r2, #4]
    342a:	4b0c      	ldr	r3, [pc, #48]	; (345c <Reset_Handler+0xa0>)
    342c:	4798      	blx	r3
    342e:	4b0c      	ldr	r3, [pc, #48]	; (3460 <Reset_Handler+0xa4>)
    3430:	4798      	blx	r3
    3432:	e7fe      	b.n	3432 <Reset_Handler+0x76>
    3434:	20000000 	.word	0x20000000
    3438:	00003f64 	.word	0x00003f64
    343c:	2000000c 	.word	0x2000000c
    3440:	200009a0 	.word	0x200009a0
    3444:	2000000c 	.word	0x2000000c
    3448:	20000004 	.word	0x20000004
    344c:	20000010 	.word	0x20000010
    3450:	e000ed00 	.word	0xe000ed00
    3454:	00000000 	.word	0x00000000
    3458:	41004000 	.word	0x41004000
    345c:	00003c75 	.word	0x00003c75
    3460:	00003465 	.word	0x00003465

00003464 <main>:
    3464:	b508      	push	{r3, lr}
    3466:	4b10      	ldr	r3, [pc, #64]	; (34a8 <main+0x44>)
    3468:	4798      	blx	r3
    346a:	4b10      	ldr	r3, [pc, #64]	; (34ac <main+0x48>)
    346c:	4798      	blx	r3
    346e:	4b10      	ldr	r3, [pc, #64]	; (34b0 <main+0x4c>)
    3470:	4798      	blx	r3
    3472:	4b10      	ldr	r3, [pc, #64]	; (34b4 <main+0x50>)
    3474:	4798      	blx	r3
    3476:	2800      	cmp	r0, #0
    3478:	d00f      	beq.n	349a <main+0x36>
    347a:	2803      	cmp	r0, #3
    347c:	d105      	bne.n	348a <main+0x26>
    347e:	4b0e      	ldr	r3, [pc, #56]	; (34b8 <main+0x54>)
    3480:	4798      	blx	r3
    3482:	4b0e      	ldr	r3, [pc, #56]	; (34bc <main+0x58>)
    3484:	4798      	blx	r3
    3486:	4b0e      	ldr	r3, [pc, #56]	; (34c0 <main+0x5c>)
    3488:	4798      	blx	r3
    348a:	f3bf 8f4f 	dsb	sy
    348e:	4a0d      	ldr	r2, [pc, #52]	; (34c4 <main+0x60>)
    3490:	4b0d      	ldr	r3, [pc, #52]	; (34c8 <main+0x64>)
    3492:	60da      	str	r2, [r3, #12]
    3494:	f3bf 8f4f 	dsb	sy
    3498:	e7fe      	b.n	3498 <main+0x34>
    349a:	4b0c      	ldr	r3, [pc, #48]	; (34cc <main+0x68>)
    349c:	4798      	blx	r3
    349e:	4b07      	ldr	r3, [pc, #28]	; (34bc <main+0x58>)
    34a0:	4798      	blx	r3
    34a2:	4b0b      	ldr	r3, [pc, #44]	; (34d0 <main+0x6c>)
    34a4:	4798      	blx	r3
    34a6:	e7f0      	b.n	348a <main+0x26>
    34a8:	0000338d 	.word	0x0000338d
    34ac:	00001111 	.word	0x00001111
    34b0:	000014dd 	.word	0x000014dd
    34b4:	00001799 	.word	0x00001799
    34b8:	00002869 	.word	0x00002869
    34bc:	0000102d 	.word	0x0000102d
    34c0:	00002915 	.word	0x00002915
    34c4:	05fa0004 	.word	0x05fa0004
    34c8:	e000ed00 	.word	0xe000ed00
    34cc:	00002795 	.word	0x00002795
    34d0:	00002229 	.word	0x00002229

000034d4 <__aeabi_uidiv>:
    34d4:	2200      	movs	r2, #0
    34d6:	0843      	lsrs	r3, r0, #1
    34d8:	428b      	cmp	r3, r1
    34da:	d374      	bcc.n	35c6 <__aeabi_uidiv+0xf2>
    34dc:	0903      	lsrs	r3, r0, #4
    34de:	428b      	cmp	r3, r1
    34e0:	d35f      	bcc.n	35a2 <__aeabi_uidiv+0xce>
    34e2:	0a03      	lsrs	r3, r0, #8
    34e4:	428b      	cmp	r3, r1
    34e6:	d344      	bcc.n	3572 <__aeabi_uidiv+0x9e>
    34e8:	0b03      	lsrs	r3, r0, #12
    34ea:	428b      	cmp	r3, r1
    34ec:	d328      	bcc.n	3540 <__aeabi_uidiv+0x6c>
    34ee:	0c03      	lsrs	r3, r0, #16
    34f0:	428b      	cmp	r3, r1
    34f2:	d30d      	bcc.n	3510 <__aeabi_uidiv+0x3c>
    34f4:	22ff      	movs	r2, #255	; 0xff
    34f6:	0209      	lsls	r1, r1, #8
    34f8:	ba12      	rev	r2, r2
    34fa:	0c03      	lsrs	r3, r0, #16
    34fc:	428b      	cmp	r3, r1
    34fe:	d302      	bcc.n	3506 <__aeabi_uidiv+0x32>
    3500:	1212      	asrs	r2, r2, #8
    3502:	0209      	lsls	r1, r1, #8
    3504:	d065      	beq.n	35d2 <__aeabi_uidiv+0xfe>
    3506:	0b03      	lsrs	r3, r0, #12
    3508:	428b      	cmp	r3, r1
    350a:	d319      	bcc.n	3540 <__aeabi_uidiv+0x6c>
    350c:	e000      	b.n	3510 <__aeabi_uidiv+0x3c>
    350e:	0a09      	lsrs	r1, r1, #8
    3510:	0bc3      	lsrs	r3, r0, #15
    3512:	428b      	cmp	r3, r1
    3514:	d301      	bcc.n	351a <__aeabi_uidiv+0x46>
    3516:	03cb      	lsls	r3, r1, #15
    3518:	1ac0      	subs	r0, r0, r3
    351a:	4152      	adcs	r2, r2
    351c:	0b83      	lsrs	r3, r0, #14
    351e:	428b      	cmp	r3, r1
    3520:	d301      	bcc.n	3526 <__aeabi_uidiv+0x52>
    3522:	038b      	lsls	r3, r1, #14
    3524:	1ac0      	subs	r0, r0, r3
    3526:	4152      	adcs	r2, r2
    3528:	0b43      	lsrs	r3, r0, #13
    352a:	428b      	cmp	r3, r1
    352c:	d301      	bcc.n	3532 <__aeabi_uidiv+0x5e>
    352e:	034b      	lsls	r3, r1, #13
    3530:	1ac0      	subs	r0, r0, r3
    3532:	4152      	adcs	r2, r2
    3534:	0b03      	lsrs	r3, r0, #12
    3536:	428b      	cmp	r3, r1
    3538:	d301      	bcc.n	353e <__aeabi_uidiv+0x6a>
    353a:	030b      	lsls	r3, r1, #12
    353c:	1ac0      	subs	r0, r0, r3
    353e:	4152      	adcs	r2, r2
    3540:	0ac3      	lsrs	r3, r0, #11
    3542:	428b      	cmp	r3, r1
    3544:	d301      	bcc.n	354a <__aeabi_uidiv+0x76>
    3546:	02cb      	lsls	r3, r1, #11
    3548:	1ac0      	subs	r0, r0, r3
    354a:	4152      	adcs	r2, r2
    354c:	0a83      	lsrs	r3, r0, #10
    354e:	428b      	cmp	r3, r1
    3550:	d301      	bcc.n	3556 <__aeabi_uidiv+0x82>
    3552:	028b      	lsls	r3, r1, #10
    3554:	1ac0      	subs	r0, r0, r3
    3556:	4152      	adcs	r2, r2
    3558:	0a43      	lsrs	r3, r0, #9
    355a:	428b      	cmp	r3, r1
    355c:	d301      	bcc.n	3562 <__aeabi_uidiv+0x8e>
    355e:	024b      	lsls	r3, r1, #9
    3560:	1ac0      	subs	r0, r0, r3
    3562:	4152      	adcs	r2, r2
    3564:	0a03      	lsrs	r3, r0, #8
    3566:	428b      	cmp	r3, r1
    3568:	d301      	bcc.n	356e <__aeabi_uidiv+0x9a>
    356a:	020b      	lsls	r3, r1, #8
    356c:	1ac0      	subs	r0, r0, r3
    356e:	4152      	adcs	r2, r2
    3570:	d2cd      	bcs.n	350e <__aeabi_uidiv+0x3a>
    3572:	09c3      	lsrs	r3, r0, #7
    3574:	428b      	cmp	r3, r1
    3576:	d301      	bcc.n	357c <__aeabi_uidiv+0xa8>
    3578:	01cb      	lsls	r3, r1, #7
    357a:	1ac0      	subs	r0, r0, r3
    357c:	4152      	adcs	r2, r2
    357e:	0983      	lsrs	r3, r0, #6
    3580:	428b      	cmp	r3, r1
    3582:	d301      	bcc.n	3588 <__aeabi_uidiv+0xb4>
    3584:	018b      	lsls	r3, r1, #6
    3586:	1ac0      	subs	r0, r0, r3
    3588:	4152      	adcs	r2, r2
    358a:	0943      	lsrs	r3, r0, #5
    358c:	428b      	cmp	r3, r1
    358e:	d301      	bcc.n	3594 <__aeabi_uidiv+0xc0>
    3590:	014b      	lsls	r3, r1, #5
    3592:	1ac0      	subs	r0, r0, r3
    3594:	4152      	adcs	r2, r2
    3596:	0903      	lsrs	r3, r0, #4
    3598:	428b      	cmp	r3, r1
    359a:	d301      	bcc.n	35a0 <__aeabi_uidiv+0xcc>
    359c:	010b      	lsls	r3, r1, #4
    359e:	1ac0      	subs	r0, r0, r3
    35a0:	4152      	adcs	r2, r2
    35a2:	08c3      	lsrs	r3, r0, #3
    35a4:	428b      	cmp	r3, r1
    35a6:	d301      	bcc.n	35ac <__aeabi_uidiv+0xd8>
    35a8:	00cb      	lsls	r3, r1, #3
    35aa:	1ac0      	subs	r0, r0, r3
    35ac:	4152      	adcs	r2, r2
    35ae:	0883      	lsrs	r3, r0, #2
    35b0:	428b      	cmp	r3, r1
    35b2:	d301      	bcc.n	35b8 <__aeabi_uidiv+0xe4>
    35b4:	008b      	lsls	r3, r1, #2
    35b6:	1ac0      	subs	r0, r0, r3
    35b8:	4152      	adcs	r2, r2
    35ba:	0843      	lsrs	r3, r0, #1
    35bc:	428b      	cmp	r3, r1
    35be:	d301      	bcc.n	35c4 <__aeabi_uidiv+0xf0>
    35c0:	004b      	lsls	r3, r1, #1
    35c2:	1ac0      	subs	r0, r0, r3
    35c4:	4152      	adcs	r2, r2
    35c6:	1a41      	subs	r1, r0, r1
    35c8:	d200      	bcs.n	35cc <__aeabi_uidiv+0xf8>
    35ca:	4601      	mov	r1, r0
    35cc:	4152      	adcs	r2, r2
    35ce:	4610      	mov	r0, r2
    35d0:	4770      	bx	lr
    35d2:	e7ff      	b.n	35d4 <__aeabi_uidiv+0x100>
    35d4:	b501      	push	{r0, lr}
    35d6:	2000      	movs	r0, #0
    35d8:	f000 f8fc 	bl	37d4 <__aeabi_idiv0>
    35dc:	bd02      	pop	{r1, pc}
    35de:	46c0      	nop			; (mov r8, r8)

000035e0 <__aeabi_uidivmod>:
    35e0:	2900      	cmp	r1, #0
    35e2:	d0f7      	beq.n	35d4 <__aeabi_uidiv+0x100>
    35e4:	b503      	push	{r0, r1, lr}
    35e6:	f7ff ff75 	bl	34d4 <__aeabi_uidiv>
    35ea:	bc0e      	pop	{r1, r2, r3}
    35ec:	4342      	muls	r2, r0
    35ee:	1a89      	subs	r1, r1, r2
    35f0:	4718      	bx	r3
    35f2:	46c0      	nop			; (mov r8, r8)

000035f4 <__aeabi_idiv>:
    35f4:	4603      	mov	r3, r0
    35f6:	430b      	orrs	r3, r1
    35f8:	d47f      	bmi.n	36fa <__aeabi_idiv+0x106>
    35fa:	2200      	movs	r2, #0
    35fc:	0843      	lsrs	r3, r0, #1
    35fe:	428b      	cmp	r3, r1
    3600:	d374      	bcc.n	36ec <__aeabi_idiv+0xf8>
    3602:	0903      	lsrs	r3, r0, #4
    3604:	428b      	cmp	r3, r1
    3606:	d35f      	bcc.n	36c8 <__aeabi_idiv+0xd4>
    3608:	0a03      	lsrs	r3, r0, #8
    360a:	428b      	cmp	r3, r1
    360c:	d344      	bcc.n	3698 <__aeabi_idiv+0xa4>
    360e:	0b03      	lsrs	r3, r0, #12
    3610:	428b      	cmp	r3, r1
    3612:	d328      	bcc.n	3666 <__aeabi_idiv+0x72>
    3614:	0c03      	lsrs	r3, r0, #16
    3616:	428b      	cmp	r3, r1
    3618:	d30d      	bcc.n	3636 <__aeabi_idiv+0x42>
    361a:	22ff      	movs	r2, #255	; 0xff
    361c:	0209      	lsls	r1, r1, #8
    361e:	ba12      	rev	r2, r2
    3620:	0c03      	lsrs	r3, r0, #16
    3622:	428b      	cmp	r3, r1
    3624:	d302      	bcc.n	362c <__aeabi_idiv+0x38>
    3626:	1212      	asrs	r2, r2, #8
    3628:	0209      	lsls	r1, r1, #8
    362a:	d065      	beq.n	36f8 <__aeabi_idiv+0x104>
    362c:	0b03      	lsrs	r3, r0, #12
    362e:	428b      	cmp	r3, r1
    3630:	d319      	bcc.n	3666 <__aeabi_idiv+0x72>
    3632:	e000      	b.n	3636 <__aeabi_idiv+0x42>
    3634:	0a09      	lsrs	r1, r1, #8
    3636:	0bc3      	lsrs	r3, r0, #15
    3638:	428b      	cmp	r3, r1
    363a:	d301      	bcc.n	3640 <__aeabi_idiv+0x4c>
    363c:	03cb      	lsls	r3, r1, #15
    363e:	1ac0      	subs	r0, r0, r3
    3640:	4152      	adcs	r2, r2
    3642:	0b83      	lsrs	r3, r0, #14
    3644:	428b      	cmp	r3, r1
    3646:	d301      	bcc.n	364c <__aeabi_idiv+0x58>
    3648:	038b      	lsls	r3, r1, #14
    364a:	1ac0      	subs	r0, r0, r3
    364c:	4152      	adcs	r2, r2
    364e:	0b43      	lsrs	r3, r0, #13
    3650:	428b      	cmp	r3, r1
    3652:	d301      	bcc.n	3658 <__aeabi_idiv+0x64>
    3654:	034b      	lsls	r3, r1, #13
    3656:	1ac0      	subs	r0, r0, r3
    3658:	4152      	adcs	r2, r2
    365a:	0b03      	lsrs	r3, r0, #12
    365c:	428b      	cmp	r3, r1
    365e:	d301      	bcc.n	3664 <__aeabi_idiv+0x70>
    3660:	030b      	lsls	r3, r1, #12
    3662:	1ac0      	subs	r0, r0, r3
    3664:	4152      	adcs	r2, r2
    3666:	0ac3      	lsrs	r3, r0, #11
    3668:	428b      	cmp	r3, r1
    366a:	d301      	bcc.n	3670 <__aeabi_idiv+0x7c>
    366c:	02cb      	lsls	r3, r1, #11
    366e:	1ac0      	subs	r0, r0, r3
    3670:	4152      	adcs	r2, r2
    3672:	0a83      	lsrs	r3, r0, #10
    3674:	428b      	cmp	r3, r1
    3676:	d301      	bcc.n	367c <__aeabi_idiv+0x88>
    3678:	028b      	lsls	r3, r1, #10
    367a:	1ac0      	subs	r0, r0, r3
    367c:	4152      	adcs	r2, r2
    367e:	0a43      	lsrs	r3, r0, #9
    3680:	428b      	cmp	r3, r1
    3682:	d301      	bcc.n	3688 <__aeabi_idiv+0x94>
    3684:	024b      	lsls	r3, r1, #9
    3686:	1ac0      	subs	r0, r0, r3
    3688:	4152      	adcs	r2, r2
    368a:	0a03      	lsrs	r3, r0, #8
    368c:	428b      	cmp	r3, r1
    368e:	d301      	bcc.n	3694 <__aeabi_idiv+0xa0>
    3690:	020b      	lsls	r3, r1, #8
    3692:	1ac0      	subs	r0, r0, r3
    3694:	4152      	adcs	r2, r2
    3696:	d2cd      	bcs.n	3634 <__aeabi_idiv+0x40>
    3698:	09c3      	lsrs	r3, r0, #7
    369a:	428b      	cmp	r3, r1
    369c:	d301      	bcc.n	36a2 <__aeabi_idiv+0xae>
    369e:	01cb      	lsls	r3, r1, #7
    36a0:	1ac0      	subs	r0, r0, r3
    36a2:	4152      	adcs	r2, r2
    36a4:	0983      	lsrs	r3, r0, #6
    36a6:	428b      	cmp	r3, r1
    36a8:	d301      	bcc.n	36ae <__aeabi_idiv+0xba>
    36aa:	018b      	lsls	r3, r1, #6
    36ac:	1ac0      	subs	r0, r0, r3
    36ae:	4152      	adcs	r2, r2
    36b0:	0943      	lsrs	r3, r0, #5
    36b2:	428b      	cmp	r3, r1
    36b4:	d301      	bcc.n	36ba <__aeabi_idiv+0xc6>
    36b6:	014b      	lsls	r3, r1, #5
    36b8:	1ac0      	subs	r0, r0, r3
    36ba:	4152      	adcs	r2, r2
    36bc:	0903      	lsrs	r3, r0, #4
    36be:	428b      	cmp	r3, r1
    36c0:	d301      	bcc.n	36c6 <__aeabi_idiv+0xd2>
    36c2:	010b      	lsls	r3, r1, #4
    36c4:	1ac0      	subs	r0, r0, r3
    36c6:	4152      	adcs	r2, r2
    36c8:	08c3      	lsrs	r3, r0, #3
    36ca:	428b      	cmp	r3, r1
    36cc:	d301      	bcc.n	36d2 <__aeabi_idiv+0xde>
    36ce:	00cb      	lsls	r3, r1, #3
    36d0:	1ac0      	subs	r0, r0, r3
    36d2:	4152      	adcs	r2, r2
    36d4:	0883      	lsrs	r3, r0, #2
    36d6:	428b      	cmp	r3, r1
    36d8:	d301      	bcc.n	36de <__aeabi_idiv+0xea>
    36da:	008b      	lsls	r3, r1, #2
    36dc:	1ac0      	subs	r0, r0, r3
    36de:	4152      	adcs	r2, r2
    36e0:	0843      	lsrs	r3, r0, #1
    36e2:	428b      	cmp	r3, r1
    36e4:	d301      	bcc.n	36ea <__aeabi_idiv+0xf6>
    36e6:	004b      	lsls	r3, r1, #1
    36e8:	1ac0      	subs	r0, r0, r3
    36ea:	4152      	adcs	r2, r2
    36ec:	1a41      	subs	r1, r0, r1
    36ee:	d200      	bcs.n	36f2 <__aeabi_idiv+0xfe>
    36f0:	4601      	mov	r1, r0
    36f2:	4152      	adcs	r2, r2
    36f4:	4610      	mov	r0, r2
    36f6:	4770      	bx	lr
    36f8:	e05d      	b.n	37b6 <__aeabi_idiv+0x1c2>
    36fa:	0fca      	lsrs	r2, r1, #31
    36fc:	d000      	beq.n	3700 <__aeabi_idiv+0x10c>
    36fe:	4249      	negs	r1, r1
    3700:	1003      	asrs	r3, r0, #32
    3702:	d300      	bcc.n	3706 <__aeabi_idiv+0x112>
    3704:	4240      	negs	r0, r0
    3706:	4053      	eors	r3, r2
    3708:	2200      	movs	r2, #0
    370a:	469c      	mov	ip, r3
    370c:	0903      	lsrs	r3, r0, #4
    370e:	428b      	cmp	r3, r1
    3710:	d32d      	bcc.n	376e <__aeabi_idiv+0x17a>
    3712:	0a03      	lsrs	r3, r0, #8
    3714:	428b      	cmp	r3, r1
    3716:	d312      	bcc.n	373e <__aeabi_idiv+0x14a>
    3718:	22fc      	movs	r2, #252	; 0xfc
    371a:	0189      	lsls	r1, r1, #6
    371c:	ba12      	rev	r2, r2
    371e:	0a03      	lsrs	r3, r0, #8
    3720:	428b      	cmp	r3, r1
    3722:	d30c      	bcc.n	373e <__aeabi_idiv+0x14a>
    3724:	0189      	lsls	r1, r1, #6
    3726:	1192      	asrs	r2, r2, #6
    3728:	428b      	cmp	r3, r1
    372a:	d308      	bcc.n	373e <__aeabi_idiv+0x14a>
    372c:	0189      	lsls	r1, r1, #6
    372e:	1192      	asrs	r2, r2, #6
    3730:	428b      	cmp	r3, r1
    3732:	d304      	bcc.n	373e <__aeabi_idiv+0x14a>
    3734:	0189      	lsls	r1, r1, #6
    3736:	d03a      	beq.n	37ae <__aeabi_idiv+0x1ba>
    3738:	1192      	asrs	r2, r2, #6
    373a:	e000      	b.n	373e <__aeabi_idiv+0x14a>
    373c:	0989      	lsrs	r1, r1, #6
    373e:	09c3      	lsrs	r3, r0, #7
    3740:	428b      	cmp	r3, r1
    3742:	d301      	bcc.n	3748 <__aeabi_idiv+0x154>
    3744:	01cb      	lsls	r3, r1, #7
    3746:	1ac0      	subs	r0, r0, r3
    3748:	4152      	adcs	r2, r2
    374a:	0983      	lsrs	r3, r0, #6
    374c:	428b      	cmp	r3, r1
    374e:	d301      	bcc.n	3754 <__aeabi_idiv+0x160>
    3750:	018b      	lsls	r3, r1, #6
    3752:	1ac0      	subs	r0, r0, r3
    3754:	4152      	adcs	r2, r2
    3756:	0943      	lsrs	r3, r0, #5
    3758:	428b      	cmp	r3, r1
    375a:	d301      	bcc.n	3760 <__aeabi_idiv+0x16c>
    375c:	014b      	lsls	r3, r1, #5
    375e:	1ac0      	subs	r0, r0, r3
    3760:	4152      	adcs	r2, r2
    3762:	0903      	lsrs	r3, r0, #4
    3764:	428b      	cmp	r3, r1
    3766:	d301      	bcc.n	376c <__aeabi_idiv+0x178>
    3768:	010b      	lsls	r3, r1, #4
    376a:	1ac0      	subs	r0, r0, r3
    376c:	4152      	adcs	r2, r2
    376e:	08c3      	lsrs	r3, r0, #3
    3770:	428b      	cmp	r3, r1
    3772:	d301      	bcc.n	3778 <__aeabi_idiv+0x184>
    3774:	00cb      	lsls	r3, r1, #3
    3776:	1ac0      	subs	r0, r0, r3
    3778:	4152      	adcs	r2, r2
    377a:	0883      	lsrs	r3, r0, #2
    377c:	428b      	cmp	r3, r1
    377e:	d301      	bcc.n	3784 <__aeabi_idiv+0x190>
    3780:	008b      	lsls	r3, r1, #2
    3782:	1ac0      	subs	r0, r0, r3
    3784:	4152      	adcs	r2, r2
    3786:	d2d9      	bcs.n	373c <__aeabi_idiv+0x148>
    3788:	0843      	lsrs	r3, r0, #1
    378a:	428b      	cmp	r3, r1
    378c:	d301      	bcc.n	3792 <__aeabi_idiv+0x19e>
    378e:	004b      	lsls	r3, r1, #1
    3790:	1ac0      	subs	r0, r0, r3
    3792:	4152      	adcs	r2, r2
    3794:	1a41      	subs	r1, r0, r1
    3796:	d200      	bcs.n	379a <__aeabi_idiv+0x1a6>
    3798:	4601      	mov	r1, r0
    379a:	4663      	mov	r3, ip
    379c:	4152      	adcs	r2, r2
    379e:	105b      	asrs	r3, r3, #1
    37a0:	4610      	mov	r0, r2
    37a2:	d301      	bcc.n	37a8 <__aeabi_idiv+0x1b4>
    37a4:	4240      	negs	r0, r0
    37a6:	2b00      	cmp	r3, #0
    37a8:	d500      	bpl.n	37ac <__aeabi_idiv+0x1b8>
    37aa:	4249      	negs	r1, r1
    37ac:	4770      	bx	lr
    37ae:	4663      	mov	r3, ip
    37b0:	105b      	asrs	r3, r3, #1
    37b2:	d300      	bcc.n	37b6 <__aeabi_idiv+0x1c2>
    37b4:	4240      	negs	r0, r0
    37b6:	b501      	push	{r0, lr}
    37b8:	2000      	movs	r0, #0
    37ba:	f000 f80b 	bl	37d4 <__aeabi_idiv0>
    37be:	bd02      	pop	{r1, pc}

000037c0 <__aeabi_idivmod>:
    37c0:	2900      	cmp	r1, #0
    37c2:	d0f8      	beq.n	37b6 <__aeabi_idiv+0x1c2>
    37c4:	b503      	push	{r0, r1, lr}
    37c6:	f7ff ff15 	bl	35f4 <__aeabi_idiv>
    37ca:	bc0e      	pop	{r1, r2, r3}
    37cc:	4342      	muls	r2, r0
    37ce:	1a89      	subs	r1, r1, r2
    37d0:	4718      	bx	r3
    37d2:	46c0      	nop			; (mov r8, r8)

000037d4 <__aeabi_idiv0>:
    37d4:	4770      	bx	lr
    37d6:	46c0      	nop			; (mov r8, r8)

000037d8 <__aeabi_uldivmod>:
    37d8:	2b00      	cmp	r3, #0
    37da:	d111      	bne.n	3800 <__aeabi_uldivmod+0x28>
    37dc:	2a00      	cmp	r2, #0
    37de:	d10f      	bne.n	3800 <__aeabi_uldivmod+0x28>
    37e0:	2900      	cmp	r1, #0
    37e2:	d100      	bne.n	37e6 <__aeabi_uldivmod+0xe>
    37e4:	2800      	cmp	r0, #0
    37e6:	d002      	beq.n	37ee <__aeabi_uldivmod+0x16>
    37e8:	2100      	movs	r1, #0
    37ea:	43c9      	mvns	r1, r1
    37ec:	1c08      	adds	r0, r1, #0
    37ee:	b407      	push	{r0, r1, r2}
    37f0:	4802      	ldr	r0, [pc, #8]	; (37fc <__aeabi_uldivmod+0x24>)
    37f2:	a102      	add	r1, pc, #8	; (adr r1, 37fc <__aeabi_uldivmod+0x24>)
    37f4:	1840      	adds	r0, r0, r1
    37f6:	9002      	str	r0, [sp, #8]
    37f8:	bd03      	pop	{r0, r1, pc}
    37fa:	46c0      	nop			; (mov r8, r8)
    37fc:	ffffffd9 	.word	0xffffffd9
    3800:	b403      	push	{r0, r1}
    3802:	4668      	mov	r0, sp
    3804:	b501      	push	{r0, lr}
    3806:	9802      	ldr	r0, [sp, #8]
    3808:	f000 f84c 	bl	38a4 <__gnu_uldivmod_helper>
    380c:	9b01      	ldr	r3, [sp, #4]
    380e:	469e      	mov	lr, r3
    3810:	b002      	add	sp, #8
    3812:	bc0c      	pop	{r2, r3}
    3814:	4770      	bx	lr
    3816:	46c0      	nop			; (mov r8, r8)

00003818 <__aeabi_lmul>:
    3818:	b5f0      	push	{r4, r5, r6, r7, lr}
    381a:	464f      	mov	r7, r9
    381c:	4646      	mov	r6, r8
    381e:	0405      	lsls	r5, r0, #16
    3820:	0c2d      	lsrs	r5, r5, #16
    3822:	1c2c      	adds	r4, r5, #0
    3824:	b4c0      	push	{r6, r7}
    3826:	0417      	lsls	r7, r2, #16
    3828:	0c16      	lsrs	r6, r2, #16
    382a:	0c3f      	lsrs	r7, r7, #16
    382c:	4699      	mov	r9, r3
    382e:	0c03      	lsrs	r3, r0, #16
    3830:	437c      	muls	r4, r7
    3832:	4375      	muls	r5, r6
    3834:	435f      	muls	r7, r3
    3836:	4373      	muls	r3, r6
    3838:	197d      	adds	r5, r7, r5
    383a:	0c26      	lsrs	r6, r4, #16
    383c:	19ad      	adds	r5, r5, r6
    383e:	469c      	mov	ip, r3
    3840:	42af      	cmp	r7, r5
    3842:	d903      	bls.n	384c <__aeabi_lmul+0x34>
    3844:	2380      	movs	r3, #128	; 0x80
    3846:	025b      	lsls	r3, r3, #9
    3848:	4698      	mov	r8, r3
    384a:	44c4      	add	ip, r8
    384c:	464b      	mov	r3, r9
    384e:	4351      	muls	r1, r2
    3850:	4343      	muls	r3, r0
    3852:	0424      	lsls	r4, r4, #16
    3854:	0c2e      	lsrs	r6, r5, #16
    3856:	0c24      	lsrs	r4, r4, #16
    3858:	042d      	lsls	r5, r5, #16
    385a:	4466      	add	r6, ip
    385c:	192c      	adds	r4, r5, r4
    385e:	1859      	adds	r1, r3, r1
    3860:	1989      	adds	r1, r1, r6
    3862:	1c20      	adds	r0, r4, #0
    3864:	bc0c      	pop	{r2, r3}
    3866:	4690      	mov	r8, r2
    3868:	4699      	mov	r9, r3
    386a:	bdf0      	pop	{r4, r5, r6, r7, pc}

0000386c <__gnu_ldivmod_helper>:
    386c:	b5f0      	push	{r4, r5, r6, r7, lr}
    386e:	b083      	sub	sp, #12
    3870:	1c16      	adds	r6, r2, #0
    3872:	1c1f      	adds	r7, r3, #0
    3874:	9000      	str	r0, [sp, #0]
    3876:	9101      	str	r1, [sp, #4]
    3878:	f000 f82e 	bl	38d8 <__divdi3>
    387c:	1c04      	adds	r4, r0, #0
    387e:	1c0d      	adds	r5, r1, #0
    3880:	1c22      	adds	r2, r4, #0
    3882:	1c2b      	adds	r3, r5, #0
    3884:	1c30      	adds	r0, r6, #0
    3886:	1c39      	adds	r1, r7, #0
    3888:	f7ff ffc6 	bl	3818 <__aeabi_lmul>
    388c:	9a00      	ldr	r2, [sp, #0]
    388e:	9b01      	ldr	r3, [sp, #4]
    3890:	1a12      	subs	r2, r2, r0
    3892:	418b      	sbcs	r3, r1
    3894:	9908      	ldr	r1, [sp, #32]
    3896:	1c20      	adds	r0, r4, #0
    3898:	600a      	str	r2, [r1, #0]
    389a:	604b      	str	r3, [r1, #4]
    389c:	1c29      	adds	r1, r5, #0
    389e:	b003      	add	sp, #12
    38a0:	bdf0      	pop	{r4, r5, r6, r7, pc}
    38a2:	46c0      	nop			; (mov r8, r8)

000038a4 <__gnu_uldivmod_helper>:
    38a4:	b5f0      	push	{r4, r5, r6, r7, lr}
    38a6:	1c14      	adds	r4, r2, #0
    38a8:	b083      	sub	sp, #12
    38aa:	1c1d      	adds	r5, r3, #0
    38ac:	9000      	str	r0, [sp, #0]
    38ae:	9101      	str	r1, [sp, #4]
    38b0:	f000 f90a 	bl	3ac8 <__udivdi3>
    38b4:	1c22      	adds	r2, r4, #0
    38b6:	1c2b      	adds	r3, r5, #0
    38b8:	1c06      	adds	r6, r0, #0
    38ba:	1c0f      	adds	r7, r1, #0
    38bc:	f7ff ffac 	bl	3818 <__aeabi_lmul>
    38c0:	9a00      	ldr	r2, [sp, #0]
    38c2:	9b01      	ldr	r3, [sp, #4]
    38c4:	1a12      	subs	r2, r2, r0
    38c6:	418b      	sbcs	r3, r1
    38c8:	9908      	ldr	r1, [sp, #32]
    38ca:	1c30      	adds	r0, r6, #0
    38cc:	600a      	str	r2, [r1, #0]
    38ce:	604b      	str	r3, [r1, #4]
    38d0:	1c39      	adds	r1, r7, #0
    38d2:	b003      	add	sp, #12
    38d4:	bdf0      	pop	{r4, r5, r6, r7, pc}
    38d6:	46c0      	nop			; (mov r8, r8)

000038d8 <__divdi3>:
    38d8:	b5f0      	push	{r4, r5, r6, r7, lr}
    38da:	4644      	mov	r4, r8
    38dc:	465f      	mov	r7, fp
    38de:	4656      	mov	r6, sl
    38e0:	464d      	mov	r5, r9
    38e2:	b4f0      	push	{r4, r5, r6, r7}
    38e4:	1c1c      	adds	r4, r3, #0
    38e6:	b085      	sub	sp, #20
    38e8:	2900      	cmp	r1, #0
    38ea:	da00      	bge.n	38ee <__divdi3+0x16>
    38ec:	e0a9      	b.n	3a42 <__divdi3+0x16a>
    38ee:	1c0f      	adds	r7, r1, #0
    38f0:	2100      	movs	r1, #0
    38f2:	1c06      	adds	r6, r0, #0
    38f4:	4688      	mov	r8, r1
    38f6:	1c10      	adds	r0, r2, #0
    38f8:	1c19      	adds	r1, r3, #0
    38fa:	2c00      	cmp	r4, #0
    38fc:	da00      	bge.n	3900 <__divdi3+0x28>
    38fe:	e097      	b.n	3a30 <__divdi3+0x158>
    3900:	1c34      	adds	r4, r6, #0
    3902:	1c3d      	adds	r5, r7, #0
    3904:	4682      	mov	sl, r0
    3906:	4689      	mov	r9, r1
    3908:	42b9      	cmp	r1, r7
    390a:	d873      	bhi.n	39f4 <__divdi3+0x11c>
    390c:	d070      	beq.n	39f0 <__divdi3+0x118>
    390e:	4649      	mov	r1, r9
    3910:	4650      	mov	r0, sl
    3912:	f000 f985 	bl	3c20 <__clzdi2>
    3916:	4683      	mov	fp, r0
    3918:	1c39      	adds	r1, r7, #0
    391a:	1c30      	adds	r0, r6, #0
    391c:	f000 f980 	bl	3c20 <__clzdi2>
    3920:	465b      	mov	r3, fp
    3922:	1a18      	subs	r0, r3, r0
    3924:	1c03      	adds	r3, r0, #0
    3926:	4683      	mov	fp, r0
    3928:	3b20      	subs	r3, #32
    392a:	469c      	mov	ip, r3
    392c:	d500      	bpl.n	3930 <__divdi3+0x58>
    392e:	e09c      	b.n	3a6a <__divdi3+0x192>
    3930:	2300      	movs	r3, #0
    3932:	2200      	movs	r2, #0
    3934:	4651      	mov	r1, sl
    3936:	9200      	str	r2, [sp, #0]
    3938:	9301      	str	r3, [sp, #4]
    393a:	4663      	mov	r3, ip
    393c:	4099      	lsls	r1, r3
    393e:	9101      	str	r1, [sp, #4]
    3940:	4651      	mov	r1, sl
    3942:	4081      	lsls	r1, r0
    3944:	9b01      	ldr	r3, [sp, #4]
    3946:	9100      	str	r1, [sp, #0]
    3948:	42bb      	cmp	r3, r7
    394a:	d900      	bls.n	394e <__divdi3+0x76>
    394c:	e083      	b.n	3a56 <__divdi3+0x17e>
    394e:	d100      	bne.n	3952 <__divdi3+0x7a>
    3950:	e07e      	b.n	3a50 <__divdi3+0x178>
    3952:	9a00      	ldr	r2, [sp, #0]
    3954:	9b01      	ldr	r3, [sp, #4]
    3956:	1c34      	adds	r4, r6, #0
    3958:	1c3d      	adds	r5, r7, #0
    395a:	1aa4      	subs	r4, r4, r2
    395c:	419d      	sbcs	r5, r3
    395e:	4663      	mov	r3, ip
    3960:	2b00      	cmp	r3, #0
    3962:	da00      	bge.n	3966 <__divdi3+0x8e>
    3964:	e09a      	b.n	3a9c <__divdi3+0x1c4>
    3966:	2600      	movs	r6, #0
    3968:	2700      	movs	r7, #0
    396a:	9602      	str	r6, [sp, #8]
    396c:	9703      	str	r7, [sp, #12]
    396e:	3601      	adds	r6, #1
    3970:	409e      	lsls	r6, r3
    3972:	9603      	str	r6, [sp, #12]
    3974:	2601      	movs	r6, #1
    3976:	4086      	lsls	r6, r0
    3978:	9602      	str	r6, [sp, #8]
    397a:	2800      	cmp	r0, #0
    397c:	d100      	bne.n	3980 <__divdi3+0xa8>
    397e:	e071      	b.n	3a64 <__divdi3+0x18c>
    3980:	9900      	ldr	r1, [sp, #0]
    3982:	9a01      	ldr	r2, [sp, #4]
    3984:	07d3      	lsls	r3, r2, #31
    3986:	4699      	mov	r9, r3
    3988:	464b      	mov	r3, r9
    398a:	084e      	lsrs	r6, r1, #1
    398c:	431e      	orrs	r6, r3
    398e:	0857      	lsrs	r7, r2, #1
    3990:	2300      	movs	r3, #0
    3992:	2201      	movs	r2, #1
    3994:	e00c      	b.n	39b0 <__divdi3+0xd8>
    3996:	42af      	cmp	r7, r5
    3998:	d101      	bne.n	399e <__divdi3+0xc6>
    399a:	42a6      	cmp	r6, r4
    399c:	d80a      	bhi.n	39b4 <__divdi3+0xdc>
    399e:	1ba4      	subs	r4, r4, r6
    39a0:	41bd      	sbcs	r5, r7
    39a2:	1924      	adds	r4, r4, r4
    39a4:	416d      	adcs	r5, r5
    39a6:	3801      	subs	r0, #1
    39a8:	18a4      	adds	r4, r4, r2
    39aa:	415d      	adcs	r5, r3
    39ac:	2800      	cmp	r0, #0
    39ae:	d006      	beq.n	39be <__divdi3+0xe6>
    39b0:	42af      	cmp	r7, r5
    39b2:	d9f0      	bls.n	3996 <__divdi3+0xbe>
    39b4:	3801      	subs	r0, #1
    39b6:	1924      	adds	r4, r4, r4
    39b8:	416d      	adcs	r5, r5
    39ba:	2800      	cmp	r0, #0
    39bc:	d1f8      	bne.n	39b0 <__divdi3+0xd8>
    39be:	2220      	movs	r2, #32
    39c0:	9e02      	ldr	r6, [sp, #8]
    39c2:	9f03      	ldr	r7, [sp, #12]
    39c4:	465b      	mov	r3, fp
    39c6:	4252      	negs	r2, r2
    39c8:	1936      	adds	r6, r6, r4
    39ca:	416f      	adcs	r7, r5
    39cc:	1899      	adds	r1, r3, r2
    39ce:	d45a      	bmi.n	3a86 <__divdi3+0x1ae>
    39d0:	1c28      	adds	r0, r5, #0
    39d2:	40c8      	lsrs	r0, r1
    39d4:	1c2c      	adds	r4, r5, #0
    39d6:	465b      	mov	r3, fp
    39d8:	40dc      	lsrs	r4, r3
    39da:	2900      	cmp	r1, #0
    39dc:	db68      	blt.n	3ab0 <__divdi3+0x1d8>
    39de:	1c04      	adds	r4, r0, #0
    39e0:	408c      	lsls	r4, r1
    39e2:	1c23      	adds	r3, r4, #0
    39e4:	4659      	mov	r1, fp
    39e6:	4088      	lsls	r0, r1
    39e8:	1c02      	adds	r2, r0, #0
    39ea:	1ab6      	subs	r6, r6, r2
    39ec:	419f      	sbcs	r7, r3
    39ee:	e003      	b.n	39f8 <__divdi3+0x120>
    39f0:	42b0      	cmp	r0, r6
    39f2:	d98c      	bls.n	390e <__divdi3+0x36>
    39f4:	2600      	movs	r6, #0
    39f6:	2700      	movs	r7, #0
    39f8:	4641      	mov	r1, r8
    39fa:	1e4b      	subs	r3, r1, #1
    39fc:	4199      	sbcs	r1, r3
    39fe:	2300      	movs	r3, #0
    3a00:	9100      	str	r1, [sp, #0]
    3a02:	9301      	str	r3, [sp, #4]
    3a04:	9a00      	ldr	r2, [sp, #0]
    3a06:	9b01      	ldr	r3, [sp, #4]
    3a08:	2500      	movs	r5, #0
    3a0a:	4254      	negs	r4, r2
    3a0c:	419d      	sbcs	r5, r3
    3a0e:	1c33      	adds	r3, r6, #0
    3a10:	4063      	eors	r3, r4
    3a12:	1c18      	adds	r0, r3, #0
    3a14:	1c3b      	adds	r3, r7, #0
    3a16:	406b      	eors	r3, r5
    3a18:	1c19      	adds	r1, r3, #0
    3a1a:	9b00      	ldr	r3, [sp, #0]
    3a1c:	9c01      	ldr	r4, [sp, #4]
    3a1e:	18c0      	adds	r0, r0, r3
    3a20:	4161      	adcs	r1, r4
    3a22:	b005      	add	sp, #20
    3a24:	bc3c      	pop	{r2, r3, r4, r5}
    3a26:	4690      	mov	r8, r2
    3a28:	4699      	mov	r9, r3
    3a2a:	46a2      	mov	sl, r4
    3a2c:	46ab      	mov	fp, r5
    3a2e:	bdf0      	pop	{r4, r5, r6, r7, pc}
    3a30:	4643      	mov	r3, r8
    3a32:	43db      	mvns	r3, r3
    3a34:	1c0c      	adds	r4, r1, #0
    3a36:	4698      	mov	r8, r3
    3a38:	1c13      	adds	r3, r2, #0
    3a3a:	2100      	movs	r1, #0
    3a3c:	4258      	negs	r0, r3
    3a3e:	41a1      	sbcs	r1, r4
    3a40:	e75e      	b.n	3900 <__divdi3+0x28>
    3a42:	2700      	movs	r7, #0
    3a44:	4246      	negs	r6, r0
    3a46:	418f      	sbcs	r7, r1
    3a48:	2101      	movs	r1, #1
    3a4a:	4249      	negs	r1, r1
    3a4c:	4688      	mov	r8, r1
    3a4e:	e752      	b.n	38f6 <__divdi3+0x1e>
    3a50:	42b1      	cmp	r1, r6
    3a52:	d800      	bhi.n	3a56 <__divdi3+0x17e>
    3a54:	e77d      	b.n	3952 <__divdi3+0x7a>
    3a56:	2600      	movs	r6, #0
    3a58:	2700      	movs	r7, #0
    3a5a:	9602      	str	r6, [sp, #8]
    3a5c:	9703      	str	r7, [sp, #12]
    3a5e:	2800      	cmp	r0, #0
    3a60:	d000      	beq.n	3a64 <__divdi3+0x18c>
    3a62:	e78d      	b.n	3980 <__divdi3+0xa8>
    3a64:	9e02      	ldr	r6, [sp, #8]
    3a66:	9f03      	ldr	r7, [sp, #12]
    3a68:	e7c6      	b.n	39f8 <__divdi3+0x120>
    3a6a:	2120      	movs	r1, #32
    3a6c:	4653      	mov	r3, sl
    3a6e:	1a09      	subs	r1, r1, r0
    3a70:	40cb      	lsrs	r3, r1
    3a72:	2200      	movs	r2, #0
    3a74:	1c19      	adds	r1, r3, #0
    3a76:	2300      	movs	r3, #0
    3a78:	9200      	str	r2, [sp, #0]
    3a7a:	9301      	str	r3, [sp, #4]
    3a7c:	464b      	mov	r3, r9
    3a7e:	4083      	lsls	r3, r0
    3a80:	430b      	orrs	r3, r1
    3a82:	9301      	str	r3, [sp, #4]
    3a84:	e75c      	b.n	3940 <__divdi3+0x68>
    3a86:	465a      	mov	r2, fp
    3a88:	2320      	movs	r3, #32
    3a8a:	1a9b      	subs	r3, r3, r2
    3a8c:	1c2a      	adds	r2, r5, #0
    3a8e:	409a      	lsls	r2, r3
    3a90:	1c20      	adds	r0, r4, #0
    3a92:	1c13      	adds	r3, r2, #0
    3a94:	465a      	mov	r2, fp
    3a96:	40d0      	lsrs	r0, r2
    3a98:	4318      	orrs	r0, r3
    3a9a:	e79b      	b.n	39d4 <__divdi3+0xfc>
    3a9c:	2620      	movs	r6, #32
    3a9e:	2700      	movs	r7, #0
    3aa0:	1a33      	subs	r3, r6, r0
    3aa2:	2600      	movs	r6, #0
    3aa4:	9602      	str	r6, [sp, #8]
    3aa6:	9703      	str	r7, [sp, #12]
    3aa8:	2701      	movs	r7, #1
    3aaa:	40df      	lsrs	r7, r3
    3aac:	9703      	str	r7, [sp, #12]
    3aae:	e761      	b.n	3974 <__divdi3+0x9c>
    3ab0:	465b      	mov	r3, fp
    3ab2:	2120      	movs	r1, #32
    3ab4:	465d      	mov	r5, fp
    3ab6:	1ac9      	subs	r1, r1, r3
    3ab8:	1c03      	adds	r3, r0, #0
    3aba:	40ac      	lsls	r4, r5
    3abc:	40cb      	lsrs	r3, r1
    3abe:	1c19      	adds	r1, r3, #0
    3ac0:	1c23      	adds	r3, r4, #0
    3ac2:	430b      	orrs	r3, r1
    3ac4:	e78e      	b.n	39e4 <__divdi3+0x10c>
    3ac6:	46c0      	nop			; (mov r8, r8)

00003ac8 <__udivdi3>:
    3ac8:	b5f0      	push	{r4, r5, r6, r7, lr}
    3aca:	4645      	mov	r5, r8
    3acc:	464e      	mov	r6, r9
    3ace:	4657      	mov	r7, sl
    3ad0:	b4e0      	push	{r5, r6, r7}
    3ad2:	1c04      	adds	r4, r0, #0
    3ad4:	b082      	sub	sp, #8
    3ad6:	1c0d      	adds	r5, r1, #0
    3ad8:	4691      	mov	r9, r2
    3ada:	4698      	mov	r8, r3
    3adc:	428b      	cmp	r3, r1
    3ade:	d862      	bhi.n	3ba6 <__udivdi3+0xde>
    3ae0:	d05f      	beq.n	3ba2 <__udivdi3+0xda>
    3ae2:	4641      	mov	r1, r8
    3ae4:	4648      	mov	r0, r9
    3ae6:	f000 f89b 	bl	3c20 <__clzdi2>
    3aea:	1c29      	adds	r1, r5, #0
    3aec:	1c06      	adds	r6, r0, #0
    3aee:	1c20      	adds	r0, r4, #0
    3af0:	f000 f896 	bl	3c20 <__clzdi2>
    3af4:	2320      	movs	r3, #32
    3af6:	1a31      	subs	r1, r6, r0
    3af8:	425b      	negs	r3, r3
    3afa:	468a      	mov	sl, r1
    3afc:	18c8      	adds	r0, r1, r3
    3afe:	d465      	bmi.n	3bcc <__udivdi3+0x104>
    3b00:	464b      	mov	r3, r9
    3b02:	4083      	lsls	r3, r0
    3b04:	1c1f      	adds	r7, r3, #0
    3b06:	464b      	mov	r3, r9
    3b08:	408b      	lsls	r3, r1
    3b0a:	1c1e      	adds	r6, r3, #0
    3b0c:	42af      	cmp	r7, r5
    3b0e:	d858      	bhi.n	3bc2 <__udivdi3+0xfa>
    3b10:	d055      	beq.n	3bbe <__udivdi3+0xf6>
    3b12:	1ba4      	subs	r4, r4, r6
    3b14:	41bd      	sbcs	r5, r7
    3b16:	2800      	cmp	r0, #0
    3b18:	da00      	bge.n	3b1c <__udivdi3+0x54>
    3b1a:	e077      	b.n	3c0c <__udivdi3+0x144>
    3b1c:	2200      	movs	r2, #0
    3b1e:	2300      	movs	r3, #0
    3b20:	9200      	str	r2, [sp, #0]
    3b22:	9301      	str	r3, [sp, #4]
    3b24:	3201      	adds	r2, #1
    3b26:	4082      	lsls	r2, r0
    3b28:	9201      	str	r2, [sp, #4]
    3b2a:	2301      	movs	r3, #1
    3b2c:	408b      	lsls	r3, r1
    3b2e:	9300      	str	r3, [sp, #0]
    3b30:	2900      	cmp	r1, #0
    3b32:	d03c      	beq.n	3bae <__udivdi3+0xe6>
    3b34:	07fb      	lsls	r3, r7, #31
    3b36:	4698      	mov	r8, r3
    3b38:	4640      	mov	r0, r8
    3b3a:	0872      	lsrs	r2, r6, #1
    3b3c:	087b      	lsrs	r3, r7, #1
    3b3e:	4302      	orrs	r2, r0
    3b40:	2601      	movs	r6, #1
    3b42:	2700      	movs	r7, #0
    3b44:	e00c      	b.n	3b60 <__udivdi3+0x98>
    3b46:	42ab      	cmp	r3, r5
    3b48:	d101      	bne.n	3b4e <__udivdi3+0x86>
    3b4a:	42a2      	cmp	r2, r4
    3b4c:	d80a      	bhi.n	3b64 <__udivdi3+0x9c>
    3b4e:	1aa4      	subs	r4, r4, r2
    3b50:	419d      	sbcs	r5, r3
    3b52:	1924      	adds	r4, r4, r4
    3b54:	416d      	adcs	r5, r5
    3b56:	3901      	subs	r1, #1
    3b58:	19a4      	adds	r4, r4, r6
    3b5a:	417d      	adcs	r5, r7
    3b5c:	2900      	cmp	r1, #0
    3b5e:	d006      	beq.n	3b6e <__udivdi3+0xa6>
    3b60:	42ab      	cmp	r3, r5
    3b62:	d9f0      	bls.n	3b46 <__udivdi3+0x7e>
    3b64:	3901      	subs	r1, #1
    3b66:	1924      	adds	r4, r4, r4
    3b68:	416d      	adcs	r5, r5
    3b6a:	2900      	cmp	r1, #0
    3b6c:	d1f8      	bne.n	3b60 <__udivdi3+0x98>
    3b6e:	2220      	movs	r2, #32
    3b70:	9800      	ldr	r0, [sp, #0]
    3b72:	9901      	ldr	r1, [sp, #4]
    3b74:	4653      	mov	r3, sl
    3b76:	4252      	negs	r2, r2
    3b78:	1900      	adds	r0, r0, r4
    3b7a:	4169      	adcs	r1, r5
    3b7c:	189e      	adds	r6, r3, r2
    3b7e:	d43a      	bmi.n	3bf6 <__udivdi3+0x12e>
    3b80:	1c2f      	adds	r7, r5, #0
    3b82:	40f7      	lsrs	r7, r6
    3b84:	4653      	mov	r3, sl
    3b86:	40dd      	lsrs	r5, r3
    3b88:	2e00      	cmp	r6, #0
    3b8a:	db29      	blt.n	3be0 <__udivdi3+0x118>
    3b8c:	1c3c      	adds	r4, r7, #0
    3b8e:	40b4      	lsls	r4, r6
    3b90:	1c23      	adds	r3, r4, #0
    3b92:	4654      	mov	r4, sl
    3b94:	40a7      	lsls	r7, r4
    3b96:	1c3a      	adds	r2, r7, #0
    3b98:	1a80      	subs	r0, r0, r2
    3b9a:	4199      	sbcs	r1, r3
    3b9c:	9000      	str	r0, [sp, #0]
    3b9e:	9101      	str	r1, [sp, #4]
    3ba0:	e005      	b.n	3bae <__udivdi3+0xe6>
    3ba2:	4282      	cmp	r2, r0
    3ba4:	d99d      	bls.n	3ae2 <__udivdi3+0x1a>
    3ba6:	2300      	movs	r3, #0
    3ba8:	2400      	movs	r4, #0
    3baa:	9300      	str	r3, [sp, #0]
    3bac:	9401      	str	r4, [sp, #4]
    3bae:	9800      	ldr	r0, [sp, #0]
    3bb0:	9901      	ldr	r1, [sp, #4]
    3bb2:	b002      	add	sp, #8
    3bb4:	bc1c      	pop	{r2, r3, r4}
    3bb6:	4690      	mov	r8, r2
    3bb8:	4699      	mov	r9, r3
    3bba:	46a2      	mov	sl, r4
    3bbc:	bdf0      	pop	{r4, r5, r6, r7, pc}
    3bbe:	42a3      	cmp	r3, r4
    3bc0:	d9a7      	bls.n	3b12 <__udivdi3+0x4a>
    3bc2:	2200      	movs	r2, #0
    3bc4:	2300      	movs	r3, #0
    3bc6:	9200      	str	r2, [sp, #0]
    3bc8:	9301      	str	r3, [sp, #4]
    3bca:	e7b1      	b.n	3b30 <__udivdi3+0x68>
    3bcc:	2220      	movs	r2, #32
    3bce:	464b      	mov	r3, r9
    3bd0:	1a52      	subs	r2, r2, r1
    3bd2:	40d3      	lsrs	r3, r2
    3bd4:	1c1a      	adds	r2, r3, #0
    3bd6:	4643      	mov	r3, r8
    3bd8:	408b      	lsls	r3, r1
    3bda:	1c1f      	adds	r7, r3, #0
    3bdc:	4317      	orrs	r7, r2
    3bde:	e792      	b.n	3b06 <__udivdi3+0x3e>
    3be0:	4653      	mov	r3, sl
    3be2:	2420      	movs	r4, #32
    3be4:	4656      	mov	r6, sl
    3be6:	1ae4      	subs	r4, r4, r3
    3be8:	1c3b      	adds	r3, r7, #0
    3bea:	40b5      	lsls	r5, r6
    3bec:	40e3      	lsrs	r3, r4
    3bee:	1c1c      	adds	r4, r3, #0
    3bf0:	1c2b      	adds	r3, r5, #0
    3bf2:	4323      	orrs	r3, r4
    3bf4:	e7cd      	b.n	3b92 <__udivdi3+0xca>
    3bf6:	4652      	mov	r2, sl
    3bf8:	2320      	movs	r3, #32
    3bfa:	1a9b      	subs	r3, r3, r2
    3bfc:	1c2a      	adds	r2, r5, #0
    3bfe:	409a      	lsls	r2, r3
    3c00:	1c27      	adds	r7, r4, #0
    3c02:	1c13      	adds	r3, r2, #0
    3c04:	4652      	mov	r2, sl
    3c06:	40d7      	lsrs	r7, r2
    3c08:	431f      	orrs	r7, r3
    3c0a:	e7bb      	b.n	3b84 <__udivdi3+0xbc>
    3c0c:	2320      	movs	r3, #32
    3c0e:	2200      	movs	r2, #0
    3c10:	1a58      	subs	r0, r3, r1
    3c12:	2300      	movs	r3, #0
    3c14:	9200      	str	r2, [sp, #0]
    3c16:	9301      	str	r3, [sp, #4]
    3c18:	3201      	adds	r2, #1
    3c1a:	40c2      	lsrs	r2, r0
    3c1c:	9201      	str	r2, [sp, #4]
    3c1e:	e784      	b.n	3b2a <__udivdi3+0x62>

00003c20 <__clzdi2>:
    3c20:	b510      	push	{r4, lr}
    3c22:	2900      	cmp	r1, #0
    3c24:	d103      	bne.n	3c2e <__clzdi2+0xe>
    3c26:	f000 f807 	bl	3c38 <__clzsi2>
    3c2a:	3020      	adds	r0, #32
    3c2c:	e002      	b.n	3c34 <__clzdi2+0x14>
    3c2e:	1c08      	adds	r0, r1, #0
    3c30:	f000 f802 	bl	3c38 <__clzsi2>
    3c34:	bd10      	pop	{r4, pc}
    3c36:	46c0      	nop			; (mov r8, r8)

00003c38 <__clzsi2>:
    3c38:	211c      	movs	r1, #28
    3c3a:	2301      	movs	r3, #1
    3c3c:	041b      	lsls	r3, r3, #16
    3c3e:	4298      	cmp	r0, r3
    3c40:	d301      	bcc.n	3c46 <__clzsi2+0xe>
    3c42:	0c00      	lsrs	r0, r0, #16
    3c44:	3910      	subs	r1, #16
    3c46:	0a1b      	lsrs	r3, r3, #8
    3c48:	4298      	cmp	r0, r3
    3c4a:	d301      	bcc.n	3c50 <__clzsi2+0x18>
    3c4c:	0a00      	lsrs	r0, r0, #8
    3c4e:	3908      	subs	r1, #8
    3c50:	091b      	lsrs	r3, r3, #4
    3c52:	4298      	cmp	r0, r3
    3c54:	d301      	bcc.n	3c5a <__clzsi2+0x22>
    3c56:	0900      	lsrs	r0, r0, #4
    3c58:	3904      	subs	r1, #4
    3c5a:	a202      	add	r2, pc, #8	; (adr r2, 3c64 <__clzsi2+0x2c>)
    3c5c:	5c10      	ldrb	r0, [r2, r0]
    3c5e:	1840      	adds	r0, r0, r1
    3c60:	4770      	bx	lr
    3c62:	46c0      	nop			; (mov r8, r8)
    3c64:	02020304 	.word	0x02020304
    3c68:	01010101 	.word	0x01010101
	...

00003c74 <__libc_init_array>:
    3c74:	4b0e      	ldr	r3, [pc, #56]	; (3cb0 <__libc_init_array+0x3c>)
    3c76:	b570      	push	{r4, r5, r6, lr}
    3c78:	2500      	movs	r5, #0
    3c7a:	1c1e      	adds	r6, r3, #0
    3c7c:	4c0d      	ldr	r4, [pc, #52]	; (3cb4 <__libc_init_array+0x40>)
    3c7e:	1ae4      	subs	r4, r4, r3
    3c80:	10a4      	asrs	r4, r4, #2
    3c82:	42a5      	cmp	r5, r4
    3c84:	d004      	beq.n	3c90 <__libc_init_array+0x1c>
    3c86:	00ab      	lsls	r3, r5, #2
    3c88:	58f3      	ldr	r3, [r6, r3]
    3c8a:	4798      	blx	r3
    3c8c:	3501      	adds	r5, #1
    3c8e:	e7f8      	b.n	3c82 <__libc_init_array+0xe>
    3c90:	f000 f954 	bl	3f3c <_init>
    3c94:	4b08      	ldr	r3, [pc, #32]	; (3cb8 <__libc_init_array+0x44>)
    3c96:	2500      	movs	r5, #0
    3c98:	1c1e      	adds	r6, r3, #0
    3c9a:	4c08      	ldr	r4, [pc, #32]	; (3cbc <__libc_init_array+0x48>)
    3c9c:	1ae4      	subs	r4, r4, r3
    3c9e:	10a4      	asrs	r4, r4, #2
    3ca0:	42a5      	cmp	r5, r4
    3ca2:	d004      	beq.n	3cae <__libc_init_array+0x3a>
    3ca4:	00ab      	lsls	r3, r5, #2
    3ca6:	58f3      	ldr	r3, [r6, r3]
    3ca8:	4798      	blx	r3
    3caa:	3501      	adds	r5, #1
    3cac:	e7f8      	b.n	3ca0 <__libc_init_array+0x2c>
    3cae:	bd70      	pop	{r4, r5, r6, pc}
    3cb0:	00003f48 	.word	0x00003f48
    3cb4:	00003f48 	.word	0x00003f48
    3cb8:	00003f48 	.word	0x00003f48
    3cbc:	00003f4c 	.word	0x00003f4c

00003cc0 <memcpy>:
    3cc0:	2300      	movs	r3, #0
    3cc2:	b510      	push	{r4, lr}
    3cc4:	4293      	cmp	r3, r2
    3cc6:	d003      	beq.n	3cd0 <memcpy+0x10>
    3cc8:	5ccc      	ldrb	r4, [r1, r3]
    3cca:	54c4      	strb	r4, [r0, r3]
    3ccc:	3301      	adds	r3, #1
    3cce:	e7f9      	b.n	3cc4 <memcpy+0x4>
    3cd0:	bd10      	pop	{r4, pc}
    3cd2:	0000      	movs	r0, r0
    3cd4:	42000800 	.word	0x42000800
    3cd8:	42000c00 	.word	0x42000c00
    3cdc:	42001000 	.word	0x42001000
    3ce0:	42001400 	.word	0x42001400
    3ce4:	000009be 	.word	0x000009be
    3ce8:	000009be 	.word	0x000009be
    3cec:	000009b4 	.word	0x000009b4
    3cf0:	000009be 	.word	0x000009be
    3cf4:	000009b4 	.word	0x000009b4
    3cf8:	0000099a 	.word	0x0000099a
    3cfc:	0000099a 	.word	0x0000099a
    3d00:	000009be 	.word	0x000009be
    3d04:	000009be 	.word	0x000009be
    3d08:	000009be 	.word	0x000009be
    3d0c:	000009be 	.word	0x000009be
    3d10:	000009be 	.word	0x000009be
    3d14:	000009be 	.word	0x000009be
    3d18:	000009be 	.word	0x000009be
    3d1c:	000009be 	.word	0x000009be
    3d20:	000009be 	.word	0x000009be
    3d24:	000009be 	.word	0x000009be
    3d28:	000009be 	.word	0x000009be
    3d2c:	000009be 	.word	0x000009be
    3d30:	000009be 	.word	0x000009be
    3d34:	000009be 	.word	0x000009be
    3d38:	000009be 	.word	0x000009be
    3d3c:	000009be 	.word	0x000009be
    3d40:	000009be 	.word	0x000009be
    3d44:	000009be 	.word	0x000009be
    3d48:	000009be 	.word	0x000009be
    3d4c:	000009be 	.word	0x000009be
    3d50:	000009be 	.word	0x000009be
    3d54:	000009be 	.word	0x000009be
    3d58:	000009be 	.word	0x000009be
    3d5c:	000009be 	.word	0x000009be
    3d60:	000009be 	.word	0x000009be
    3d64:	000009be 	.word	0x000009be
    3d68:	000009be 	.word	0x000009be
    3d6c:	000009be 	.word	0x000009be
    3d70:	000009be 	.word	0x000009be
    3d74:	000009be 	.word	0x000009be
    3d78:	000009be 	.word	0x000009be
    3d7c:	000009be 	.word	0x000009be
    3d80:	000009be 	.word	0x000009be
    3d84:	000009be 	.word	0x000009be
    3d88:	000009be 	.word	0x000009be
    3d8c:	000009be 	.word	0x000009be
    3d90:	000009be 	.word	0x000009be
    3d94:	000009be 	.word	0x000009be
    3d98:	000009be 	.word	0x000009be
    3d9c:	000009be 	.word	0x000009be
    3da0:	000009be 	.word	0x000009be
    3da4:	000009be 	.word	0x000009be
    3da8:	000009be 	.word	0x000009be
    3dac:	000009be 	.word	0x000009be
    3db0:	000009be 	.word	0x000009be
    3db4:	000009be 	.word	0x000009be
    3db8:	000009be 	.word	0x000009be
    3dbc:	000009be 	.word	0x000009be
    3dc0:	000009be 	.word	0x000009be
    3dc4:	000009be 	.word	0x000009be
    3dc8:	000009be 	.word	0x000009be
    3dcc:	000009be 	.word	0x000009be
    3dd0:	000009be 	.word	0x000009be
    3dd4:	000009be 	.word	0x000009be
    3dd8:	000009be 	.word	0x000009be
    3ddc:	000009be 	.word	0x000009be
    3de0:	000009be 	.word	0x000009be
    3de4:	000009b4 	.word	0x000009b4
    3de8:	000009b4 	.word	0x000009b4
    3dec:	000009c6 	.word	0x000009c6
    3df0:	000009c6 	.word	0x000009c6
    3df4:	000009c6 	.word	0x000009c6
    3df8:	000009c6 	.word	0x000009c6
    3dfc:	42002000 	.word	0x42002000
    3e00:	42002400 	.word	0x42002400
    3e04:	42002800 	.word	0x42002800
    3e08:	42002c00 	.word	0x42002c00
    3e0c:	42003000 	.word	0x42003000
    3e10:	42003400 	.word	0x42003400
    3e14:	14141313 	.word	0x14141313
    3e18:	00001515 	.word	0x00001515
    3e1c:	02000100 	.word	0x02000100
    3e20:	08000400 	.word	0x08000400
    3e24:	20001000 	.word	0x20001000

00003e28 <CSWTCH.51>:
    3e28:	00000001 03000000 00020000 00001a12     ................
    3e38:	00001aa8 00001aa8 00001a12 00001ba0     ................
    3e48:	00001aa8 00001aa8 00001aa8 000019fa     ................
    3e58:	00001aa8 00001aa8 00001aa8 00001a06     ................
    3e68:	00001aa8 00001bac 00001a12              ............

00003e74 <_row_good>:
    3e74:	00000001 00000000 00000000 00000001     ................
    3e84:	00000000 00000001 00000001 00000000     ................
    3e94:	00000000 00000001 00000001 00000000     ................
    3ea4:	00000001 00000000 00000000 00000001     ................
    3eb4:	00000000 00000001 00000001 00000000     ................
    3ec4:	00000001 00000000 00000000 00000001     ................
    3ed4:	00000001 00000000 00000000 00000001     ................
    3ee4:	00000000 00000001 00000001 00000000     ................

00003ef4 <tc_interrupt_vectors.10428>:
    3ef4:	100f0e0d 00001211 00002bb6 00002bb2     .........+...+..
    3f04:	00002bb2 00002c00 00002c00 00002bcc     .+...,...,...+..
    3f14:	00002bbc 00002bd2 00002e04 00002de4     .+...+.......-..
    3f24:	00002de4 00002e54 00002df6 00002e12     .-..T....-......
    3f34:	00002de8 00002e20                       .-.. ...

00003f3c <_init>:
    3f3c:	b5f8      	push	{r3, r4, r5, r6, r7, lr}
    3f3e:	46c0      	nop			; (mov r8, r8)
    3f40:	bcf8      	pop	{r3, r4, r5, r6, r7}
    3f42:	bc08      	pop	{r3}
    3f44:	469e      	mov	lr, r3
    3f46:	4770      	bx	lr

00003f48 <__init_array_start>:
    3f48:	000000cd 	.word	0x000000cd

00003f4c <_fini>:
    3f4c:	b5f8      	push	{r3, r4, r5, r6, r7, lr}
    3f4e:	46c0      	nop			; (mov r8, r8)
    3f50:	bcf8      	pop	{r3, r4, r5, r6, r7}
    3f52:	bc08      	pop	{r3}
    3f54:	469e      	mov	lr, r3
    3f56:	4770      	bx	lr

00003f58 <__fini_array_start>:
    3f58:	000000a5 	.word	0x000000a5
