
FirmwareV3.elf:     file format elf32-littlearm

Sections:
Idx Name          Size      VMA       LMA       File off  Algn
  0 .text         00003eb8  00000000  00000000  00008000  2**2
                  CONTENTS, ALLOC, LOAD, READONLY, CODE
  1 .ARM.exidx    00000008  00003eb8  00003eb8  0000beb8  2**2
                  CONTENTS, ALLOC, LOAD, READONLY, DATA
  2 .relocate     0000000c  20000000  00003ec0  00010000  2**2
                  CONTENTS, ALLOC, LOAD, DATA
  3 .bss          00000994  2000000c  00003ecc  0001000c  2**2
                  ALLOC
  4 .stack        00001000  200009a0  00004860  0001000c  2**0
                  ALLOC
  5 .ARM.attributes 00000028  00000000  00000000  0001000c  2**0
                  CONTENTS, READONLY
  6 .comment      0000005b  00000000  00000000  00010034  2**0
                  CONTENTS, READONLY
  7 .debug_frame  000001b0  00000000  00000000  00010090  2**2
                  CONTENTS, READONLY, DEBUGGING

Disassembly of section .text:

00000000 <_sfixed>:
       0:	200019a0 	.word	0x200019a0
       4:	000034a5 	.word	0x000034a5
       8:	000034a1 	.word	0x000034a1
       c:	000034a1 	.word	0x000034a1
	...
      2c:	000034a1 	.word	0x000034a1
	...
      38:	000034a1 	.word	0x000034a1
      3c:	000034a1 	.word	0x000034a1
      40:	000034a1 	.word	0x000034a1
      44:	000034a1 	.word	0x000034a1
      48:	000034a1 	.word	0x000034a1
      4c:	000034a1 	.word	0x000034a1
      50:	000034a1 	.word	0x000034a1
      54:	000034a1 	.word	0x000034a1
      58:	000034a1 	.word	0x000034a1
      5c:	000034a1 	.word	0x000034a1
      60:	000034a1 	.word	0x000034a1
      64:	000034a1 	.word	0x000034a1
      68:	000034a1 	.word	0x000034a1
	...
      74:	00000b4d 	.word	0x00000b4d
      78:	00000bad 	.word	0x00000bad
      7c:	00000c0d 	.word	0x00000c0d
      80:	00000c6d 	.word	0x00000c6d
      84:	00000ccd 	.word	0x00000ccd
      88:	00000d2d 	.word	0x00000d2d
	...
      94:	000034a1 	.word	0x000034a1
      98:	000034a1 	.word	0x000034a1
      9c:	000034a1 	.word	0x000034a1
      a0:	000034a1 	.word	0x000034a1

000000a4 <__do_global_dtors_aux>:
      a4:	b510      	push	{r4, lr}
      a6:	4c06      	ldr	r4, [pc, #24]	; (c0 <__do_global_dtors_aux+0x1c>)
      a8:	7823      	ldrb	r3, [r4, #0]
      aa:	2b00      	cmp	r3, #0
      ac:	d107      	bne.n	be <__do_global_dtors_aux+0x1a>
      ae:	4b05      	ldr	r3, [pc, #20]	; (c4 <__do_global_dtors_aux+0x20>)
      b0:	2b00      	cmp	r3, #0
      b2:	d002      	beq.n	ba <__do_global_dtors_aux+0x16>
      b4:	4804      	ldr	r0, [pc, #16]	; (c8 <__do_global_dtors_aux+0x24>)
      b6:	e000      	b.n	ba <__do_global_dtors_aux+0x16>
      b8:	bf00      	nop
      ba:	2301      	movs	r3, #1
      bc:	7023      	strb	r3, [r4, #0]
      be:	bd10      	pop	{r4, pc}
      c0:	2000000c 	.word	0x2000000c
      c4:	00000000 	.word	0x00000000
      c8:	00003ec0 	.word	0x00003ec0

000000cc <frame_dummy>:
      cc:	b508      	push	{r3, lr}
      ce:	4b08      	ldr	r3, [pc, #32]	; (f0 <frame_dummy+0x24>)
      d0:	2b00      	cmp	r3, #0
      d2:	d003      	beq.n	dc <frame_dummy+0x10>
      d4:	4807      	ldr	r0, [pc, #28]	; (f4 <frame_dummy+0x28>)
      d6:	4908      	ldr	r1, [pc, #32]	; (f8 <frame_dummy+0x2c>)
      d8:	e000      	b.n	dc <frame_dummy+0x10>
      da:	bf00      	nop
      dc:	4807      	ldr	r0, [pc, #28]	; (fc <frame_dummy+0x30>)
      de:	6803      	ldr	r3, [r0, #0]
      e0:	2b00      	cmp	r3, #0
      e2:	d100      	bne.n	e6 <frame_dummy+0x1a>
      e4:	bd08      	pop	{r3, pc}
      e6:	4b06      	ldr	r3, [pc, #24]	; (100 <frame_dummy+0x34>)
      e8:	2b00      	cmp	r3, #0
      ea:	d0fb      	beq.n	e4 <frame_dummy+0x18>
      ec:	4798      	blx	r3
      ee:	e7f9      	b.n	e4 <frame_dummy+0x18>
      f0:	00000000 	.word	0x00000000
      f4:	00003ec0 	.word	0x00003ec0
      f8:	20000010 	.word	0x20000010
      fc:	00003ec0 	.word	0x00003ec0
     100:	00000000 	.word	0x00000000

00000104 <Enviar_ABA_TK2>:
     104:	4b7a      	ldr	r3, [pc, #488]	; (2f0 <Enviar_ABA_TK2+0x1ec>)
     106:	b5f0      	push	{r4, r5, r6, r7, lr}
     108:	464d      	mov	r5, r9
     10a:	4699      	mov	r9, r3
     10c:	465f      	mov	r7, fp
     10e:	4644      	mov	r4, r8
     110:	4656      	mov	r6, sl
     112:	230b      	movs	r3, #11
     114:	464a      	mov	r2, r9
     116:	b4f0      	push	{r4, r5, r6, r7}
     118:	7013      	strb	r3, [r2, #0]
     11a:	3314      	adds	r3, #20
     11c:	73d3      	strb	r3, [r2, #15]
     11e:	4b75      	ldr	r3, [pc, #468]	; (2f4 <Enviar_ABA_TK2+0x1f0>)
     120:	464f      	mov	r7, r9
     122:	1c04      	adds	r4, r0, #0
     124:	1c0d      	adds	r5, r1, #0
     126:	46cb      	mov	fp, r9
     128:	4698      	mov	r8, r3
     12a:	2601      	movs	r6, #1
     12c:	b083      	sub	sp, #12
     12e:	370e      	adds	r7, #14
     130:	1c20      	adds	r0, r4, #0
     132:	1c29      	adds	r1, r5, #0
     134:	220a      	movs	r2, #10
     136:	2300      	movs	r3, #0
     138:	47c0      	blx	r8
     13a:	b2d0      	uxtb	r0, r2
     13c:	1c01      	adds	r1, r0, #0
     13e:	431a      	orrs	r2, r3
     140:	d100      	bne.n	144 <Enviar_ABA_TK2+0x40>
     142:	e0cc      	b.n	2de <Enviar_ABA_TK2+0x1da>
     144:	2300      	movs	r3, #0
     146:	1c32      	adds	r2, r6, #0
     148:	400a      	ands	r2, r1
     14a:	4053      	eors	r3, r2
     14c:	0849      	lsrs	r1, r1, #1
     14e:	d1fa      	bne.n	146 <Enviar_ABA_TK2+0x42>
     150:	425a      	negs	r2, r3
     152:	4153      	adcs	r3, r2
     154:	011b      	lsls	r3, r3, #4
     156:	4303      	orrs	r3, r0
     158:	703b      	strb	r3, [r7, #0]
     15a:	1c20      	adds	r0, r4, #0
     15c:	1c29      	adds	r1, r5, #0
     15e:	220a      	movs	r2, #10
     160:	2300      	movs	r3, #0
     162:	47c0      	blx	r8
     164:	3f01      	subs	r7, #1
     166:	1c04      	adds	r4, r0, #0
     168:	1c0d      	adds	r5, r1, #0
     16a:	455f      	cmp	r7, fp
     16c:	d1e0      	bne.n	130 <Enviar_ABA_TK2+0x2c>
     16e:	464b      	mov	r3, r9
     170:	7b9c      	ldrb	r4, [r3, #14]
     172:	7bdb      	ldrb	r3, [r3, #15]
     174:	405c      	eors	r4, r3
     176:	464b      	mov	r3, r9
     178:	7b5b      	ldrb	r3, [r3, #13]
     17a:	405c      	eors	r4, r3
     17c:	464b      	mov	r3, r9
     17e:	7b1b      	ldrb	r3, [r3, #12]
     180:	405c      	eors	r4, r3
     182:	464b      	mov	r3, r9
     184:	7adb      	ldrb	r3, [r3, #11]
     186:	405c      	eors	r4, r3
     188:	464b      	mov	r3, r9
     18a:	7a9b      	ldrb	r3, [r3, #10]
     18c:	405c      	eors	r4, r3
     18e:	464b      	mov	r3, r9
     190:	7a5b      	ldrb	r3, [r3, #9]
     192:	405c      	eors	r4, r3
     194:	464b      	mov	r3, r9
     196:	7a1b      	ldrb	r3, [r3, #8]
     198:	405c      	eors	r4, r3
     19a:	464b      	mov	r3, r9
     19c:	79db      	ldrb	r3, [r3, #7]
     19e:	405c      	eors	r4, r3
     1a0:	464b      	mov	r3, r9
     1a2:	799b      	ldrb	r3, [r3, #6]
     1a4:	405c      	eors	r4, r3
     1a6:	464b      	mov	r3, r9
     1a8:	795b      	ldrb	r3, [r3, #5]
     1aa:	405c      	eors	r4, r3
     1ac:	464b      	mov	r3, r9
     1ae:	791b      	ldrb	r3, [r3, #4]
     1b0:	405c      	eors	r4, r3
     1b2:	464b      	mov	r3, r9
     1b4:	78db      	ldrb	r3, [r3, #3]
     1b6:	405c      	eors	r4, r3
     1b8:	464b      	mov	r3, r9
     1ba:	789b      	ldrb	r3, [r3, #2]
     1bc:	405c      	eors	r4, r3
     1be:	464b      	mov	r3, r9
     1c0:	785b      	ldrb	r3, [r3, #1]
     1c2:	405c      	eors	r4, r3
     1c4:	464b      	mov	r3, r9
     1c6:	781b      	ldrb	r3, [r3, #0]
     1c8:	405c      	eors	r4, r3
     1ca:	d100      	bne.n	1ce <Enviar_ABA_TK2+0xca>
     1cc:	e08c      	b.n	2e8 <Enviar_ABA_TK2+0x1e4>
     1ce:	1c23      	adds	r3, r4, #0
     1d0:	2200      	movs	r2, #0
     1d2:	2001      	movs	r0, #1
     1d4:	1c01      	adds	r1, r0, #0
     1d6:	4019      	ands	r1, r3
     1d8:	404a      	eors	r2, r1
     1da:	085b      	lsrs	r3, r3, #1
     1dc:	d1fa      	bne.n	1d4 <Enviar_ABA_TK2+0xd0>
     1de:	330f      	adds	r3, #15
     1e0:	401c      	ands	r4, r3
     1e2:	4253      	negs	r3, r2
     1e4:	415a      	adcs	r2, r3
     1e6:	0112      	lsls	r2, r2, #4
     1e8:	464b      	mov	r3, r9
     1ea:	4322      	orrs	r2, r4
     1ec:	741a      	strb	r2, [r3, #16]
     1ee:	2380      	movs	r3, #128	; 0x80
     1f0:	4d41      	ldr	r5, [pc, #260]	; (2f8 <Enviar_ABA_TK2+0x1f4>)
     1f2:	00db      	lsls	r3, r3, #3
     1f4:	61ab      	str	r3, [r5, #24]
     1f6:	4b41      	ldr	r3, [pc, #260]	; (2fc <Enviar_ABA_TK2+0x1f8>)
     1f8:	2014      	movs	r0, #20
     1fa:	2780      	movs	r7, #128	; 0x80
     1fc:	2680      	movs	r6, #128	; 0x80
     1fe:	4698      	mov	r8, r3
     200:	2405      	movs	r4, #5
     202:	4798      	blx	r3
     204:	00bf      	lsls	r7, r7, #2
     206:	0076      	lsls	r6, r6, #1
     208:	2078      	movs	r0, #120	; 0x78
     20a:	61af      	str	r7, [r5, #24]
     20c:	3c01      	subs	r4, #1
     20e:	47c0      	blx	r8
     210:	b2e4      	uxtb	r4, r4
     212:	61ae      	str	r6, [r5, #24]
     214:	2078      	movs	r0, #120	; 0x78
     216:	47c0      	blx	r8
     218:	616e      	str	r6, [r5, #20]
     21a:	2c00      	cmp	r4, #0
     21c:	d1f4      	bne.n	208 <Enviar_ABA_TK2+0x104>
     21e:	2780      	movs	r7, #128	; 0x80
     220:	2680      	movs	r6, #128	; 0x80
     222:	4d35      	ldr	r5, [pc, #212]	; (2f8 <Enviar_ABA_TK2+0x1f4>)
     224:	3405      	adds	r4, #5
     226:	00bf      	lsls	r7, r7, #2
     228:	0076      	lsls	r6, r6, #1
     22a:	2078      	movs	r0, #120	; 0x78
     22c:	61af      	str	r7, [r5, #24]
     22e:	3c01      	subs	r4, #1
     230:	47c0      	blx	r8
     232:	b2e4      	uxtb	r4, r4
     234:	61ae      	str	r6, [r5, #24]
     236:	2078      	movs	r0, #120	; 0x78
     238:	47c0      	blx	r8
     23a:	616e      	str	r6, [r5, #20]
     23c:	2c00      	cmp	r4, #0
     23e:	d1f4      	bne.n	22a <Enviar_ABA_TK2+0x126>
     240:	464b      	mov	r3, r9
     242:	3311      	adds	r3, #17
     244:	9301      	str	r3, [sp, #4]
     246:	2301      	movs	r3, #1
     248:	469a      	mov	sl, r3
     24a:	4f2b      	ldr	r7, [pc, #172]	; (2f8 <Enviar_ABA_TK2+0x1f4>)
     24c:	465b      	mov	r3, fp
     24e:	781d      	ldrb	r5, [r3, #0]
     250:	2380      	movs	r3, #128	; 0x80
     252:	009b      	lsls	r3, r3, #2
     254:	2405      	movs	r4, #5
     256:	4699      	mov	r9, r3
     258:	4653      	mov	r3, sl
     25a:	422b      	tst	r3, r5
     25c:	d041      	beq.n	2e2 <Enviar_ABA_TK2+0x1de>
     25e:	464b      	mov	r3, r9
     260:	617b      	str	r3, [r7, #20]
     262:	2680      	movs	r6, #128	; 0x80
     264:	2078      	movs	r0, #120	; 0x78
     266:	0076      	lsls	r6, r6, #1
     268:	3c01      	subs	r4, #1
     26a:	47c0      	blx	r8
     26c:	b2e4      	uxtb	r4, r4
     26e:	61be      	str	r6, [r7, #24]
     270:	2078      	movs	r0, #120	; 0x78
     272:	47c0      	blx	r8
     274:	086d      	lsrs	r5, r5, #1
     276:	617e      	str	r6, [r7, #20]
     278:	2c00      	cmp	r4, #0
     27a:	d1ed      	bne.n	258 <Enviar_ABA_TK2+0x154>
     27c:	2301      	movs	r3, #1
     27e:	469c      	mov	ip, r3
     280:	9b01      	ldr	r3, [sp, #4]
     282:	44e3      	add	fp, ip
     284:	459b      	cmp	fp, r3
     286:	d1e1      	bne.n	24c <Enviar_ABA_TK2+0x148>
     288:	2780      	movs	r7, #128	; 0x80
     28a:	4d1b      	ldr	r5, [pc, #108]	; (2f8 <Enviar_ABA_TK2+0x1f4>)
     28c:	3405      	adds	r4, #5
     28e:	00bf      	lsls	r7, r7, #2
     290:	2078      	movs	r0, #120	; 0x78
     292:	61af      	str	r7, [r5, #24]
     294:	3c01      	subs	r4, #1
     296:	47c0      	blx	r8
     298:	b2e4      	uxtb	r4, r4
     29a:	61ae      	str	r6, [r5, #24]
     29c:	2078      	movs	r0, #120	; 0x78
     29e:	47c0      	blx	r8
     2a0:	616e      	str	r6, [r5, #20]
     2a2:	2c00      	cmp	r4, #0
     2a4:	d1f4      	bne.n	290 <Enviar_ABA_TK2+0x18c>
     2a6:	2780      	movs	r7, #128	; 0x80
     2a8:	2680      	movs	r6, #128	; 0x80
     2aa:	4d13      	ldr	r5, [pc, #76]	; (2f8 <Enviar_ABA_TK2+0x1f4>)
     2ac:	3405      	adds	r4, #5
     2ae:	00bf      	lsls	r7, r7, #2
     2b0:	0076      	lsls	r6, r6, #1
     2b2:	2078      	movs	r0, #120	; 0x78
     2b4:	61af      	str	r7, [r5, #24]
     2b6:	3c01      	subs	r4, #1
     2b8:	47c0      	blx	r8
     2ba:	b2e4      	uxtb	r4, r4
     2bc:	61ae      	str	r6, [r5, #24]
     2be:	2078      	movs	r0, #120	; 0x78
     2c0:	47c0      	blx	r8
     2c2:	616e      	str	r6, [r5, #20]
     2c4:	2c00      	cmp	r4, #0
     2c6:	d1f4      	bne.n	2b2 <Enviar_ABA_TK2+0x1ae>
     2c8:	2280      	movs	r2, #128	; 0x80
     2ca:	4b0b      	ldr	r3, [pc, #44]	; (2f8 <Enviar_ABA_TK2+0x1f4>)
     2cc:	00d2      	lsls	r2, r2, #3
     2ce:	615a      	str	r2, [r3, #20]
     2d0:	b003      	add	sp, #12
     2d2:	bc3c      	pop	{r2, r3, r4, r5}
     2d4:	4690      	mov	r8, r2
     2d6:	4699      	mov	r9, r3
     2d8:	46a2      	mov	sl, r4
     2da:	46ab      	mov	fp, r5
     2dc:	bdf0      	pop	{r4, r5, r6, r7, pc}
     2de:	2310      	movs	r3, #16
     2e0:	e739      	b.n	156 <Enviar_ABA_TK2+0x52>
     2e2:	464b      	mov	r3, r9
     2e4:	61bb      	str	r3, [r7, #24]
     2e6:	e7bc      	b.n	262 <Enviar_ABA_TK2+0x15e>
     2e8:	2400      	movs	r4, #0
     2ea:	2210      	movs	r2, #16
     2ec:	e77c      	b.n	1e8 <Enviar_ABA_TK2+0xe4>
     2ee:	46c0      	nop			; (mov r8, r8)
     2f0:	20000028 	.word	0x20000028
     2f4:	0000389d 	.word	0x0000389d
     2f8:	41004400 	.word	0x41004400
     2fc:	0000033d 	.word	0x0000033d

00000300 <delay_init>:
     300:	b510      	push	{r4, lr}
     302:	4b09      	ldr	r3, [pc, #36]	; (328 <delay_init+0x28>)
     304:	2000      	movs	r0, #0
     306:	4798      	blx	r3
     308:	21fa      	movs	r1, #250	; 0xfa
     30a:	4c08      	ldr	r4, [pc, #32]	; (32c <delay_init+0x2c>)
     30c:	0089      	lsls	r1, r1, #2
     30e:	47a0      	blx	r4
     310:	21fa      	movs	r1, #250	; 0xfa
     312:	4b07      	ldr	r3, [pc, #28]	; (330 <delay_init+0x30>)
     314:	0089      	lsls	r1, r1, #2
     316:	6018      	str	r0, [r3, #0]
     318:	47a0      	blx	r4
     31a:	2205      	movs	r2, #5
     31c:	4b05      	ldr	r3, [pc, #20]	; (334 <delay_init+0x34>)
     31e:	6018      	str	r0, [r3, #0]
     320:	4b05      	ldr	r3, [pc, #20]	; (338 <delay_init+0x38>)
     322:	601a      	str	r2, [r3, #0]
     324:	bd10      	pop	{r4, pc}
     326:	46c0      	nop			; (mov r8, r8)
     328:	000031b1 	.word	0x000031b1
     32c:	00003599 	.word	0x00003599
     330:	20000004 	.word	0x20000004
     334:	20000000 	.word	0x20000000
     338:	e000e010 	.word	0xe000e010

0000033c <delay_cycles_us>:
     33c:	2180      	movs	r1, #128	; 0x80
     33e:	b530      	push	{r4, r5, lr}
     340:	2500      	movs	r5, #0
     342:	4b08      	ldr	r3, [pc, #32]	; (364 <delay_cycles_us+0x28>)
     344:	4a08      	ldr	r2, [pc, #32]	; (368 <delay_cycles_us+0x2c>)
     346:	681c      	ldr	r4, [r3, #0]
     348:	0249      	lsls	r1, r1, #9
     34a:	3801      	subs	r0, #1
     34c:	d308      	bcc.n	360 <delay_cycles_us+0x24>
     34e:	2c00      	cmp	r4, #0
     350:	d0fb      	beq.n	34a <delay_cycles_us+0xe>
     352:	6054      	str	r4, [r2, #4]
     354:	6095      	str	r5, [r2, #8]
     356:	6813      	ldr	r3, [r2, #0]
     358:	420b      	tst	r3, r1
     35a:	d0fc      	beq.n	356 <delay_cycles_us+0x1a>
     35c:	3801      	subs	r0, #1
     35e:	d2f6      	bcs.n	34e <delay_cycles_us+0x12>
     360:	bd30      	pop	{r4, r5, pc}
     362:	46c0      	nop			; (mov r8, r8)
     364:	20000000 	.word	0x20000000
     368:	e000e010 	.word	0xe000e010

0000036c <delay_cycles_ms>:
     36c:	2180      	movs	r1, #128	; 0x80
     36e:	b530      	push	{r4, r5, lr}
     370:	2500      	movs	r5, #0
     372:	4b08      	ldr	r3, [pc, #32]	; (394 <delay_cycles_ms+0x28>)
     374:	4a08      	ldr	r2, [pc, #32]	; (398 <delay_cycles_ms+0x2c>)
     376:	681c      	ldr	r4, [r3, #0]
     378:	0249      	lsls	r1, r1, #9
     37a:	3801      	subs	r0, #1
     37c:	d308      	bcc.n	390 <delay_cycles_ms+0x24>
     37e:	2c00      	cmp	r4, #0
     380:	d0fb      	beq.n	37a <delay_cycles_ms+0xe>
     382:	6054      	str	r4, [r2, #4]
     384:	6095      	str	r5, [r2, #8]
     386:	6813      	ldr	r3, [r2, #0]
     388:	420b      	tst	r3, r1
     38a:	d0fc      	beq.n	386 <delay_cycles_ms+0x1a>
     38c:	3801      	subs	r0, #1
     38e:	d2f6      	bcs.n	37e <delay_cycles_ms+0x12>
     390:	bd30      	pop	{r4, r5, pc}
     392:	46c0      	nop			; (mov r8, r8)
     394:	20000004 	.word	0x20000004
     398:	e000e010 	.word	0xe000e010

0000039c <_i2c_master_write_packet.isra.1>:
     39c:	b5f0      	push	{r4, r5, r6, r7, lr}
     39e:	4657      	mov	r7, sl
     3a0:	4645      	mov	r5, r8
     3a2:	464e      	mov	r6, r9
     3a4:	4692      	mov	sl, r2
     3a6:	b4e0      	push	{r5, r6, r7}
     3a8:	469c      	mov	ip, r3
     3aa:	1c05      	adds	r5, r0, #0
     3ac:	6807      	ldr	r7, [r0, #0]
     3ae:	8a3b      	ldrh	r3, [r7, #16]
     3b0:	0bdb      	lsrs	r3, r3, #15
     3b2:	d1fc      	bne.n	3ae <_i2c_master_write_packet.isra.1+0x12>
     3b4:	0049      	lsls	r1, r1, #1
     3b6:	b2c9      	uxtb	r1, r1
     3b8:	7539      	strb	r1, [r7, #20]
     3ba:	6829      	ldr	r1, [r5, #0]
     3bc:	2401      	movs	r4, #1
     3be:	2602      	movs	r6, #2
     3c0:	e007      	b.n	3d2 <_i2c_master_write_packet.isra.1+0x36>
     3c2:	7b88      	ldrb	r0, [r1, #14]
     3c4:	4206      	tst	r6, r0
     3c6:	d107      	bne.n	3d8 <_i2c_master_write_packet.isra.1+0x3c>
     3c8:	3301      	adds	r3, #1
     3ca:	8928      	ldrh	r0, [r5, #8]
     3cc:	b29b      	uxth	r3, r3
     3ce:	4298      	cmp	r0, r3
     3d0:	d943      	bls.n	45a <_i2c_master_write_packet.isra.1+0xbe>
     3d2:	7b88      	ldrb	r0, [r1, #14]
     3d4:	4204      	tst	r4, r0
     3d6:	d0f4      	beq.n	3c2 <_i2c_master_write_packet.isra.1+0x26>
     3d8:	2302      	movs	r3, #2
     3da:	7b88      	ldrb	r0, [r1, #14]
     3dc:	4203      	tst	r3, r0
     3de:	d042      	beq.n	466 <_i2c_master_write_packet.isra.1+0xca>
     3e0:	738b      	strb	r3, [r1, #14]
     3e2:	8a09      	ldrh	r1, [r1, #16]
     3e4:	2041      	movs	r0, #65	; 0x41
     3e6:	420b      	tst	r3, r1
     3e8:	d138      	bne.n	45c <_i2c_master_write_packet.isra.1+0xc0>
     3ea:	2220      	movs	r2, #32
     3ec:	4690      	mov	r8, r2
     3ee:	3a1c      	subs	r2, #28
     3f0:	2300      	movs	r3, #0
     3f2:	2001      	movs	r0, #1
     3f4:	2602      	movs	r6, #2
     3f6:	4691      	mov	r9, r2
     3f8:	4553      	cmp	r3, sl
     3fa:	d040      	beq.n	47e <_i2c_master_write_packet.isra.1+0xe2>
     3fc:	4642      	mov	r2, r8
     3fe:	8a39      	ldrh	r1, [r7, #16]
     400:	420a      	tst	r2, r1
     402:	d03e      	beq.n	482 <_i2c_master_write_packet.isra.1+0xe6>
     404:	682c      	ldr	r4, [r5, #0]
     406:	8a21      	ldrh	r1, [r4, #16]
     408:	0bc9      	lsrs	r1, r1, #15
     40a:	d1fc      	bne.n	406 <_i2c_master_write_packet.isra.1+0x6a>
     40c:	4662      	mov	r2, ip
     40e:	6812      	ldr	r2, [r2, #0]
     410:	5cd1      	ldrb	r1, [r2, r3]
     412:	7639      	strb	r1, [r7, #24]
     414:	682c      	ldr	r4, [r5, #0]
     416:	2100      	movs	r1, #0
     418:	e007      	b.n	42a <_i2c_master_write_packet.isra.1+0x8e>
     41a:	7ba2      	ldrb	r2, [r4, #14]
     41c:	4216      	tst	r6, r2
     41e:	d107      	bne.n	430 <_i2c_master_write_packet.isra.1+0x94>
     420:	3101      	adds	r1, #1
     422:	892a      	ldrh	r2, [r5, #8]
     424:	b289      	uxth	r1, r1
     426:	428a      	cmp	r2, r1
     428:	d927      	bls.n	47a <_i2c_master_write_packet.isra.1+0xde>
     42a:	7ba2      	ldrb	r2, [r4, #14]
     42c:	4210      	tst	r0, r2
     42e:	d0f4      	beq.n	41a <_i2c_master_write_packet.isra.1+0x7e>
     430:	464a      	mov	r2, r9
     432:	8a39      	ldrh	r1, [r7, #16]
     434:	3301      	adds	r3, #1
     436:	420a      	tst	r2, r1
     438:	d0de      	beq.n	3f8 <_i2c_master_write_packet.isra.1+0x5c>
     43a:	221e      	movs	r2, #30
     43c:	7aab      	ldrb	r3, [r5, #10]
     43e:	1c10      	adds	r0, r2, #0
     440:	2b00      	cmp	r3, #0
     442:	d00b      	beq.n	45c <_i2c_master_write_packet.isra.1+0xc0>
     444:	6829      	ldr	r1, [r5, #0]
     446:	8a0b      	ldrh	r3, [r1, #16]
     448:	0bdb      	lsrs	r3, r3, #15
     44a:	d1fc      	bne.n	446 <_i2c_master_write_packet.isra.1+0xaa>
     44c:	21c0      	movs	r1, #192	; 0xc0
     44e:	687b      	ldr	r3, [r7, #4]
     450:	0289      	lsls	r1, r1, #10
     452:	430b      	orrs	r3, r1
     454:	607b      	str	r3, [r7, #4]
     456:	1c10      	adds	r0, r2, #0
     458:	e000      	b.n	45c <_i2c_master_write_packet.isra.1+0xc0>
     45a:	2012      	movs	r0, #18
     45c:	bc1c      	pop	{r2, r3, r4}
     45e:	4690      	mov	r8, r2
     460:	4699      	mov	r9, r3
     462:	46a2      	mov	sl, r4
     464:	bdf0      	pop	{r4, r5, r6, r7, pc}
     466:	8a0b      	ldrh	r3, [r1, #16]
     468:	075b      	lsls	r3, r3, #29
     46a:	d5be      	bpl.n	3ea <_i2c_master_write_packet.isra.1+0x4e>
     46c:	22c0      	movs	r2, #192	; 0xc0
     46e:	684b      	ldr	r3, [r1, #4]
     470:	0292      	lsls	r2, r2, #10
     472:	4313      	orrs	r3, r2
     474:	604b      	str	r3, [r1, #4]
     476:	2018      	movs	r0, #24
     478:	e7f0      	b.n	45c <_i2c_master_write_packet.isra.1+0xc0>
     47a:	2212      	movs	r2, #18
     47c:	e7de      	b.n	43c <_i2c_master_write_packet.isra.1+0xa0>
     47e:	2200      	movs	r2, #0
     480:	e7dc      	b.n	43c <_i2c_master_write_packet.isra.1+0xa0>
     482:	2041      	movs	r0, #65	; 0x41
     484:	e7ea      	b.n	45c <_i2c_master_write_packet.isra.1+0xc0>
     486:	46c0      	nop			; (mov r8, r8)

00000488 <_i2c_master_read_packet.isra.0>:
     488:	b5f0      	push	{r4, r5, r6, r7, lr}
     48a:	4644      	mov	r4, r8
     48c:	465f      	mov	r7, fp
     48e:	4656      	mov	r6, sl
     490:	464d      	mov	r5, r9
     492:	b4f0      	push	{r4, r5, r6, r7}
     494:	2401      	movs	r4, #1
     496:	4698      	mov	r8, r3
     498:	004b      	lsls	r3, r1, #1
     49a:	6807      	ldr	r7, [r0, #0]
     49c:	4323      	orrs	r3, r4
     49e:	b2db      	uxtb	r3, r3
     4a0:	753b      	strb	r3, [r7, #20]
     4a2:	6801      	ldr	r1, [r0, #0]
     4a4:	2300      	movs	r3, #0
     4a6:	2501      	movs	r5, #1
     4a8:	2602      	movs	r6, #2
     4aa:	e007      	b.n	4bc <_i2c_master_read_packet.isra.0+0x34>
     4ac:	7b8c      	ldrb	r4, [r1, #14]
     4ae:	4226      	tst	r6, r4
     4b0:	d107      	bne.n	4c2 <_i2c_master_read_packet.isra.0+0x3a>
     4b2:	3301      	adds	r3, #1
     4b4:	8904      	ldrh	r4, [r0, #8]
     4b6:	b29b      	uxth	r3, r3
     4b8:	429c      	cmp	r4, r3
     4ba:	d94a      	bls.n	552 <_i2c_master_read_packet.isra.0+0xca>
     4bc:	7b8c      	ldrb	r4, [r1, #14]
     4be:	4225      	tst	r5, r4
     4c0:	d0f4      	beq.n	4ac <_i2c_master_read_packet.isra.0+0x24>
     4c2:	6879      	ldr	r1, [r7, #4]
     4c4:	4b41      	ldr	r3, [pc, #260]	; (5cc <_i2c_master_read_packet.isra.0+0x144>)
     4c6:	400b      	ands	r3, r1
     4c8:	2102      	movs	r1, #2
     4ca:	607b      	str	r3, [r7, #4]
     4cc:	6803      	ldr	r3, [r0, #0]
     4ce:	7b9c      	ldrb	r4, [r3, #14]
     4d0:	4221      	tst	r1, r4
     4d2:	d04a      	beq.n	56a <_i2c_master_read_packet.isra.0+0xe2>
     4d4:	7399      	strb	r1, [r3, #14]
     4d6:	8a1c      	ldrh	r4, [r3, #16]
     4d8:	2341      	movs	r3, #65	; 0x41
     4da:	4221      	tst	r1, r4
     4dc:	d13e      	bne.n	55c <_i2c_master_read_packet.isra.0+0xd4>
     4de:	4b3c      	ldr	r3, [pc, #240]	; (5d0 <_i2c_master_read_packet.isra.0+0x148>)
     4e0:	3a01      	subs	r2, #1
     4e2:	469b      	mov	fp, r3
     4e4:	2320      	movs	r3, #32
     4e6:	469c      	mov	ip, r3
     4e8:	2380      	movs	r3, #128	; 0x80
     4ea:	b296      	uxth	r6, r2
     4ec:	02db      	lsls	r3, r3, #11
     4ee:	2100      	movs	r1, #0
     4f0:	2401      	movs	r4, #1
     4f2:	2502      	movs	r5, #2
     4f4:	4699      	mov	r9, r3
     4f6:	455e      	cmp	r6, fp
     4f8:	d012      	beq.n	520 <_i2c_master_read_packet.isra.0+0x98>
     4fa:	4663      	mov	r3, ip
     4fc:	8a3a      	ldrh	r2, [r7, #16]
     4fe:	4213      	tst	r3, r2
     500:	d061      	beq.n	5c6 <_i2c_master_read_packet.isra.0+0x13e>
     502:	7ac2      	ldrb	r2, [r0, #11]
     504:	2a00      	cmp	r2, #0
     506:	d043      	beq.n	590 <_i2c_master_read_packet.isra.0+0x108>
     508:	2e00      	cmp	r6, #0
     50a:	d141      	bne.n	590 <_i2c_master_read_packet.isra.0+0x108>
     50c:	464b      	mov	r3, r9
     50e:	468a      	mov	sl, r1
     510:	687a      	ldr	r2, [r7, #4]
     512:	431a      	orrs	r2, r3
     514:	607a      	str	r2, [r7, #4]
     516:	3e01      	subs	r6, #1
     518:	b2b6      	uxth	r6, r6
     51a:	4651      	mov	r1, sl
     51c:	455e      	cmp	r6, fp
     51e:	d1ec      	bne.n	4fa <_i2c_master_read_packet.isra.0+0x72>
     520:	468a      	mov	sl, r1
     522:	2100      	movs	r1, #0
     524:	6803      	ldr	r3, [r0, #0]
     526:	7a82      	ldrb	r2, [r0, #10]
     528:	2a00      	cmp	r2, #0
     52a:	d028      	beq.n	57e <_i2c_master_read_packet.isra.0+0xf6>
     52c:	8a1a      	ldrh	r2, [r3, #16]
     52e:	0bd2      	lsrs	r2, r2, #15
     530:	d1fc      	bne.n	52c <_i2c_master_read_packet.isra.0+0xa4>
     532:	22c0      	movs	r2, #192	; 0xc0
     534:	687b      	ldr	r3, [r7, #4]
     536:	0292      	lsls	r2, r2, #10
     538:	4313      	orrs	r3, r2
     53a:	607b      	str	r3, [r7, #4]
     53c:	6802      	ldr	r2, [r0, #0]
     53e:	8a13      	ldrh	r3, [r2, #16]
     540:	0bdb      	lsrs	r3, r3, #15
     542:	d1fc      	bne.n	53e <_i2c_master_read_packet.isra.0+0xb6>
     544:	4643      	mov	r3, r8
     546:	4650      	mov	r0, sl
     548:	7e3a      	ldrb	r2, [r7, #24]
     54a:	681b      	ldr	r3, [r3, #0]
     54c:	541a      	strb	r2, [r3, r0]
     54e:	1c08      	adds	r0, r1, #0
     550:	e005      	b.n	55e <_i2c_master_read_packet.isra.0+0xd6>
     552:	687a      	ldr	r2, [r7, #4]
     554:	4b1d      	ldr	r3, [pc, #116]	; (5cc <_i2c_master_read_packet.isra.0+0x144>)
     556:	4013      	ands	r3, r2
     558:	607b      	str	r3, [r7, #4]
     55a:	2312      	movs	r3, #18
     55c:	1c18      	adds	r0, r3, #0
     55e:	bc3c      	pop	{r2, r3, r4, r5}
     560:	4690      	mov	r8, r2
     562:	4699      	mov	r9, r3
     564:	46a2      	mov	sl, r4
     566:	46ab      	mov	fp, r5
     568:	bdf0      	pop	{r4, r5, r6, r7, pc}
     56a:	8a19      	ldrh	r1, [r3, #16]
     56c:	0749      	lsls	r1, r1, #29
     56e:	d5b6      	bpl.n	4de <_i2c_master_read_packet.isra.0+0x56>
     570:	21c0      	movs	r1, #192	; 0xc0
     572:	685a      	ldr	r2, [r3, #4]
     574:	0289      	lsls	r1, r1, #10
     576:	430a      	orrs	r2, r1
     578:	605a      	str	r2, [r3, #4]
     57a:	2318      	movs	r3, #24
     57c:	e7ee      	b.n	55c <_i2c_master_read_packet.isra.0+0xd4>
     57e:	8a1a      	ldrh	r2, [r3, #16]
     580:	0bd2      	lsrs	r2, r2, #15
     582:	d1fc      	bne.n	57e <_i2c_master_read_packet.isra.0+0xf6>
     584:	2280      	movs	r2, #128	; 0x80
     586:	687b      	ldr	r3, [r7, #4]
     588:	0252      	lsls	r2, r2, #9
     58a:	4313      	orrs	r3, r2
     58c:	607b      	str	r3, [r7, #4]
     58e:	e7d5      	b.n	53c <_i2c_master_read_packet.isra.0+0xb4>
     590:	6803      	ldr	r3, [r0, #0]
     592:	8a1a      	ldrh	r2, [r3, #16]
     594:	0bd2      	lsrs	r2, r2, #15
     596:	d1fc      	bne.n	592 <_i2c_master_read_packet.isra.0+0x10a>
     598:	1c4a      	adds	r2, r1, #1
     59a:	b293      	uxth	r3, r2
     59c:	469a      	mov	sl, r3
     59e:	4643      	mov	r3, r8
     5a0:	7e3a      	ldrb	r2, [r7, #24]
     5a2:	681b      	ldr	r3, [r3, #0]
     5a4:	545a      	strb	r2, [r3, r1]
     5a6:	2200      	movs	r2, #0
     5a8:	6801      	ldr	r1, [r0, #0]
     5aa:	7b8b      	ldrb	r3, [r1, #14]
     5ac:	421c      	tst	r4, r3
     5ae:	d1b2      	bne.n	516 <_i2c_master_read_packet.isra.0+0x8e>
     5b0:	7b8b      	ldrb	r3, [r1, #14]
     5b2:	421d      	tst	r5, r3
     5b4:	d1af      	bne.n	516 <_i2c_master_read_packet.isra.0+0x8e>
     5b6:	3201      	adds	r2, #1
     5b8:	8903      	ldrh	r3, [r0, #8]
     5ba:	b292      	uxth	r2, r2
     5bc:	4293      	cmp	r3, r2
     5be:	d8f4      	bhi.n	5aa <_i2c_master_read_packet.isra.0+0x122>
     5c0:	1c0b      	adds	r3, r1, #0
     5c2:	2112      	movs	r1, #18
     5c4:	e7af      	b.n	526 <_i2c_master_read_packet.isra.0+0x9e>
     5c6:	2041      	movs	r0, #65	; 0x41
     5c8:	e7c9      	b.n	55e <_i2c_master_read_packet.isra.0+0xd6>
     5ca:	46c0      	nop			; (mov r8, r8)
     5cc:	fffbffff 	.word	0xfffbffff
     5d0:	0000ffff 	.word	0x0000ffff

000005d4 <i2c_master_init>:
     5d4:	b5f0      	push	{r4, r5, r6, r7, lr}
     5d6:	464d      	mov	r5, r9
     5d8:	4644      	mov	r4, r8
     5da:	465f      	mov	r7, fp
     5dc:	4656      	mov	r6, sl
     5de:	1c03      	adds	r3, r0, #0
     5e0:	b4f0      	push	{r4, r5, r6, r7}
     5e2:	2701      	movs	r7, #1
     5e4:	6019      	str	r1, [r3, #0]
     5e6:	4b4e      	ldr	r3, [pc, #312]	; (720 <i2c_master_init+0x14c>)
     5e8:	b083      	sub	sp, #12
     5ea:	4680      	mov	r8, r0
     5ec:	1c08      	adds	r0, r1, #0
     5ee:	1c16      	adds	r6, r2, #0
     5f0:	1c0d      	adds	r5, r1, #0
     5f2:	4699      	mov	r9, r3
     5f4:	4798      	blx	r3
     5f6:	1c3c      	adds	r4, r7, #0
     5f8:	1c83      	adds	r3, r0, #2
     5fa:	409c      	lsls	r4, r3
     5fc:	1c23      	adds	r3, r4, #0
     5fe:	4949      	ldr	r1, [pc, #292]	; (724 <i2c_master_init+0x150>)
     600:	300d      	adds	r0, #13
     602:	6a0a      	ldr	r2, [r1, #32]
     604:	b2c4      	uxtb	r4, r0
     606:	4313      	orrs	r3, r2
     608:	466a      	mov	r2, sp
     60a:	620b      	str	r3, [r1, #32]
     60c:	7933      	ldrb	r3, [r6, #4]
     60e:	4669      	mov	r1, sp
     610:	7013      	strb	r3, [r2, #0]
     612:	1c20      	adds	r0, r4, #0
     614:	4b44      	ldr	r3, [pc, #272]	; (728 <i2c_master_init+0x154>)
     616:	4798      	blx	r3
     618:	1c20      	adds	r0, r4, #0
     61a:	4b44      	ldr	r3, [pc, #272]	; (72c <i2c_master_init+0x158>)
     61c:	4798      	blx	r3
     61e:	4b44      	ldr	r3, [pc, #272]	; (730 <i2c_master_init+0x15c>)
     620:	7930      	ldrb	r0, [r6, #4]
     622:	2100      	movs	r1, #0
     624:	4798      	blx	r3
     626:	682b      	ldr	r3, [r5, #0]
     628:	201c      	movs	r0, #28
     62a:	079b      	lsls	r3, r3, #30
     62c:	d506      	bpl.n	63c <i2c_master_init+0x68>
     62e:	b003      	add	sp, #12
     630:	bc3c      	pop	{r2, r3, r4, r5}
     632:	4690      	mov	r8, r2
     634:	4699      	mov	r9, r3
     636:	46a2      	mov	sl, r4
     638:	46ab      	mov	fp, r5
     63a:	bdf0      	pop	{r4, r5, r6, r7, pc}
     63c:	682b      	ldr	r3, [r5, #0]
     63e:	3817      	subs	r0, #23
     640:	403b      	ands	r3, r7
     642:	469a      	mov	sl, r3
     644:	d1f3      	bne.n	62e <i2c_master_init+0x5a>
     646:	3314      	adds	r3, #20
     648:	602b      	str	r3, [r5, #0]
     64a:	4643      	mov	r3, r8
     64c:	681d      	ldr	r5, [r3, #0]
     64e:	ac01      	add	r4, sp, #4
     650:	1c28      	adds	r0, r5, #0
     652:	47c8      	blx	r9
     654:	2380      	movs	r3, #128	; 0x80
     656:	7023      	strb	r3, [r4, #0]
     658:	4653      	mov	r3, sl
     65a:	4681      	mov	r9, r0
     65c:	7063      	strb	r3, [r4, #1]
     65e:	70e3      	strb	r3, [r4, #3]
     660:	6970      	ldr	r0, [r6, #20]
     662:	69b3      	ldr	r3, [r6, #24]
     664:	70a7      	strb	r7, [r4, #2]
     666:	469a      	mov	sl, r3
     668:	2800      	cmp	r0, #0
     66a:	d053      	beq.n	714 <i2c_master_init+0x140>
     66c:	2302      	movs	r3, #2
     66e:	7020      	strb	r0, [r4, #0]
     670:	7063      	strb	r3, [r4, #1]
     672:	0c00      	lsrs	r0, r0, #16
     674:	4b2f      	ldr	r3, [pc, #188]	; (734 <i2c_master_init+0x160>)
     676:	b2c0      	uxtb	r0, r0
     678:	1c21      	adds	r1, r4, #0
     67a:	469b      	mov	fp, r3
     67c:	4798      	blx	r3
     67e:	4653      	mov	r3, sl
     680:	2b00      	cmp	r3, #0
     682:	d041      	beq.n	708 <i2c_master_init+0x134>
     684:	4653      	mov	r3, sl
     686:	7023      	strb	r3, [r4, #0]
     688:	4653      	mov	r3, sl
     68a:	2702      	movs	r7, #2
     68c:	0c18      	lsrs	r0, r3, #16
     68e:	b2c0      	uxtb	r0, r0
     690:	1c21      	adds	r1, r4, #0
     692:	7067      	strb	r7, [r4, #1]
     694:	47d8      	blx	fp
     696:	4642      	mov	r2, r8
     698:	89b3      	ldrh	r3, [r6, #12]
     69a:	80d3      	strh	r3, [r2, #6]
     69c:	89f3      	ldrh	r3, [r6, #14]
     69e:	8113      	strh	r3, [r2, #8]
     6a0:	7c32      	ldrb	r2, [r6, #16]
     6a2:	2380      	movs	r3, #128	; 0x80
     6a4:	2a00      	cmp	r2, #0
     6a6:	d028      	beq.n	6fa <i2c_master_init+0x126>
     6a8:	68b2      	ldr	r2, [r6, #8]
     6aa:	2a00      	cmp	r2, #0
     6ac:	d000      	beq.n	6b0 <i2c_master_init+0xdc>
     6ae:	4313      	orrs	r3, r2
     6b0:	7f32      	ldrb	r2, [r6, #28]
     6b2:	2a00      	cmp	r2, #0
     6b4:	d002      	beq.n	6bc <i2c_master_init+0xe8>
     6b6:	2280      	movs	r2, #128	; 0x80
     6b8:	05d2      	lsls	r2, r2, #23
     6ba:	4313      	orrs	r3, r2
     6bc:	6a32      	ldr	r2, [r6, #32]
     6be:	2a00      	cmp	r2, #0
     6c0:	d000      	beq.n	6c4 <i2c_master_init+0xf0>
     6c2:	4313      	orrs	r3, r2
     6c4:	682a      	ldr	r2, [r5, #0]
     6c6:	4648      	mov	r0, r9
     6c8:	4313      	orrs	r3, r2
     6ca:	602b      	str	r3, [r5, #0]
     6cc:	2380      	movs	r3, #128	; 0x80
     6ce:	300d      	adds	r0, #13
     6d0:	005b      	lsls	r3, r3, #1
     6d2:	606b      	str	r3, [r5, #4]
     6d4:	b2c0      	uxtb	r0, r0
     6d6:	4b18      	ldr	r3, [pc, #96]	; (738 <i2c_master_init+0x164>)
     6d8:	4798      	blx	r3
     6da:	23fa      	movs	r3, #250	; 0xfa
     6dc:	6831      	ldr	r1, [r6, #0]
     6de:	00db      	lsls	r3, r3, #3
     6e0:	4359      	muls	r1, r3
     6e2:	1e4b      	subs	r3, r1, #1
     6e4:	1818      	adds	r0, r3, r0
     6e6:	4b15      	ldr	r3, [pc, #84]	; (73c <i2c_master_init+0x168>)
     6e8:	4798      	blx	r3
     6ea:	1f43      	subs	r3, r0, #5
     6ec:	2040      	movs	r0, #64	; 0x40
     6ee:	2bff      	cmp	r3, #255	; 0xff
     6f0:	d89d      	bhi.n	62e <i2c_master_init+0x5a>
     6f2:	b29b      	uxth	r3, r3
     6f4:	816b      	strh	r3, [r5, #10]
     6f6:	2000      	movs	r0, #0
     6f8:	e799      	b.n	62e <i2c_master_init+0x5a>
     6fa:	4b11      	ldr	r3, [pc, #68]	; (740 <i2c_master_init+0x16c>)
     6fc:	789b      	ldrb	r3, [r3, #2]
     6fe:	403b      	ands	r3, r7
     700:	1e5a      	subs	r2, r3, #1
     702:	4193      	sbcs	r3, r2
     704:	01db      	lsls	r3, r3, #7
     706:	e7cf      	b.n	6a8 <i2c_master_init+0xd4>
     708:	1c28      	adds	r0, r5, #0
     70a:	2101      	movs	r1, #1
     70c:	4b0d      	ldr	r3, [pc, #52]	; (744 <i2c_master_init+0x170>)
     70e:	4798      	blx	r3
     710:	4682      	mov	sl, r0
     712:	e7b7      	b.n	684 <i2c_master_init+0xb0>
     714:	1c28      	adds	r0, r5, #0
     716:	2100      	movs	r1, #0
     718:	4b0a      	ldr	r3, [pc, #40]	; (744 <i2c_master_init+0x170>)
     71a:	4798      	blx	r3
     71c:	e7a6      	b.n	66c <i2c_master_init+0x98>
     71e:	46c0      	nop			; (mov r8, r8)
     720:	000008b5 	.word	0x000008b5
     724:	40000400 	.word	0x40000400
     728:	00003239 	.word	0x00003239
     72c:	0000329d 	.word	0x0000329d
     730:	00000781 	.word	0x00000781
     734:	000033a1 	.word	0x000033a1
     738:	000032fd 	.word	0x000032fd
     73c:	00003599 	.word	0x00003599
     740:	41002000 	.word	0x41002000
     744:	000007c9 	.word	0x000007c9

00000748 <i2c_master_read_packet_wait>:
     748:	2201      	movs	r2, #1
     74a:	1c0b      	adds	r3, r1, #0
     74c:	b510      	push	{r4, lr}
     74e:	7282      	strb	r2, [r0, #10]
     750:	72c2      	strb	r2, [r0, #11]
     752:	885a      	ldrh	r2, [r3, #2]
     754:	8809      	ldrh	r1, [r1, #0]
     756:	3304      	adds	r3, #4
     758:	4c01      	ldr	r4, [pc, #4]	; (760 <i2c_master_read_packet_wait+0x18>)
     75a:	47a0      	blx	r4
     75c:	bd10      	pop	{r4, pc}
     75e:	46c0      	nop			; (mov r8, r8)
     760:	00000489 	.word	0x00000489

00000764 <i2c_master_write_packet_wait>:
     764:	2201      	movs	r2, #1
     766:	1c0b      	adds	r3, r1, #0
     768:	b510      	push	{r4, lr}
     76a:	7282      	strb	r2, [r0, #10]
     76c:	72c2      	strb	r2, [r0, #11]
     76e:	885a      	ldrh	r2, [r3, #2]
     770:	8809      	ldrh	r1, [r1, #0]
     772:	3304      	adds	r3, #4
     774:	4c01      	ldr	r4, [pc, #4]	; (77c <i2c_master_write_packet_wait+0x18>)
     776:	47a0      	blx	r4
     778:	bd10      	pop	{r4, pc}
     77a:	46c0      	nop			; (mov r8, r8)
     77c:	0000039d 	.word	0x0000039d

00000780 <sercom_set_gclk_generator>:
     780:	b530      	push	{r4, r5, lr}
     782:	4c0e      	ldr	r4, [pc, #56]	; (7bc <sercom_set_gclk_generator+0x3c>)
     784:	b083      	sub	sp, #12
     786:	7823      	ldrb	r3, [r4, #0]
     788:	1c05      	adds	r5, r0, #0
     78a:	2b00      	cmp	r3, #0
     78c:	d006      	beq.n	79c <sercom_set_gclk_generator+0x1c>
     78e:	2900      	cmp	r1, #0
     790:	d104      	bne.n	79c <sercom_set_gclk_generator+0x1c>
     792:	7863      	ldrb	r3, [r4, #1]
     794:	4283      	cmp	r3, r0
     796:	d00f      	beq.n	7b8 <sercom_set_gclk_generator+0x38>
     798:	201d      	movs	r0, #29
     79a:	e00b      	b.n	7b4 <sercom_set_gclk_generator+0x34>
     79c:	a901      	add	r1, sp, #4
     79e:	200c      	movs	r0, #12
     7a0:	4b07      	ldr	r3, [pc, #28]	; (7c0 <sercom_set_gclk_generator+0x40>)
     7a2:	700d      	strb	r5, [r1, #0]
     7a4:	4798      	blx	r3
     7a6:	200c      	movs	r0, #12
     7a8:	4b06      	ldr	r3, [pc, #24]	; (7c4 <sercom_set_gclk_generator+0x44>)
     7aa:	4798      	blx	r3
     7ac:	2301      	movs	r3, #1
     7ae:	2000      	movs	r0, #0
     7b0:	7065      	strb	r5, [r4, #1]
     7b2:	7023      	strb	r3, [r4, #0]
     7b4:	b003      	add	sp, #12
     7b6:	bd30      	pop	{r4, r5, pc}
     7b8:	2000      	movs	r0, #0
     7ba:	e7fb      	b.n	7b4 <sercom_set_gclk_generator+0x34>
     7bc:	2000003c 	.word	0x2000003c
     7c0:	00003239 	.word	0x00003239
     7c4:	0000329d 	.word	0x0000329d

000007c8 <_sercom_get_default_pad>:
     7c8:	4b27      	ldr	r3, [pc, #156]	; (868 <_sercom_get_default_pad+0xa0>)
     7ca:	4298      	cmp	r0, r3
     7cc:	d027      	beq.n	81e <_sercom_get_default_pad+0x56>
     7ce:	d919      	bls.n	804 <_sercom_get_default_pad+0x3c>
     7d0:	4b26      	ldr	r3, [pc, #152]	; (86c <_sercom_get_default_pad+0xa4>)
     7d2:	4298      	cmp	r0, r3
     7d4:	d00c      	beq.n	7f0 <_sercom_get_default_pad+0x28>
     7d6:	4b26      	ldr	r3, [pc, #152]	; (870 <_sercom_get_default_pad+0xa8>)
     7d8:	4298      	cmp	r0, r3
     7da:	d107      	bne.n	7ec <_sercom_get_default_pad+0x24>
     7dc:	2901      	cmp	r1, #1
     7de:	d02e      	beq.n	83e <_sercom_get_default_pad+0x76>
     7e0:	2900      	cmp	r1, #0
     7e2:	d032      	beq.n	84a <_sercom_get_default_pad+0x82>
     7e4:	2902      	cmp	r1, #2
     7e6:	d02e      	beq.n	846 <_sercom_get_default_pad+0x7e>
     7e8:	2903      	cmp	r1, #3
     7ea:	d022      	beq.n	832 <_sercom_get_default_pad+0x6a>
     7ec:	2000      	movs	r0, #0
     7ee:	4770      	bx	lr
     7f0:	2901      	cmp	r1, #1
     7f2:	d026      	beq.n	842 <_sercom_get_default_pad+0x7a>
     7f4:	2900      	cmp	r1, #0
     7f6:	d02c      	beq.n	852 <_sercom_get_default_pad+0x8a>
     7f8:	2902      	cmp	r1, #2
     7fa:	d028      	beq.n	84e <_sercom_get_default_pad+0x86>
     7fc:	2903      	cmp	r1, #3
     7fe:	d1f5      	bne.n	7ec <_sercom_get_default_pad+0x24>
     800:	481c      	ldr	r0, [pc, #112]	; (874 <_sercom_get_default_pad+0xac>)
     802:	e7f4      	b.n	7ee <_sercom_get_default_pad+0x26>
     804:	4b1c      	ldr	r3, [pc, #112]	; (878 <_sercom_get_default_pad+0xb0>)
     806:	4298      	cmp	r0, r3
     808:	d1f0      	bne.n	7ec <_sercom_get_default_pad+0x24>
     80a:	2901      	cmp	r1, #1
     80c:	d013      	beq.n	836 <_sercom_get_default_pad+0x6e>
     80e:	2900      	cmp	r1, #0
     810:	d023      	beq.n	85a <_sercom_get_default_pad+0x92>
     812:	2902      	cmp	r1, #2
     814:	d01f      	beq.n	856 <_sercom_get_default_pad+0x8e>
     816:	2903      	cmp	r1, #3
     818:	d1e8      	bne.n	7ec <_sercom_get_default_pad+0x24>
     81a:	4818      	ldr	r0, [pc, #96]	; (87c <_sercom_get_default_pad+0xb4>)
     81c:	e7e7      	b.n	7ee <_sercom_get_default_pad+0x26>
     81e:	2901      	cmp	r1, #1
     820:	d00b      	beq.n	83a <_sercom_get_default_pad+0x72>
     822:	2900      	cmp	r1, #0
     824:	d01d      	beq.n	862 <_sercom_get_default_pad+0x9a>
     826:	2902      	cmp	r1, #2
     828:	d019      	beq.n	85e <_sercom_get_default_pad+0x96>
     82a:	2903      	cmp	r1, #3
     82c:	d1de      	bne.n	7ec <_sercom_get_default_pad+0x24>
     82e:	4814      	ldr	r0, [pc, #80]	; (880 <_sercom_get_default_pad+0xb8>)
     830:	e7dd      	b.n	7ee <_sercom_get_default_pad+0x26>
     832:	4814      	ldr	r0, [pc, #80]	; (884 <_sercom_get_default_pad+0xbc>)
     834:	e7db      	b.n	7ee <_sercom_get_default_pad+0x26>
     836:	4814      	ldr	r0, [pc, #80]	; (888 <_sercom_get_default_pad+0xc0>)
     838:	e7d9      	b.n	7ee <_sercom_get_default_pad+0x26>
     83a:	4814      	ldr	r0, [pc, #80]	; (88c <_sercom_get_default_pad+0xc4>)
     83c:	e7d7      	b.n	7ee <_sercom_get_default_pad+0x26>
     83e:	4814      	ldr	r0, [pc, #80]	; (890 <_sercom_get_default_pad+0xc8>)
     840:	e7d5      	b.n	7ee <_sercom_get_default_pad+0x26>
     842:	4814      	ldr	r0, [pc, #80]	; (894 <_sercom_get_default_pad+0xcc>)
     844:	e7d3      	b.n	7ee <_sercom_get_default_pad+0x26>
     846:	4814      	ldr	r0, [pc, #80]	; (898 <_sercom_get_default_pad+0xd0>)
     848:	e7d1      	b.n	7ee <_sercom_get_default_pad+0x26>
     84a:	4814      	ldr	r0, [pc, #80]	; (89c <_sercom_get_default_pad+0xd4>)
     84c:	e7cf      	b.n	7ee <_sercom_get_default_pad+0x26>
     84e:	4814      	ldr	r0, [pc, #80]	; (8a0 <_sercom_get_default_pad+0xd8>)
     850:	e7cd      	b.n	7ee <_sercom_get_default_pad+0x26>
     852:	4814      	ldr	r0, [pc, #80]	; (8a4 <_sercom_get_default_pad+0xdc>)
     854:	e7cb      	b.n	7ee <_sercom_get_default_pad+0x26>
     856:	4814      	ldr	r0, [pc, #80]	; (8a8 <_sercom_get_default_pad+0xe0>)
     858:	e7c9      	b.n	7ee <_sercom_get_default_pad+0x26>
     85a:	4814      	ldr	r0, [pc, #80]	; (8ac <_sercom_get_default_pad+0xe4>)
     85c:	e7c7      	b.n	7ee <_sercom_get_default_pad+0x26>
     85e:	4814      	ldr	r0, [pc, #80]	; (8b0 <_sercom_get_default_pad+0xe8>)
     860:	e7c5      	b.n	7ee <_sercom_get_default_pad+0x26>
     862:	2003      	movs	r0, #3
     864:	e7c3      	b.n	7ee <_sercom_get_default_pad+0x26>
     866:	46c0      	nop			; (mov r8, r8)
     868:	42000c00 	.word	0x42000c00
     86c:	42001000 	.word	0x42001000
     870:	42001400 	.word	0x42001400
     874:	000b0003 	.word	0x000b0003
     878:	42000800 	.word	0x42000800
     87c:	00070003 	.word	0x00070003
     880:	001f0003 	.word	0x001f0003
     884:	00130003 	.word	0x00130003
     888:	00050003 	.word	0x00050003
     88c:	00010003 	.word	0x00010003
     890:	00110003 	.word	0x00110003
     894:	00090003 	.word	0x00090003
     898:	00120003 	.word	0x00120003
     89c:	00100003 	.word	0x00100003
     8a0:	000a0003 	.word	0x000a0003
     8a4:	00080003 	.word	0x00080003
     8a8:	00060003 	.word	0x00060003
     8ac:	00040003 	.word	0x00040003
     8b0:	001e0003 	.word	0x001e0003

000008b4 <_sercom_get_sercom_inst_index>:
     8b4:	b570      	push	{r4, r5, r6, lr}
     8b6:	b084      	sub	sp, #16
     8b8:	1c01      	adds	r1, r0, #0
     8ba:	4668      	mov	r0, sp
     8bc:	4a0f      	ldr	r2, [pc, #60]	; (8fc <_sercom_get_sercom_inst_index+0x48>)
     8be:	ca70      	ldmia	r2!, {r4, r5, r6}
     8c0:	c070      	stmia	r0!, {r4, r5, r6}
     8c2:	6812      	ldr	r2, [r2, #0]
     8c4:	6002      	str	r2, [r0, #0]
     8c6:	9a00      	ldr	r2, [sp, #0]
     8c8:	428a      	cmp	r2, r1
     8ca:	d00b      	beq.n	8e4 <_sercom_get_sercom_inst_index+0x30>
     8cc:	9a01      	ldr	r2, [sp, #4]
     8ce:	428a      	cmp	r2, r1
     8d0:	d00b      	beq.n	8ea <_sercom_get_sercom_inst_index+0x36>
     8d2:	9a02      	ldr	r2, [sp, #8]
     8d4:	428a      	cmp	r2, r1
     8d6:	d00b      	beq.n	8f0 <_sercom_get_sercom_inst_index+0x3c>
     8d8:	9b03      	ldr	r3, [sp, #12]
     8da:	2000      	movs	r0, #0
     8dc:	428b      	cmp	r3, r1
     8de:	d00a      	beq.n	8f6 <_sercom_get_sercom_inst_index+0x42>
     8e0:	b004      	add	sp, #16
     8e2:	bd70      	pop	{r4, r5, r6, pc}
     8e4:	2000      	movs	r0, #0
     8e6:	b2c0      	uxtb	r0, r0
     8e8:	e7fa      	b.n	8e0 <_sercom_get_sercom_inst_index+0x2c>
     8ea:	2001      	movs	r0, #1
     8ec:	b2c0      	uxtb	r0, r0
     8ee:	e7f7      	b.n	8e0 <_sercom_get_sercom_inst_index+0x2c>
     8f0:	2002      	movs	r0, #2
     8f2:	b2c0      	uxtb	r0, r0
     8f4:	e7f4      	b.n	8e0 <_sercom_get_sercom_inst_index+0x2c>
     8f6:	3003      	adds	r0, #3
     8f8:	b2c0      	uxtb	r0, r0
     8fa:	e7f1      	b.n	8e0 <_sercom_get_sercom_inst_index+0x2c>
     8fc:	00003da8 	.word	0x00003da8

00000900 <nvm_set_config>:
     900:	2304      	movs	r3, #4
     902:	b530      	push	{r4, r5, lr}
     904:	4a1b      	ldr	r2, [pc, #108]	; (974 <nvm_set_config+0x74>)
     906:	1c01      	adds	r1, r0, #0
     908:	69d0      	ldr	r0, [r2, #28]
     90a:	4303      	orrs	r3, r0
     90c:	61d3      	str	r3, [r2, #28]
     90e:	2220      	movs	r2, #32
     910:	4b19      	ldr	r3, [pc, #100]	; (978 <nvm_set_config+0x78>)
     912:	32ff      	adds	r2, #255	; 0xff
     914:	831a      	strh	r2, [r3, #24]
     916:	7d1a      	ldrb	r2, [r3, #20]
     918:	2005      	movs	r0, #5
     91a:	07d2      	lsls	r2, r2, #31
     91c:	d400      	bmi.n	920 <nvm_set_config+0x20>
     91e:	bd30      	pop	{r4, r5, pc}
     920:	78cc      	ldrb	r4, [r1, #3]
     922:	784a      	ldrb	r2, [r1, #1]
     924:	04a4      	lsls	r4, r4, #18
     926:	01d2      	lsls	r2, r2, #7
     928:	4322      	orrs	r2, r4
     92a:	780c      	ldrb	r4, [r1, #0]
     92c:	25c0      	movs	r5, #192	; 0xc0
     92e:	0224      	lsls	r4, r4, #8
     930:	1c20      	adds	r0, r4, #0
     932:	00ad      	lsls	r5, r5, #2
     934:	4028      	ands	r0, r5
     936:	4302      	orrs	r2, r0
     938:	1c14      	adds	r4, r2, #0
     93a:	221e      	movs	r2, #30
     93c:	7888      	ldrb	r0, [r1, #2]
     93e:	0040      	lsls	r0, r0, #1
     940:	4010      	ands	r0, r2
     942:	1c22      	adds	r2, r4, #0
     944:	24c0      	movs	r4, #192	; 0xc0
     946:	4302      	orrs	r2, r0
     948:	7908      	ldrb	r0, [r1, #4]
     94a:	02a4      	lsls	r4, r4, #10
     94c:	0400      	lsls	r0, r0, #16
     94e:	4020      	ands	r0, r4
     950:	2408      	movs	r4, #8
     952:	4302      	orrs	r2, r0
     954:	605a      	str	r2, [r3, #4]
     956:	689a      	ldr	r2, [r3, #8]
     958:	4808      	ldr	r0, [pc, #32]	; (97c <nvm_set_config+0x7c>)
     95a:	0352      	lsls	r2, r2, #13
     95c:	0f52      	lsrs	r2, r2, #29
     95e:	4094      	lsls	r4, r2
     960:	8004      	strh	r4, [r0, #0]
     962:	689a      	ldr	r2, [r3, #8]
     964:	8042      	strh	r2, [r0, #2]
     966:	784a      	ldrb	r2, [r1, #1]
     968:	7102      	strb	r2, [r0, #4]
     96a:	8b18      	ldrh	r0, [r3, #24]
     96c:	05c0      	lsls	r0, r0, #23
     96e:	0fc0      	lsrs	r0, r0, #31
     970:	0100      	lsls	r0, r0, #4
     972:	e7d4      	b.n	91e <nvm_set_config+0x1e>
     974:	40000400 	.word	0x40000400
     978:	41004000 	.word	0x41004000
     97c:	20000040 	.word	0x20000040

00000980 <nvm_write_buffer>:
     980:	b5f0      	push	{r4, r5, r6, r7, lr}
     982:	4c33      	ldr	r4, [pc, #204]	; (a50 <nvm_write_buffer+0xd0>)
     984:	8825      	ldrh	r5, [r4, #0]
     986:	8863      	ldrh	r3, [r4, #2]
     988:	436b      	muls	r3, r5
     98a:	4283      	cmp	r3, r0
     98c:	d202      	bcs.n	994 <nvm_write_buffer+0x14>
     98e:	2318      	movs	r3, #24
     990:	1c18      	adds	r0, r3, #0
     992:	bdf0      	pop	{r4, r5, r6, r7, pc}
     994:	1e6b      	subs	r3, r5, #1
     996:	4203      	tst	r3, r0
     998:	d1f9      	bne.n	98e <nvm_write_buffer+0xe>
     99a:	2317      	movs	r3, #23
     99c:	4295      	cmp	r5, r2
     99e:	d3f7      	bcc.n	990 <nvm_write_buffer+0x10>
     9a0:	4d2c      	ldr	r5, [pc, #176]	; (a54 <nvm_write_buffer+0xd4>)
     9a2:	3b12      	subs	r3, #18
     9a4:	7d2e      	ldrb	r6, [r5, #20]
     9a6:	07f6      	lsls	r6, r6, #31
     9a8:	d5f2      	bpl.n	990 <nvm_write_buffer+0x10>
     9aa:	2601      	movs	r6, #1
     9ac:	4b2a      	ldr	r3, [pc, #168]	; (a58 <nvm_write_buffer+0xd8>)
     9ae:	802b      	strh	r3, [r5, #0]
     9b0:	7d2b      	ldrb	r3, [r5, #20]
     9b2:	421e      	tst	r6, r3
     9b4:	d0fc      	beq.n	9b0 <nvm_write_buffer+0x30>
     9b6:	2520      	movs	r5, #32
     9b8:	4b26      	ldr	r3, [pc, #152]	; (a54 <nvm_write_buffer+0xd4>)
     9ba:	35ff      	adds	r5, #255	; 0xff
     9bc:	831d      	strh	r5, [r3, #24]
     9be:	0847      	lsrs	r7, r0, #1
     9c0:	2a00      	cmp	r2, #0
     9c2:	d01a      	beq.n	9fa <nvm_write_buffer+0x7a>
     9c4:	1e53      	subs	r3, r2, #1
     9c6:	469c      	mov	ip, r3
     9c8:	007f      	lsls	r7, r7, #1
     9ca:	2300      	movs	r3, #0
     9cc:	e006      	b.n	9dc <nvm_write_buffer+0x5c>
     9ce:	b2b5      	uxth	r5, r6
     9d0:	3302      	adds	r3, #2
     9d2:	b29b      	uxth	r3, r3
     9d4:	803d      	strh	r5, [r7, #0]
     9d6:	3702      	adds	r7, #2
     9d8:	429a      	cmp	r2, r3
     9da:	d907      	bls.n	9ec <nvm_write_buffer+0x6c>
     9dc:	5cce      	ldrb	r6, [r1, r3]
     9de:	4563      	cmp	r3, ip
     9e0:	daf5      	bge.n	9ce <nvm_write_buffer+0x4e>
     9e2:	18cd      	adds	r5, r1, r3
     9e4:	786d      	ldrb	r5, [r5, #1]
     9e6:	022d      	lsls	r5, r5, #8
     9e8:	4335      	orrs	r5, r6
     9ea:	e7f1      	b.n	9d0 <nvm_write_buffer+0x50>
     9ec:	7923      	ldrb	r3, [r4, #4]
     9ee:	2b00      	cmp	r3, #0
     9f0:	d101      	bne.n	9f6 <nvm_write_buffer+0x76>
     9f2:	2a3f      	cmp	r2, #63	; 0x3f
     9f4:	d904      	bls.n	a00 <nvm_write_buffer+0x80>
     9f6:	2300      	movs	r3, #0
     9f8:	e7ca      	b.n	990 <nvm_write_buffer+0x10>
     9fa:	7923      	ldrb	r3, [r4, #4]
     9fc:	2b00      	cmp	r3, #0
     9fe:	d1fa      	bne.n	9f6 <nvm_write_buffer+0x76>
     a00:	8862      	ldrh	r2, [r4, #2]
     a02:	8823      	ldrh	r3, [r4, #0]
     a04:	4353      	muls	r3, r2
     a06:	4298      	cmp	r0, r3
     a08:	d905      	bls.n	a16 <nvm_write_buffer+0x96>
     a0a:	4b14      	ldr	r3, [pc, #80]	; (a5c <nvm_write_buffer+0xdc>)
     a0c:	18c2      	adds	r2, r0, r3
     a0e:	2380      	movs	r3, #128	; 0x80
     a10:	019b      	lsls	r3, r3, #6
     a12:	429a      	cmp	r2, r3
     a14:	d8bb      	bhi.n	98e <nvm_write_buffer+0xe>
     a16:	2280      	movs	r2, #128	; 0x80
     a18:	4b0e      	ldr	r3, [pc, #56]	; (a54 <nvm_write_buffer+0xd4>)
     a1a:	02d2      	lsls	r2, r2, #11
     a1c:	685c      	ldr	r4, [r3, #4]
     a1e:	4322      	orrs	r2, r4
     a20:	605a      	str	r2, [r3, #4]
     a22:	2220      	movs	r2, #32
     a24:	32ff      	adds	r2, #255	; 0xff
     a26:	831a      	strh	r2, [r3, #24]
     a28:	7d1a      	ldrb	r2, [r3, #20]
     a2a:	07d2      	lsls	r2, r2, #31
     a2c:	d402      	bmi.n	a34 <nvm_write_buffer+0xb4>
     a2e:	605c      	str	r4, [r3, #4]
     a30:	2305      	movs	r3, #5
     a32:	e7ad      	b.n	990 <nvm_write_buffer+0x10>
     a34:	2101      	movs	r1, #1
     a36:	0880      	lsrs	r0, r0, #2
     a38:	4a09      	ldr	r2, [pc, #36]	; (a60 <nvm_write_buffer+0xe0>)
     a3a:	0040      	lsls	r0, r0, #1
     a3c:	61d8      	str	r0, [r3, #28]
     a3e:	801a      	strh	r2, [r3, #0]
     a40:	7d1a      	ldrb	r2, [r3, #20]
     a42:	4211      	tst	r1, r2
     a44:	d0fc      	beq.n	a40 <nvm_write_buffer+0xc0>
     a46:	4b03      	ldr	r3, [pc, #12]	; (a54 <nvm_write_buffer+0xd4>)
     a48:	605c      	str	r4, [r3, #4]
     a4a:	2300      	movs	r3, #0
     a4c:	e7a0      	b.n	990 <nvm_write_buffer+0x10>
     a4e:	46c0      	nop			; (mov r8, r8)
     a50:	20000040 	.word	0x20000040
     a54:	41004000 	.word	0x41004000
     a58:	ffffa544 	.word	0xffffa544
     a5c:	ff7fc000 	.word	0xff7fc000
     a60:	ffffa504 	.word	0xffffa504

00000a64 <nvm_read_buffer>:
     a64:	b570      	push	{r4, r5, r6, lr}
     a66:	4b17      	ldr	r3, [pc, #92]	; (ac4 <nvm_read_buffer+0x60>)
     a68:	2518      	movs	r5, #24
     a6a:	881c      	ldrh	r4, [r3, #0]
     a6c:	885b      	ldrh	r3, [r3, #2]
     a6e:	4363      	muls	r3, r4
     a70:	4283      	cmp	r3, r0
     a72:	d201      	bcs.n	a78 <nvm_read_buffer+0x14>
     a74:	1c28      	adds	r0, r5, #0
     a76:	bd70      	pop	{r4, r5, r6, pc}
     a78:	1e63      	subs	r3, r4, #1
     a7a:	4203      	tst	r3, r0
     a7c:	d1fa      	bne.n	a74 <nvm_read_buffer+0x10>
     a7e:	3d01      	subs	r5, #1
     a80:	4294      	cmp	r4, r2
     a82:	d3f7      	bcc.n	a74 <nvm_read_buffer+0x10>
     a84:	4b10      	ldr	r3, [pc, #64]	; (ac8 <nvm_read_buffer+0x64>)
     a86:	3d12      	subs	r5, #18
     a88:	7d1c      	ldrb	r4, [r3, #20]
     a8a:	07e4      	lsls	r4, r4, #31
     a8c:	d5f2      	bpl.n	a74 <nvm_read_buffer+0x10>
     a8e:	2420      	movs	r4, #32
     a90:	34ff      	adds	r4, #255	; 0xff
     a92:	831c      	strh	r4, [r3, #24]
     a94:	0840      	lsrs	r0, r0, #1
     a96:	2a00      	cmp	r2, #0
     a98:	d011      	beq.n	abe <nvm_read_buffer+0x5a>
     a9a:	2500      	movs	r5, #0
     a9c:	1e56      	subs	r6, r2, #1
     a9e:	0040      	lsls	r0, r0, #1
     aa0:	182b      	adds	r3, r5, r0
     aa2:	881c      	ldrh	r4, [r3, #0]
     aa4:	042b      	lsls	r3, r5, #16
     aa6:	b2a4      	uxth	r4, r4
     aa8:	0c1b      	lsrs	r3, r3, #16
     aaa:	54cc      	strb	r4, [r1, r3]
     aac:	42b3      	cmp	r3, r6
     aae:	da02      	bge.n	ab6 <nvm_read_buffer+0x52>
     ab0:	18cb      	adds	r3, r1, r3
     ab2:	0a24      	lsrs	r4, r4, #8
     ab4:	705c      	strb	r4, [r3, #1]
     ab6:	3502      	adds	r5, #2
     ab8:	b2ab      	uxth	r3, r5
     aba:	429a      	cmp	r2, r3
     abc:	d8f0      	bhi.n	aa0 <nvm_read_buffer+0x3c>
     abe:	2500      	movs	r5, #0
     ac0:	e7d8      	b.n	a74 <nvm_read_buffer+0x10>
     ac2:	46c0      	nop			; (mov r8, r8)
     ac4:	20000040 	.word	0x20000040
     ac8:	41004000 	.word	0x41004000

00000acc <nvm_erase_row>:
     acc:	4b0f      	ldr	r3, [pc, #60]	; (b0c <nvm_erase_row+0x40>)
     ace:	2118      	movs	r1, #24
     ad0:	881a      	ldrh	r2, [r3, #0]
     ad2:	885b      	ldrh	r3, [r3, #2]
     ad4:	4353      	muls	r3, r2
     ad6:	4283      	cmp	r3, r0
     ad8:	d201      	bcs.n	ade <nvm_erase_row+0x12>
     ada:	1c08      	adds	r0, r1, #0
     adc:	4770      	bx	lr
     ade:	0092      	lsls	r2, r2, #2
     ae0:	3a01      	subs	r2, #1
     ae2:	4210      	tst	r0, r2
     ae4:	d1f9      	bne.n	ada <nvm_erase_row+0xe>
     ae6:	4a0a      	ldr	r2, [pc, #40]	; (b10 <nvm_erase_row+0x44>)
     ae8:	3913      	subs	r1, #19
     aea:	7d13      	ldrb	r3, [r2, #20]
     aec:	07db      	lsls	r3, r3, #31
     aee:	d5f4      	bpl.n	ada <nvm_erase_row+0xe>
     af0:	2320      	movs	r3, #32
     af2:	33ff      	adds	r3, #255	; 0xff
     af4:	8313      	strh	r3, [r2, #24]
     af6:	0880      	lsrs	r0, r0, #2
     af8:	4b06      	ldr	r3, [pc, #24]	; (b14 <nvm_erase_row+0x48>)
     afa:	0040      	lsls	r0, r0, #1
     afc:	61d0      	str	r0, [r2, #28]
     afe:	3904      	subs	r1, #4
     b00:	8013      	strh	r3, [r2, #0]
     b02:	7d13      	ldrb	r3, [r2, #20]
     b04:	4219      	tst	r1, r3
     b06:	d0fc      	beq.n	b02 <nvm_erase_row+0x36>
     b08:	2100      	movs	r1, #0
     b0a:	e7e6      	b.n	ada <nvm_erase_row+0xe>
     b0c:	20000040 	.word	0x20000040
     b10:	41004000 	.word	0x41004000
     b14:	ffffa502 	.word	0xffffa502

00000b18 <tc_register_callback>:
     b18:	1c93      	adds	r3, r2, #2
     b1a:	009b      	lsls	r3, r3, #2
     b1c:	5019      	str	r1, [r3, r0]
     b1e:	2a02      	cmp	r2, #2
     b20:	d009      	beq.n	b36 <tc_register_callback+0x1e>
     b22:	2a03      	cmp	r2, #3
     b24:	d00c      	beq.n	b40 <tc_register_callback+0x28>
     b26:	2301      	movs	r3, #1
     b28:	4093      	lsls	r3, r2
     b2a:	1c1a      	adds	r2, r3, #0
     b2c:	7e03      	ldrb	r3, [r0, #24]
     b2e:	431a      	orrs	r2, r3
     b30:	7602      	strb	r2, [r0, #24]
     b32:	2000      	movs	r0, #0
     b34:	4770      	bx	lr
     b36:	2310      	movs	r3, #16
     b38:	7e02      	ldrb	r2, [r0, #24]
     b3a:	4313      	orrs	r3, r2
     b3c:	7603      	strb	r3, [r0, #24]
     b3e:	e7f8      	b.n	b32 <tc_register_callback+0x1a>
     b40:	2320      	movs	r3, #32
     b42:	7e02      	ldrb	r2, [r0, #24]
     b44:	4313      	orrs	r3, r2
     b46:	7603      	strb	r3, [r0, #24]
     b48:	e7f3      	b.n	b32 <tc_register_callback+0x1a>
     b4a:	46c0      	nop			; (mov r8, r8)

00000b4c <TC0_Handler>:
     b4c:	b570      	push	{r4, r5, r6, lr}
     b4e:	2601      	movs	r6, #1
     b50:	4b15      	ldr	r3, [pc, #84]	; (ba8 <TC0_Handler+0x5c>)
     b52:	681d      	ldr	r5, [r3, #0]
     b54:	682b      	ldr	r3, [r5, #0]
     b56:	7e2c      	ldrb	r4, [r5, #24]
     b58:	7b9b      	ldrb	r3, [r3, #14]
     b5a:	401c      	ands	r4, r3
     b5c:	7e6b      	ldrb	r3, [r5, #25]
     b5e:	401c      	ands	r4, r3
     b60:	4226      	tst	r6, r4
     b62:	d11a      	bne.n	b9a <TC0_Handler+0x4e>
     b64:	2602      	movs	r6, #2
     b66:	4226      	tst	r6, r4
     b68:	d111      	bne.n	b8e <TC0_Handler+0x42>
     b6a:	2610      	movs	r6, #16
     b6c:	4226      	tst	r6, r4
     b6e:	d108      	bne.n	b82 <TC0_Handler+0x36>
     b70:	2620      	movs	r6, #32
     b72:	4226      	tst	r6, r4
     b74:	d004      	beq.n	b80 <TC0_Handler+0x34>
     b76:	696b      	ldr	r3, [r5, #20]
     b78:	1c28      	adds	r0, r5, #0
     b7a:	4798      	blx	r3
     b7c:	682b      	ldr	r3, [r5, #0]
     b7e:	739e      	strb	r6, [r3, #14]
     b80:	bd70      	pop	{r4, r5, r6, pc}
     b82:	692b      	ldr	r3, [r5, #16]
     b84:	1c28      	adds	r0, r5, #0
     b86:	4798      	blx	r3
     b88:	682b      	ldr	r3, [r5, #0]
     b8a:	739e      	strb	r6, [r3, #14]
     b8c:	e7f0      	b.n	b70 <TC0_Handler+0x24>
     b8e:	68eb      	ldr	r3, [r5, #12]
     b90:	1c28      	adds	r0, r5, #0
     b92:	4798      	blx	r3
     b94:	682b      	ldr	r3, [r5, #0]
     b96:	739e      	strb	r6, [r3, #14]
     b98:	e7e7      	b.n	b6a <TC0_Handler+0x1e>
     b9a:	68ab      	ldr	r3, [r5, #8]
     b9c:	1c28      	adds	r0, r5, #0
     b9e:	4798      	blx	r3
     ba0:	682b      	ldr	r3, [r5, #0]
     ba2:	739e      	strb	r6, [r3, #14]
     ba4:	e7de      	b.n	b64 <TC0_Handler+0x18>
     ba6:	46c0      	nop			; (mov r8, r8)
     ba8:	200008f0 	.word	0x200008f0

00000bac <TC1_Handler>:
     bac:	b570      	push	{r4, r5, r6, lr}
     bae:	2601      	movs	r6, #1
     bb0:	4b15      	ldr	r3, [pc, #84]	; (c08 <TC1_Handler+0x5c>)
     bb2:	685d      	ldr	r5, [r3, #4]
     bb4:	682b      	ldr	r3, [r5, #0]
     bb6:	7e2c      	ldrb	r4, [r5, #24]
     bb8:	7b9b      	ldrb	r3, [r3, #14]
     bba:	401c      	ands	r4, r3
     bbc:	7e6b      	ldrb	r3, [r5, #25]
     bbe:	401c      	ands	r4, r3
     bc0:	4226      	tst	r6, r4
     bc2:	d11a      	bne.n	bfa <TC1_Handler+0x4e>
     bc4:	2602      	movs	r6, #2
     bc6:	4226      	tst	r6, r4
     bc8:	d111      	bne.n	bee <TC1_Handler+0x42>
     bca:	2610      	movs	r6, #16
     bcc:	4226      	tst	r6, r4
     bce:	d108      	bne.n	be2 <TC1_Handler+0x36>
     bd0:	2620      	movs	r6, #32
     bd2:	4226      	tst	r6, r4
     bd4:	d004      	beq.n	be0 <TC1_Handler+0x34>
     bd6:	696b      	ldr	r3, [r5, #20]
     bd8:	1c28      	adds	r0, r5, #0
     bda:	4798      	blx	r3
     bdc:	682b      	ldr	r3, [r5, #0]
     bde:	739e      	strb	r6, [r3, #14]
     be0:	bd70      	pop	{r4, r5, r6, pc}
     be2:	692b      	ldr	r3, [r5, #16]
     be4:	1c28      	adds	r0, r5, #0
     be6:	4798      	blx	r3
     be8:	682b      	ldr	r3, [r5, #0]
     bea:	739e      	strb	r6, [r3, #14]
     bec:	e7f0      	b.n	bd0 <TC1_Handler+0x24>
     bee:	68eb      	ldr	r3, [r5, #12]
     bf0:	1c28      	adds	r0, r5, #0
     bf2:	4798      	blx	r3
     bf4:	682b      	ldr	r3, [r5, #0]
     bf6:	739e      	strb	r6, [r3, #14]
     bf8:	e7e7      	b.n	bca <TC1_Handler+0x1e>
     bfa:	68ab      	ldr	r3, [r5, #8]
     bfc:	1c28      	adds	r0, r5, #0
     bfe:	4798      	blx	r3
     c00:	682b      	ldr	r3, [r5, #0]
     c02:	739e      	strb	r6, [r3, #14]
     c04:	e7de      	b.n	bc4 <TC1_Handler+0x18>
     c06:	46c0      	nop			; (mov r8, r8)
     c08:	200008f0 	.word	0x200008f0

00000c0c <TC2_Handler>:
     c0c:	b570      	push	{r4, r5, r6, lr}
     c0e:	2601      	movs	r6, #1
     c10:	4b15      	ldr	r3, [pc, #84]	; (c68 <TC2_Handler+0x5c>)
     c12:	689d      	ldr	r5, [r3, #8]
     c14:	682b      	ldr	r3, [r5, #0]
     c16:	7e2c      	ldrb	r4, [r5, #24]
     c18:	7b9b      	ldrb	r3, [r3, #14]
     c1a:	401c      	ands	r4, r3
     c1c:	7e6b      	ldrb	r3, [r5, #25]
     c1e:	401c      	ands	r4, r3
     c20:	4226      	tst	r6, r4
     c22:	d11a      	bne.n	c5a <TC2_Handler+0x4e>
     c24:	2602      	movs	r6, #2
     c26:	4226      	tst	r6, r4
     c28:	d111      	bne.n	c4e <TC2_Handler+0x42>
     c2a:	2610      	movs	r6, #16
     c2c:	4226      	tst	r6, r4
     c2e:	d108      	bne.n	c42 <TC2_Handler+0x36>
     c30:	2620      	movs	r6, #32
     c32:	4226      	tst	r6, r4
     c34:	d004      	beq.n	c40 <TC2_Handler+0x34>
     c36:	696b      	ldr	r3, [r5, #20]
     c38:	1c28      	adds	r0, r5, #0
     c3a:	4798      	blx	r3
     c3c:	682b      	ldr	r3, [r5, #0]
     c3e:	739e      	strb	r6, [r3, #14]
     c40:	bd70      	pop	{r4, r5, r6, pc}
     c42:	692b      	ldr	r3, [r5, #16]
     c44:	1c28      	adds	r0, r5, #0
     c46:	4798      	blx	r3
     c48:	682b      	ldr	r3, [r5, #0]
     c4a:	739e      	strb	r6, [r3, #14]
     c4c:	e7f0      	b.n	c30 <TC2_Handler+0x24>
     c4e:	68eb      	ldr	r3, [r5, #12]
     c50:	1c28      	adds	r0, r5, #0
     c52:	4798      	blx	r3
     c54:	682b      	ldr	r3, [r5, #0]
     c56:	739e      	strb	r6, [r3, #14]
     c58:	e7e7      	b.n	c2a <TC2_Handler+0x1e>
     c5a:	68ab      	ldr	r3, [r5, #8]
     c5c:	1c28      	adds	r0, r5, #0
     c5e:	4798      	blx	r3
     c60:	682b      	ldr	r3, [r5, #0]
     c62:	739e      	strb	r6, [r3, #14]
     c64:	e7de      	b.n	c24 <TC2_Handler+0x18>
     c66:	46c0      	nop			; (mov r8, r8)
     c68:	200008f0 	.word	0x200008f0

00000c6c <TC3_Handler>:
     c6c:	b570      	push	{r4, r5, r6, lr}
     c6e:	2601      	movs	r6, #1
     c70:	4b15      	ldr	r3, [pc, #84]	; (cc8 <TC3_Handler+0x5c>)
     c72:	68dd      	ldr	r5, [r3, #12]
     c74:	682b      	ldr	r3, [r5, #0]
     c76:	7e2c      	ldrb	r4, [r5, #24]
     c78:	7b9b      	ldrb	r3, [r3, #14]
     c7a:	401c      	ands	r4, r3
     c7c:	7e6b      	ldrb	r3, [r5, #25]
     c7e:	401c      	ands	r4, r3
     c80:	4226      	tst	r6, r4
     c82:	d11a      	bne.n	cba <TC3_Handler+0x4e>
     c84:	2602      	movs	r6, #2
     c86:	4226      	tst	r6, r4
     c88:	d111      	bne.n	cae <TC3_Handler+0x42>
     c8a:	2610      	movs	r6, #16
     c8c:	4226      	tst	r6, r4
     c8e:	d108      	bne.n	ca2 <TC3_Handler+0x36>
     c90:	2620      	movs	r6, #32
     c92:	4226      	tst	r6, r4
     c94:	d004      	beq.n	ca0 <TC3_Handler+0x34>
     c96:	696b      	ldr	r3, [r5, #20]
     c98:	1c28      	adds	r0, r5, #0
     c9a:	4798      	blx	r3
     c9c:	682b      	ldr	r3, [r5, #0]
     c9e:	739e      	strb	r6, [r3, #14]
     ca0:	bd70      	pop	{r4, r5, r6, pc}
     ca2:	692b      	ldr	r3, [r5, #16]
     ca4:	1c28      	adds	r0, r5, #0
     ca6:	4798      	blx	r3
     ca8:	682b      	ldr	r3, [r5, #0]
     caa:	739e      	strb	r6, [r3, #14]
     cac:	e7f0      	b.n	c90 <TC3_Handler+0x24>
     cae:	68eb      	ldr	r3, [r5, #12]
     cb0:	1c28      	adds	r0, r5, #0
     cb2:	4798      	blx	r3
     cb4:	682b      	ldr	r3, [r5, #0]
     cb6:	739e      	strb	r6, [r3, #14]
     cb8:	e7e7      	b.n	c8a <TC3_Handler+0x1e>
     cba:	68ab      	ldr	r3, [r5, #8]
     cbc:	1c28      	adds	r0, r5, #0
     cbe:	4798      	blx	r3
     cc0:	682b      	ldr	r3, [r5, #0]
     cc2:	739e      	strb	r6, [r3, #14]
     cc4:	e7de      	b.n	c84 <TC3_Handler+0x18>
     cc6:	46c0      	nop			; (mov r8, r8)
     cc8:	200008f0 	.word	0x200008f0

00000ccc <TC4_Handler>:
     ccc:	b570      	push	{r4, r5, r6, lr}
     cce:	2601      	movs	r6, #1
     cd0:	4b15      	ldr	r3, [pc, #84]	; (d28 <TC4_Handler+0x5c>)
     cd2:	691d      	ldr	r5, [r3, #16]
     cd4:	682b      	ldr	r3, [r5, #0]
     cd6:	7e2c      	ldrb	r4, [r5, #24]
     cd8:	7b9b      	ldrb	r3, [r3, #14]
     cda:	401c      	ands	r4, r3
     cdc:	7e6b      	ldrb	r3, [r5, #25]
     cde:	401c      	ands	r4, r3
     ce0:	4226      	tst	r6, r4
     ce2:	d11a      	bne.n	d1a <TC4_Handler+0x4e>
     ce4:	2602      	movs	r6, #2
     ce6:	4226      	tst	r6, r4
     ce8:	d111      	bne.n	d0e <TC4_Handler+0x42>
     cea:	2610      	movs	r6, #16
     cec:	4226      	tst	r6, r4
     cee:	d108      	bne.n	d02 <TC4_Handler+0x36>
     cf0:	2620      	movs	r6, #32
     cf2:	4226      	tst	r6, r4
     cf4:	d004      	beq.n	d00 <TC4_Handler+0x34>
     cf6:	696b      	ldr	r3, [r5, #20]
     cf8:	1c28      	adds	r0, r5, #0
     cfa:	4798      	blx	r3
     cfc:	682b      	ldr	r3, [r5, #0]
     cfe:	739e      	strb	r6, [r3, #14]
     d00:	bd70      	pop	{r4, r5, r6, pc}
     d02:	692b      	ldr	r3, [r5, #16]
     d04:	1c28      	adds	r0, r5, #0
     d06:	4798      	blx	r3
     d08:	682b      	ldr	r3, [r5, #0]
     d0a:	739e      	strb	r6, [r3, #14]
     d0c:	e7f0      	b.n	cf0 <TC4_Handler+0x24>
     d0e:	68eb      	ldr	r3, [r5, #12]
     d10:	1c28      	adds	r0, r5, #0
     d12:	4798      	blx	r3
     d14:	682b      	ldr	r3, [r5, #0]
     d16:	739e      	strb	r6, [r3, #14]
     d18:	e7e7      	b.n	cea <TC4_Handler+0x1e>
     d1a:	68ab      	ldr	r3, [r5, #8]
     d1c:	1c28      	adds	r0, r5, #0
     d1e:	4798      	blx	r3
     d20:	682b      	ldr	r3, [r5, #0]
     d22:	739e      	strb	r6, [r3, #14]
     d24:	e7de      	b.n	ce4 <TC4_Handler+0x18>
     d26:	46c0      	nop			; (mov r8, r8)
     d28:	200008f0 	.word	0x200008f0

00000d2c <TC5_Handler>:
     d2c:	b570      	push	{r4, r5, r6, lr}
     d2e:	2601      	movs	r6, #1
     d30:	4b15      	ldr	r3, [pc, #84]	; (d88 <TC5_Handler+0x5c>)
     d32:	695d      	ldr	r5, [r3, #20]
     d34:	682b      	ldr	r3, [r5, #0]
     d36:	7e2c      	ldrb	r4, [r5, #24]
     d38:	7b9b      	ldrb	r3, [r3, #14]
     d3a:	401c      	ands	r4, r3
     d3c:	7e6b      	ldrb	r3, [r5, #25]
     d3e:	401c      	ands	r4, r3
     d40:	4226      	tst	r6, r4
     d42:	d11a      	bne.n	d7a <TC5_Handler+0x4e>
     d44:	2602      	movs	r6, #2
     d46:	4226      	tst	r6, r4
     d48:	d111      	bne.n	d6e <TC5_Handler+0x42>
     d4a:	2610      	movs	r6, #16
     d4c:	4226      	tst	r6, r4
     d4e:	d108      	bne.n	d62 <TC5_Handler+0x36>
     d50:	2620      	movs	r6, #32
     d52:	4226      	tst	r6, r4
     d54:	d004      	beq.n	d60 <TC5_Handler+0x34>
     d56:	696b      	ldr	r3, [r5, #20]
     d58:	1c28      	adds	r0, r5, #0
     d5a:	4798      	blx	r3
     d5c:	682b      	ldr	r3, [r5, #0]
     d5e:	739e      	strb	r6, [r3, #14]
     d60:	bd70      	pop	{r4, r5, r6, pc}
     d62:	692b      	ldr	r3, [r5, #16]
     d64:	1c28      	adds	r0, r5, #0
     d66:	4798      	blx	r3
     d68:	682b      	ldr	r3, [r5, #0]
     d6a:	739e      	strb	r6, [r3, #14]
     d6c:	e7f0      	b.n	d50 <TC5_Handler+0x24>
     d6e:	68eb      	ldr	r3, [r5, #12]
     d70:	1c28      	adds	r0, r5, #0
     d72:	4798      	blx	r3
     d74:	682b      	ldr	r3, [r5, #0]
     d76:	739e      	strb	r6, [r3, #14]
     d78:	e7e7      	b.n	d4a <TC5_Handler+0x1e>
     d7a:	68ab      	ldr	r3, [r5, #8]
     d7c:	1c28      	adds	r0, r5, #0
     d7e:	4798      	blx	r3
     d80:	682b      	ldr	r3, [r5, #0]
     d82:	739e      	strb	r6, [r3, #14]
     d84:	e7de      	b.n	d44 <TC5_Handler+0x18>
     d86:	46c0      	nop			; (mov r8, r8)
     d88:	200008f0 	.word	0x200008f0

00000d8c <_tc_get_inst_index>:
     d8c:	b570      	push	{r4, r5, r6, lr}
     d8e:	b086      	sub	sp, #24
     d90:	1c01      	adds	r1, r0, #0
     d92:	4668      	mov	r0, sp
     d94:	4b15      	ldr	r3, [pc, #84]	; (dec <_tc_get_inst_index+0x60>)
     d96:	cb70      	ldmia	r3!, {r4, r5, r6}
     d98:	c070      	stmia	r0!, {r4, r5, r6}
     d9a:	cb70      	ldmia	r3!, {r4, r5, r6}
     d9c:	c070      	stmia	r0!, {r4, r5, r6}
     d9e:	9b00      	ldr	r3, [sp, #0]
     da0:	428b      	cmp	r3, r1
     da2:	d011      	beq.n	dc8 <_tc_get_inst_index+0x3c>
     da4:	9b01      	ldr	r3, [sp, #4]
     da6:	428b      	cmp	r3, r1
     da8:	d011      	beq.n	dce <_tc_get_inst_index+0x42>
     daa:	9b02      	ldr	r3, [sp, #8]
     dac:	428b      	cmp	r3, r1
     dae:	d011      	beq.n	dd4 <_tc_get_inst_index+0x48>
     db0:	9b03      	ldr	r3, [sp, #12]
     db2:	428b      	cmp	r3, r1
     db4:	d011      	beq.n	dda <_tc_get_inst_index+0x4e>
     db6:	9b04      	ldr	r3, [sp, #16]
     db8:	428b      	cmp	r3, r1
     dba:	d011      	beq.n	de0 <_tc_get_inst_index+0x54>
     dbc:	9b05      	ldr	r3, [sp, #20]
     dbe:	2000      	movs	r0, #0
     dc0:	428b      	cmp	r3, r1
     dc2:	d010      	beq.n	de6 <_tc_get_inst_index+0x5a>
     dc4:	b006      	add	sp, #24
     dc6:	bd70      	pop	{r4, r5, r6, pc}
     dc8:	2000      	movs	r0, #0
     dca:	b2c0      	uxtb	r0, r0
     dcc:	e7fa      	b.n	dc4 <_tc_get_inst_index+0x38>
     dce:	2001      	movs	r0, #1
     dd0:	b2c0      	uxtb	r0, r0
     dd2:	e7f7      	b.n	dc4 <_tc_get_inst_index+0x38>
     dd4:	2002      	movs	r0, #2
     dd6:	b2c0      	uxtb	r0, r0
     dd8:	e7f4      	b.n	dc4 <_tc_get_inst_index+0x38>
     dda:	2003      	movs	r0, #3
     ddc:	b2c0      	uxtb	r0, r0
     dde:	e7f1      	b.n	dc4 <_tc_get_inst_index+0x38>
     de0:	2004      	movs	r0, #4
     de2:	b2c0      	uxtb	r0, r0
     de4:	e7ee      	b.n	dc4 <_tc_get_inst_index+0x38>
     de6:	3005      	adds	r0, #5
     de8:	b2c0      	uxtb	r0, r0
     dea:	e7eb      	b.n	dc4 <_tc_get_inst_index+0x38>
     dec:	00003db8 	.word	0x00003db8

00000df0 <tc_init>:
     df0:	b5f0      	push	{r4, r5, r6, r7, lr}
     df2:	4656      	mov	r6, sl
     df4:	465f      	mov	r7, fp
     df6:	464d      	mov	r5, r9
     df8:	4644      	mov	r4, r8
     dfa:	b4f0      	push	{r4, r5, r6, r7}
     dfc:	b08b      	sub	sp, #44	; 0x2c
     dfe:	ac04      	add	r4, sp, #16
     e00:	1c23      	adds	r3, r4, #0
     e02:	4692      	mov	sl, r2
     e04:	4aad      	ldr	r2, [pc, #692]	; (10bc <STACK_SIZE+0xbc>)
     e06:	1c05      	adds	r5, r0, #0
     e08:	1c0f      	adds	r7, r1, #0
     e0a:	ca43      	ldmia	r2!, {r0, r1, r6}
     e0c:	c343      	stmia	r3!, {r0, r1, r6}
     e0e:	ca43      	ldmia	r2!, {r0, r1, r6}
     e10:	c343      	stmia	r3!, {r0, r1, r6}
     e12:	9b04      	ldr	r3, [sp, #16]
     e14:	429f      	cmp	r7, r3
     e16:	d100      	bne.n	e1a <tc_init+0x2a>
     e18:	e11b      	b.n	1052 <STACK_SIZE+0x52>
     e1a:	6863      	ldr	r3, [r4, #4]
     e1c:	429f      	cmp	r7, r3
     e1e:	d100      	bne.n	e22 <tc_init+0x32>
     e20:	e11c      	b.n	105c <STACK_SIZE+0x5c>
     e22:	68a3      	ldr	r3, [r4, #8]
     e24:	429f      	cmp	r7, r3
     e26:	d100      	bne.n	e2a <tc_init+0x3a>
     e28:	e11a      	b.n	1060 <STACK_SIZE+0x60>
     e2a:	68e3      	ldr	r3, [r4, #12]
     e2c:	429f      	cmp	r7, r3
     e2e:	d100      	bne.n	e32 <tc_init+0x42>
     e30:	e118      	b.n	1064 <STACK_SIZE+0x64>
     e32:	6923      	ldr	r3, [r4, #16]
     e34:	429f      	cmp	r7, r3
     e36:	d100      	bne.n	e3a <tc_init+0x4a>
     e38:	e116      	b.n	1068 <STACK_SIZE+0x68>
     e3a:	2300      	movs	r3, #0
     e3c:	4699      	mov	r9, r3
     e3e:	469b      	mov	fp, r3
     e40:	6963      	ldr	r3, [r4, #20]
     e42:	429f      	cmp	r7, r3
     e44:	d100      	bne.n	e48 <tc_init+0x58>
     e46:	e111      	b.n	106c <STACK_SIZE+0x6c>
     e48:	499c      	ldr	r1, [pc, #624]	; (10bc <STACK_SIZE+0xbc>)
     e4a:	4b9d      	ldr	r3, [pc, #628]	; (10c0 <STACK_SIZE+0xc0>)
     e4c:	3118      	adds	r1, #24
     e4e:	2206      	movs	r2, #6
     e50:	a802      	add	r0, sp, #8
     e52:	4698      	mov	r8, r3
     e54:	4798      	blx	r3
     e56:	4999      	ldr	r1, [pc, #612]	; (10bc <STACK_SIZE+0xbc>)
     e58:	220c      	movs	r2, #12
     e5a:	3120      	adds	r1, #32
     e5c:	1c20      	adds	r0, r4, #0
     e5e:	47c0      	blx	r8
     e60:	2300      	movs	r3, #0
     e62:	60ab      	str	r3, [r5, #8]
     e64:	60eb      	str	r3, [r5, #12]
     e66:	612b      	str	r3, [r5, #16]
     e68:	616b      	str	r3, [r5, #20]
     e6a:	762b      	strb	r3, [r5, #24]
     e6c:	766b      	strb	r3, [r5, #25]
     e6e:	464b      	mov	r3, r9
     e70:	4a94      	ldr	r2, [pc, #592]	; (10c4 <STACK_SIZE+0xc4>)
     e72:	009b      	lsls	r3, r3, #2
     e74:	509d      	str	r5, [r3, r2]
     e76:	4653      	mov	r3, sl
     e78:	602f      	str	r7, [r5, #0]
     e7a:	789b      	ldrb	r3, [r3, #2]
     e7c:	2b08      	cmp	r3, #8
     e7e:	d00c      	beq.n	e9a <tc_init+0xaa>
     e80:	712b      	strb	r3, [r5, #4]
     e82:	883b      	ldrh	r3, [r7, #0]
     e84:	2201      	movs	r2, #1
     e86:	2005      	movs	r0, #5
     e88:	07db      	lsls	r3, r3, #31
     e8a:	d50b      	bpl.n	ea4 <tc_init+0xb4>
     e8c:	b00b      	add	sp, #44	; 0x2c
     e8e:	bc3c      	pop	{r2, r3, r4, r5}
     e90:	4690      	mov	r8, r2
     e92:	4699      	mov	r9, r3
     e94:	46a2      	mov	sl, r4
     e96:	46ab      	mov	fp, r5
     e98:	bdf0      	pop	{r4, r5, r6, r7, pc}
     e9a:	465a      	mov	r2, fp
     e9c:	2017      	movs	r0, #23
     e9e:	07d2      	lsls	r2, r2, #31
     ea0:	d4f4      	bmi.n	e8c <tc_init+0x9c>
     ea2:	e7ed      	b.n	e80 <tc_init+0x90>
     ea4:	7bfb      	ldrb	r3, [r7, #15]
     ea6:	3017      	adds	r0, #23
     ea8:	06db      	lsls	r3, r3, #27
     eaa:	d4ef      	bmi.n	e8c <tc_init+0x9c>
     eac:	2102      	movs	r1, #2
     eae:	883b      	ldrh	r3, [r7, #0]
     eb0:	400b      	ands	r3, r1
     eb2:	d1eb      	bne.n	e8c <tc_init+0x9c>
     eb4:	4651      	mov	r1, sl
     eb6:	7c09      	ldrb	r1, [r1, #16]
     eb8:	2900      	cmp	r1, #0
     eba:	d000      	beq.n	ebe <tc_init+0xce>
     ebc:	e0ea      	b.n	1094 <STACK_SIZE+0x94>
     ebe:	4653      	mov	r3, sl
     ec0:	7f1b      	ldrb	r3, [r3, #28]
     ec2:	2b00      	cmp	r3, #0
     ec4:	d000      	beq.n	ec8 <tc_init+0xd8>
     ec6:	e0d6      	b.n	1076 <STACK_SIZE+0x76>
     ec8:	4649      	mov	r1, r9
     eca:	4a7f      	ldr	r2, [pc, #508]	; (10c8 <STACK_SIZE+0xc8>)
     ecc:	0049      	lsls	r1, r1, #1
     ece:	6a13      	ldr	r3, [r2, #32]
     ed0:	5a61      	ldrh	r1, [r4, r1]
     ed2:	430b      	orrs	r3, r1
     ed4:	6213      	str	r3, [r2, #32]
     ed6:	4653      	mov	r3, sl
     ed8:	789b      	ldrb	r3, [r3, #2]
     eda:	2b08      	cmp	r3, #8
     edc:	d100      	bne.n	ee0 <tc_init+0xf0>
     ede:	e0e5      	b.n	10ac <STACK_SIZE+0xac>
     ee0:	4653      	mov	r3, sl
     ee2:	466a      	mov	r2, sp
     ee4:	781b      	ldrb	r3, [r3, #0]
     ee6:	2108      	movs	r1, #8
     ee8:	7013      	strb	r3, [r2, #0]
     eea:	466b      	mov	r3, sp
     eec:	464a      	mov	r2, r9
     eee:	185b      	adds	r3, r3, r1
     ef0:	5c9c      	ldrb	r4, [r3, r2]
     ef2:	4669      	mov	r1, sp
     ef4:	1c20      	adds	r0, r4, #0
     ef6:	4b75      	ldr	r3, [pc, #468]	; (10cc <STACK_SIZE+0xcc>)
     ef8:	4798      	blx	r3
     efa:	1c20      	adds	r0, r4, #0
     efc:	4b74      	ldr	r3, [pc, #464]	; (10d0 <STACK_SIZE+0xd0>)
     efe:	4798      	blx	r3
     f00:	4653      	mov	r3, sl
     f02:	4652      	mov	r2, sl
     f04:	8898      	ldrh	r0, [r3, #4]
     f06:	891b      	ldrh	r3, [r3, #8]
     f08:	4303      	orrs	r3, r0
     f0a:	7990      	ldrb	r0, [r2, #6]
     f0c:	7892      	ldrb	r2, [r2, #2]
     f0e:	4310      	orrs	r0, r2
     f10:	4318      	orrs	r0, r3
     f12:	4653      	mov	r3, sl
     f14:	785b      	ldrb	r3, [r3, #1]
     f16:	2b00      	cmp	r3, #0
     f18:	d002      	beq.n	f20 <tc_init+0x130>
     f1a:	2380      	movs	r3, #128	; 0x80
     f1c:	011b      	lsls	r3, r3, #4
     f1e:	4318      	orrs	r0, r3
     f20:	227f      	movs	r2, #127	; 0x7f
     f22:	6829      	ldr	r1, [r5, #0]
     f24:	7bcb      	ldrb	r3, [r1, #15]
     f26:	4393      	bics	r3, r2
     f28:	d1fc      	bne.n	f24 <tc_init+0x134>
     f2a:	4653      	mov	r3, sl
     f2c:	8038      	strh	r0, [r7, #0]
     f2e:	7b5b      	ldrb	r3, [r3, #13]
     f30:	2b00      	cmp	r3, #0
     f32:	d100      	bne.n	f36 <tc_init+0x146>
     f34:	e09c      	b.n	1070 <STACK_SIZE+0x70>
     f36:	2005      	movs	r0, #5
     f38:	2204      	movs	r2, #4
     f3a:	4653      	mov	r3, sl
     f3c:	7b9b      	ldrb	r3, [r3, #14]
     f3e:	2b00      	cmp	r3, #0
     f40:	d100      	bne.n	f44 <tc_init+0x154>
     f42:	1c10      	adds	r0, r2, #0
     f44:	227f      	movs	r2, #127	; 0x7f
     f46:	6829      	ldr	r1, [r5, #0]
     f48:	7bcb      	ldrb	r3, [r1, #15]
     f4a:	4393      	bics	r3, r2
     f4c:	d1fc      	bne.n	f48 <tc_init+0x158>
     f4e:	33ff      	adds	r3, #255	; 0xff
     f50:	713b      	strb	r3, [r7, #4]
     f52:	2800      	cmp	r0, #0
     f54:	d005      	beq.n	f62 <tc_init+0x172>
     f56:	227f      	movs	r2, #127	; 0x7f
     f58:	6829      	ldr	r1, [r5, #0]
     f5a:	7bcb      	ldrb	r3, [r1, #15]
     f5c:	4393      	bics	r3, r2
     f5e:	d1fc      	bne.n	f5a <tc_init+0x16a>
     f60:	7178      	strb	r0, [r7, #5]
     f62:	4653      	mov	r3, sl
     f64:	7a98      	ldrb	r0, [r3, #10]
     f66:	7adb      	ldrb	r3, [r3, #11]
     f68:	2b00      	cmp	r3, #0
     f6a:	d001      	beq.n	f70 <tc_init+0x180>
     f6c:	2310      	movs	r3, #16
     f6e:	4318      	orrs	r0, r3
     f70:	4653      	mov	r3, sl
     f72:	7b1b      	ldrb	r3, [r3, #12]
     f74:	2b00      	cmp	r3, #0
     f76:	d001      	beq.n	f7c <tc_init+0x18c>
     f78:	2320      	movs	r3, #32
     f7a:	4318      	orrs	r0, r3
     f7c:	227f      	movs	r2, #127	; 0x7f
     f7e:	6829      	ldr	r1, [r5, #0]
     f80:	7bcb      	ldrb	r3, [r1, #15]
     f82:	4393      	bics	r3, r2
     f84:	d1fc      	bne.n	f80 <tc_init+0x190>
     f86:	217f      	movs	r1, #127	; 0x7f
     f88:	71b8      	strb	r0, [r7, #6]
     f8a:	682a      	ldr	r2, [r5, #0]
     f8c:	7bd3      	ldrb	r3, [r2, #15]
     f8e:	438b      	bics	r3, r1
     f90:	d1fc      	bne.n	f8c <tc_init+0x19c>
     f92:	792b      	ldrb	r3, [r5, #4]
     f94:	217f      	movs	r1, #127	; 0x7f
     f96:	2b04      	cmp	r3, #4
     f98:	d007      	beq.n	faa <tc_init+0x1ba>
     f9a:	217f      	movs	r1, #127	; 0x7f
     f9c:	2b08      	cmp	r3, #8
     f9e:	d040      	beq.n	1022 <STACK_SIZE+0x22>
     fa0:	217f      	movs	r1, #127	; 0x7f
     fa2:	2b00      	cmp	r3, #0
     fa4:	d025      	beq.n	ff2 <tc_init+0x202>
     fa6:	2017      	movs	r0, #23
     fa8:	e770      	b.n	e8c <tc_init+0x9c>
     faa:	7bd3      	ldrb	r3, [r2, #15]
     fac:	438b      	bics	r3, r1
     fae:	d1fc      	bne.n	faa <tc_init+0x1ba>
     fb0:	4652      	mov	r2, sl
     fb2:	3328      	adds	r3, #40	; 0x28
     fb4:	5cd3      	ldrb	r3, [r2, r3]
     fb6:	227f      	movs	r2, #127	; 0x7f
     fb8:	743b      	strb	r3, [r7, #16]
     fba:	6829      	ldr	r1, [r5, #0]
     fbc:	7bcb      	ldrb	r3, [r1, #15]
     fbe:	4393      	bics	r3, r2
     fc0:	d1fc      	bne.n	fbc <tc_init+0x1cc>
     fc2:	4652      	mov	r2, sl
     fc4:	3329      	adds	r3, #41	; 0x29
     fc6:	5cd3      	ldrb	r3, [r2, r3]
     fc8:	227f      	movs	r2, #127	; 0x7f
     fca:	753b      	strb	r3, [r7, #20]
     fcc:	6829      	ldr	r1, [r5, #0]
     fce:	7bcb      	ldrb	r3, [r1, #15]
     fd0:	4393      	bics	r3, r2
     fd2:	d1fc      	bne.n	fce <tc_init+0x1de>
     fd4:	4652      	mov	r2, sl
     fd6:	332a      	adds	r3, #42	; 0x2a
     fd8:	5cd3      	ldrb	r3, [r2, r3]
     fda:	227f      	movs	r2, #127	; 0x7f
     fdc:	763b      	strb	r3, [r7, #24]
     fde:	6829      	ldr	r1, [r5, #0]
     fe0:	7bcb      	ldrb	r3, [r1, #15]
     fe2:	4393      	bics	r3, r2
     fe4:	d1fc      	bne.n	fe0 <tc_init+0x1f0>
     fe6:	4652      	mov	r2, sl
     fe8:	332b      	adds	r3, #43	; 0x2b
     fea:	5cd3      	ldrb	r3, [r2, r3]
     fec:	2000      	movs	r0, #0
     fee:	767b      	strb	r3, [r7, #25]
     ff0:	e74c      	b.n	e8c <tc_init+0x9c>
     ff2:	7bd3      	ldrb	r3, [r2, #15]
     ff4:	438b      	bics	r3, r1
     ff6:	d1fc      	bne.n	ff2 <tc_init+0x202>
     ff8:	4653      	mov	r3, sl
     ffa:	227f      	movs	r2, #127	; 0x7f
     ffc:	8d1b      	ldrh	r3, [r3, #40]	; 0x28
     ffe:	823b      	strh	r3, [r7, #16]
    1000:	6829      	ldr	r1, [r5, #0]
    1002:	7bcb      	ldrb	r3, [r1, #15]
    1004:	4393      	bics	r3, r2
    1006:	d1fc      	bne.n	1002 <STACK_SIZE+0x2>
    1008:	4653      	mov	r3, sl
    100a:	227f      	movs	r2, #127	; 0x7f
    100c:	8d5b      	ldrh	r3, [r3, #42]	; 0x2a
    100e:	833b      	strh	r3, [r7, #24]
    1010:	6829      	ldr	r1, [r5, #0]
    1012:	7bcb      	ldrb	r3, [r1, #15]
    1014:	4393      	bics	r3, r2
    1016:	d1fc      	bne.n	1012 <STACK_SIZE+0x12>
    1018:	4653      	mov	r3, sl
    101a:	8d9b      	ldrh	r3, [r3, #44]	; 0x2c
    101c:	2000      	movs	r0, #0
    101e:	837b      	strh	r3, [r7, #26]
    1020:	e734      	b.n	e8c <tc_init+0x9c>
    1022:	7bd3      	ldrb	r3, [r2, #15]
    1024:	438b      	bics	r3, r1
    1026:	d1fc      	bne.n	1022 <STACK_SIZE+0x22>
    1028:	4653      	mov	r3, sl
    102a:	227f      	movs	r2, #127	; 0x7f
    102c:	6a9b      	ldr	r3, [r3, #40]	; 0x28
    102e:	613b      	str	r3, [r7, #16]
    1030:	6829      	ldr	r1, [r5, #0]
    1032:	7bcb      	ldrb	r3, [r1, #15]
    1034:	4393      	bics	r3, r2
    1036:	d1fc      	bne.n	1032 <STACK_SIZE+0x32>
    1038:	4653      	mov	r3, sl
    103a:	227f      	movs	r2, #127	; 0x7f
    103c:	6adb      	ldr	r3, [r3, #44]	; 0x2c
    103e:	61bb      	str	r3, [r7, #24]
    1040:	6829      	ldr	r1, [r5, #0]
    1042:	7bcb      	ldrb	r3, [r1, #15]
    1044:	4393      	bics	r3, r2
    1046:	d1fc      	bne.n	1042 <STACK_SIZE+0x42>
    1048:	4653      	mov	r3, sl
    104a:	6b1b      	ldr	r3, [r3, #48]	; 0x30
    104c:	2000      	movs	r0, #0
    104e:	61fb      	str	r3, [r7, #28]
    1050:	e71c      	b.n	e8c <tc_init+0x9c>
    1052:	2300      	movs	r3, #0
    1054:	b2da      	uxtb	r2, r3
    1056:	4693      	mov	fp, r2
    1058:	4699      	mov	r9, r3
    105a:	e6f5      	b.n	e48 <tc_init+0x58>
    105c:	2301      	movs	r3, #1
    105e:	e7f9      	b.n	1054 <STACK_SIZE+0x54>
    1060:	2302      	movs	r3, #2
    1062:	e7f7      	b.n	1054 <STACK_SIZE+0x54>
    1064:	2303      	movs	r3, #3
    1066:	e7f5      	b.n	1054 <STACK_SIZE+0x54>
    1068:	2304      	movs	r3, #4
    106a:	e7f3      	b.n	1054 <STACK_SIZE+0x54>
    106c:	2305      	movs	r3, #5
    106e:	e7f1      	b.n	1054 <STACK_SIZE+0x54>
    1070:	2001      	movs	r0, #1
    1072:	2200      	movs	r2, #0
    1074:	e761      	b.n	f3a <tc_init+0x14a>
    1076:	2301      	movs	r3, #1
    1078:	2200      	movs	r2, #0
    107a:	a901      	add	r1, sp, #4
    107c:	708b      	strb	r3, [r1, #2]
    107e:	704b      	strb	r3, [r1, #1]
    1080:	4653      	mov	r3, sl
    1082:	70ca      	strb	r2, [r1, #3]
    1084:	4652      	mov	r2, sl
    1086:	6a1b      	ldr	r3, [r3, #32]
    1088:	6a52      	ldr	r2, [r2, #36]	; 0x24
    108a:	b2d8      	uxtb	r0, r3
    108c:	4b11      	ldr	r3, [pc, #68]	; (10d4 <STACK_SIZE+0xd4>)
    108e:	700a      	strb	r2, [r1, #0]
    1090:	4798      	blx	r3
    1092:	e719      	b.n	ec8 <tc_init+0xd8>
    1094:	a901      	add	r1, sp, #4
    1096:	70cb      	strb	r3, [r1, #3]
    1098:	4653      	mov	r3, sl
    109a:	7e1b      	ldrb	r3, [r3, #24]
    109c:	708a      	strb	r2, [r1, #2]
    109e:	700b      	strb	r3, [r1, #0]
    10a0:	4653      	mov	r3, sl
    10a2:	7d18      	ldrb	r0, [r3, #20]
    10a4:	4b0b      	ldr	r3, [pc, #44]	; (10d4 <STACK_SIZE+0xd4>)
    10a6:	704a      	strb	r2, [r1, #1]
    10a8:	4798      	blx	r3
    10aa:	e708      	b.n	ebe <tc_init+0xce>
    10ac:	4649      	mov	r1, r9
    10ae:	3101      	adds	r1, #1
    10b0:	0049      	lsls	r1, r1, #1
    10b2:	6a13      	ldr	r3, [r2, #32]
    10b4:	5a61      	ldrh	r1, [r4, r1]
    10b6:	430b      	orrs	r3, r1
    10b8:	6213      	str	r3, [r2, #32]
    10ba:	e711      	b.n	ee0 <tc_init+0xf0>
    10bc:	00003db8 	.word	0x00003db8
    10c0:	00003d85 	.word	0x00003d85
    10c4:	200008f0 	.word	0x200008f0
    10c8:	40000400 	.word	0x40000400
    10cc:	00003239 	.word	0x00003239
    10d0:	0000329d 	.word	0x0000329d
    10d4:	000033a1 	.word	0x000033a1

000010d8 <tc_reset>:
    10d8:	6802      	ldr	r2, [r0, #0]
    10da:	2315      	movs	r3, #21
    10dc:	7bd1      	ldrb	r1, [r2, #15]
    10de:	06c9      	lsls	r1, r1, #27
    10e0:	d501      	bpl.n	10e6 <tc_reset+0xe>
    10e2:	1c18      	adds	r0, r3, #0
    10e4:	4770      	bx	lr
    10e6:	8813      	ldrh	r3, [r2, #0]
    10e8:	079b      	lsls	r3, r3, #30
    10ea:	d50c      	bpl.n	1106 <tc_reset+0x2e>
    10ec:	217f      	movs	r1, #127	; 0x7f
    10ee:	7bd3      	ldrb	r3, [r2, #15]
    10f0:	438b      	bics	r3, r1
    10f2:	d1fc      	bne.n	10ee <tc_reset+0x16>
    10f4:	2102      	movs	r1, #2
    10f6:	8813      	ldrh	r3, [r2, #0]
    10f8:	438b      	bics	r3, r1
    10fa:	8013      	strh	r3, [r2, #0]
    10fc:	6800      	ldr	r0, [r0, #0]
    10fe:	317d      	adds	r1, #125	; 0x7d
    1100:	7bc3      	ldrb	r3, [r0, #15]
    1102:	438b      	bics	r3, r1
    1104:	d1fc      	bne.n	1100 <tc_reset+0x28>
    1106:	2301      	movs	r3, #1
    1108:	8811      	ldrh	r1, [r2, #0]
    110a:	430b      	orrs	r3, r1
    110c:	8013      	strh	r3, [r2, #0]
    110e:	2300      	movs	r3, #0
    1110:	e7e7      	b.n	10e2 <tc_reset+0xa>
    1112:	46c0      	nop			; (mov r8, r8)

00001114 <wdt_set_config>:
    1114:	2310      	movs	r3, #16
    1116:	b510      	push	{r4, lr}
    1118:	4a37      	ldr	r2, [pc, #220]	; (11f8 <wdt_set_config+0xe4>)
    111a:	b082      	sub	sp, #8
    111c:	6991      	ldr	r1, [r2, #24]
    111e:	430b      	orrs	r3, r1
    1120:	4936      	ldr	r1, [pc, #216]	; (11fc <wdt_set_config+0xe8>)
    1122:	6193      	str	r3, [r2, #24]
    1124:	780b      	ldrb	r3, [r1, #0]
    1126:	2210      	movs	r2, #16
    1128:	09db      	lsrs	r3, r3, #7
    112a:	d002      	beq.n	1132 <wdt_set_config+0x1e>
    112c:	1c10      	adds	r0, r2, #0
    112e:	b002      	add	sp, #8
    1130:	bd10      	pop	{r4, pc}
    1132:	78c3      	ldrb	r3, [r0, #3]
    1134:	3207      	adds	r2, #7
    1136:	2b00      	cmp	r3, #0
    1138:	d0f8      	beq.n	112c <wdt_set_config+0x18>
    113a:	7904      	ldrb	r4, [r0, #4]
    113c:	429c      	cmp	r4, r3
    113e:	d8f5      	bhi.n	112c <wdt_set_config+0x18>
    1140:	7944      	ldrb	r4, [r0, #5]
    1142:	429c      	cmp	r4, r3
    1144:	d8f2      	bhi.n	112c <wdt_set_config+0x18>
    1146:	780b      	ldrb	r3, [r1, #0]
    1148:	3a15      	subs	r2, #21
    114a:	4393      	bics	r3, r2
    114c:	700b      	strb	r3, [r1, #0]
    114e:	79cb      	ldrb	r3, [r1, #7]
    1150:	b25b      	sxtb	r3, r3
    1152:	2b00      	cmp	r3, #0
    1154:	dbfb      	blt.n	114e <wdt_set_config+0x3a>
    1156:	7843      	ldrb	r3, [r0, #1]
    1158:	2b00      	cmp	r3, #0
    115a:	d101      	bne.n	1160 <wdt_set_config+0x4c>
    115c:	2200      	movs	r2, #0
    115e:	e7e5      	b.n	112c <wdt_set_config+0x18>
    1160:	1c04      	adds	r4, r0, #0
    1162:	7883      	ldrb	r3, [r0, #2]
    1164:	a901      	add	r1, sp, #4
    1166:	700b      	strb	r3, [r1, #0]
    1168:	2001      	movs	r0, #1
    116a:	4b25      	ldr	r3, [pc, #148]	; (1200 <wdt_set_config+0xec>)
    116c:	4798      	blx	r3
    116e:	4b25      	ldr	r3, [pc, #148]	; (1204 <wdt_set_config+0xf0>)
    1170:	2001      	movs	r0, #1
    1172:	4798      	blx	r3
    1174:	7823      	ldrb	r3, [r4, #0]
    1176:	2b00      	cmp	r3, #0
    1178:	d002      	beq.n	1180 <wdt_set_config+0x6c>
    117a:	2001      	movs	r0, #1
    117c:	4b22      	ldr	r3, [pc, #136]	; (1208 <wdt_set_config+0xf4>)
    117e:	4798      	blx	r3
    1180:	78e3      	ldrb	r3, [r4, #3]
    1182:	7922      	ldrb	r2, [r4, #4]
    1184:	3b01      	subs	r3, #1
    1186:	491d      	ldr	r1, [pc, #116]	; (11fc <wdt_set_config+0xe8>)
    1188:	2a00      	cmp	r2, #0
    118a:	d02f      	beq.n	11ec <wdt_set_config+0xd8>
    118c:	2004      	movs	r0, #4
    118e:	780a      	ldrb	r2, [r1, #0]
    1190:	4302      	orrs	r2, r0
    1192:	700a      	strb	r2, [r1, #0]
    1194:	7922      	ldrb	r2, [r4, #4]
    1196:	3a01      	subs	r2, #1
    1198:	4082      	lsls	r2, r0
    119a:	4313      	orrs	r3, r2
    119c:	4817      	ldr	r0, [pc, #92]	; (11fc <wdt_set_config+0xe8>)
    119e:	79c1      	ldrb	r1, [r0, #7]
    11a0:	4a16      	ldr	r2, [pc, #88]	; (11fc <wdt_set_config+0xe8>)
    11a2:	b249      	sxtb	r1, r1
    11a4:	2900      	cmp	r1, #0
    11a6:	dbfa      	blt.n	119e <wdt_set_config+0x8a>
    11a8:	b2db      	uxtb	r3, r3
    11aa:	7053      	strb	r3, [r2, #1]
    11ac:	7963      	ldrb	r3, [r4, #5]
    11ae:	2b00      	cmp	r3, #0
    11b0:	d113      	bne.n	11da <wdt_set_config+0xc6>
    11b2:	7823      	ldrb	r3, [r4, #0]
    11b4:	4a11      	ldr	r2, [pc, #68]	; (11fc <wdt_set_config+0xe8>)
    11b6:	2b00      	cmp	r3, #0
    11b8:	d00a      	beq.n	11d0 <wdt_set_config+0xbc>
    11ba:	2380      	movs	r3, #128	; 0x80
    11bc:	7811      	ldrb	r1, [r2, #0]
    11be:	430b      	orrs	r3, r1
    11c0:	7013      	strb	r3, [r2, #0]
    11c2:	4a0e      	ldr	r2, [pc, #56]	; (11fc <wdt_set_config+0xe8>)
    11c4:	79d3      	ldrb	r3, [r2, #7]
    11c6:	b25b      	sxtb	r3, r3
    11c8:	2b00      	cmp	r3, #0
    11ca:	dbfb      	blt.n	11c4 <wdt_set_config+0xb0>
    11cc:	2200      	movs	r2, #0
    11ce:	e7ad      	b.n	112c <wdt_set_config+0x18>
    11d0:	2102      	movs	r1, #2
    11d2:	7813      	ldrb	r3, [r2, #0]
    11d4:	430b      	orrs	r3, r1
    11d6:	7013      	strb	r3, [r2, #0]
    11d8:	e7f3      	b.n	11c2 <wdt_set_config+0xae>
    11da:	79d1      	ldrb	r1, [r2, #7]
    11dc:	b249      	sxtb	r1, r1
    11de:	2900      	cmp	r1, #0
    11e0:	dbfb      	blt.n	11da <wdt_set_config+0xc6>
    11e2:	3b01      	subs	r3, #1
    11e4:	4a05      	ldr	r2, [pc, #20]	; (11fc <wdt_set_config+0xe8>)
    11e6:	b2db      	uxtb	r3, r3
    11e8:	7093      	strb	r3, [r2, #2]
    11ea:	e7e2      	b.n	11b2 <wdt_set_config+0x9e>
    11ec:	2004      	movs	r0, #4
    11ee:	780a      	ldrb	r2, [r1, #0]
    11f0:	4382      	bics	r2, r0
    11f2:	700a      	strb	r2, [r1, #0]
    11f4:	e7d2      	b.n	119c <wdt_set_config+0x88>
    11f6:	46c0      	nop			; (mov r8, r8)
    11f8:	40000400 	.word	0x40000400
    11fc:	40001000 	.word	0x40001000
    1200:	00003239 	.word	0x00003239
    1204:	0000329d 	.word	0x0000329d
    1208:	000032cd 	.word	0x000032cd

0000120c <wdt_reset_count>:
    120c:	23a5      	movs	r3, #165	; 0xa5
    120e:	4a03      	ldr	r2, [pc, #12]	; (121c <wdt_reset_count+0x10>)
    1210:	7213      	strb	r3, [r2, #8]
    1212:	79d3      	ldrb	r3, [r2, #7]
    1214:	b25b      	sxtb	r3, r3
    1216:	2b00      	cmp	r3, #0
    1218:	dbfb      	blt.n	1212 <wdt_reset_count+0x6>
    121a:	4770      	bx	lr
    121c:	40001000 	.word	0x40001000

00001220 <Init125khz>:
    1220:	b510      	push	{r4, lr}
    1222:	4c18      	ldr	r4, [pc, #96]	; (1284 <Init125khz+0x64>)
    1224:	b08e      	sub	sp, #56	; 0x38
    1226:	4b18      	ldr	r3, [pc, #96]	; (1288 <Init125khz+0x68>)
    1228:	1c20      	adds	r0, r4, #0
    122a:	4798      	blx	r3
    122c:	2300      	movs	r3, #0
    122e:	2100      	movs	r1, #0
    1230:	aa01      	add	r2, sp, #4
    1232:	7013      	strb	r3, [r2, #0]
    1234:	7093      	strb	r3, [r2, #2]
    1236:	8093      	strh	r3, [r2, #4]
    1238:	8113      	strh	r3, [r2, #8]
    123a:	6213      	str	r3, [r2, #32]
    123c:	6253      	str	r3, [r2, #36]	; 0x24
    123e:	8513      	strh	r3, [r2, #40]	; 0x28
    1240:	8593      	strh	r3, [r2, #44]	; 0x2c
    1242:	3320      	adds	r3, #32
    1244:	7193      	strb	r3, [r2, #6]
    1246:	339f      	adds	r3, #159	; 0x9f
    1248:	8553      	strh	r3, [r2, #42]	; 0x2a
    124a:	3bbe      	subs	r3, #190	; 0xbe
    124c:	7413      	strb	r3, [r2, #16]
    124e:	3306      	adds	r3, #6
    1250:	6153      	str	r3, [r2, #20]
    1252:	3b02      	subs	r3, #2
    1254:	7051      	strb	r1, [r2, #1]
    1256:	7291      	strb	r1, [r2, #10]
    1258:	72d1      	strb	r1, [r2, #11]
    125a:	7311      	strb	r1, [r2, #12]
    125c:	7391      	strb	r1, [r2, #14]
    125e:	7351      	strb	r1, [r2, #13]
    1260:	7711      	strb	r1, [r2, #28]
    1262:	6193      	str	r3, [r2, #24]
    1264:	4909      	ldr	r1, [pc, #36]	; (128c <Init125khz+0x6c>)
    1266:	1c20      	adds	r0, r4, #0
    1268:	4b09      	ldr	r3, [pc, #36]	; (1290 <Init125khz+0x70>)
    126a:	4798      	blx	r3
    126c:	217f      	movs	r1, #127	; 0x7f
    126e:	6822      	ldr	r2, [r4, #0]
    1270:	7bd3      	ldrb	r3, [r2, #15]
    1272:	438b      	bics	r3, r1
    1274:	d1fc      	bne.n	1270 <Init125khz+0x50>
    1276:	8811      	ldrh	r1, [r2, #0]
    1278:	3302      	adds	r3, #2
    127a:	430b      	orrs	r3, r1
    127c:	8013      	strh	r3, [r2, #0]
    127e:	b00e      	add	sp, #56	; 0x38
    1280:	bd10      	pop	{r4, pc}
    1282:	46c0      	nop			; (mov r8, r8)
    1284:	2000090c 	.word	0x2000090c
    1288:	000010d9 	.word	0x000010d9
    128c:	42002400 	.word	0x42002400
    1290:	00000df1 	.word	0x00000df1

00001294 <buzz>:
    1294:	217f      	movs	r1, #127	; 0x7f
    1296:	b510      	push	{r4, lr}
    1298:	4c0a      	ldr	r4, [pc, #40]	; (12c4 <buzz+0x30>)
    129a:	6822      	ldr	r2, [r4, #0]
    129c:	7bd3      	ldrb	r3, [r2, #15]
    129e:	438b      	bics	r3, r1
    12a0:	d1fc      	bne.n	129c <buzz+0x8>
    12a2:	8811      	ldrh	r1, [r2, #0]
    12a4:	3302      	adds	r3, #2
    12a6:	430b      	orrs	r3, r1
    12a8:	8013      	strh	r3, [r2, #0]
    12aa:	4b07      	ldr	r3, [pc, #28]	; (12c8 <buzz+0x34>)
    12ac:	4798      	blx	r3
    12ae:	217f      	movs	r1, #127	; 0x7f
    12b0:	6822      	ldr	r2, [r4, #0]
    12b2:	7bd3      	ldrb	r3, [r2, #15]
    12b4:	438b      	bics	r3, r1
    12b6:	d1fc      	bne.n	12b2 <buzz+0x1e>
    12b8:	2102      	movs	r1, #2
    12ba:	8813      	ldrh	r3, [r2, #0]
    12bc:	438b      	bics	r3, r1
    12be:	8013      	strh	r3, [r2, #0]
    12c0:	bd10      	pop	{r4, pc}
    12c2:	46c0      	nop			; (mov r8, r8)
    12c4:	20000928 	.word	0x20000928
    12c8:	0000036d 	.word	0x0000036d

000012cc <led_idle>:
    12cc:	2208      	movs	r2, #8
    12ce:	4b02      	ldr	r3, [pc, #8]	; (12d8 <led_idle+0xc>)
    12d0:	619a      	str	r2, [r3, #24]
    12d2:	3a04      	subs	r2, #4
    12d4:	615a      	str	r2, [r3, #20]
    12d6:	4770      	bx	lr
    12d8:	41004400 	.word	0x41004400

000012dc <led_green>:
    12dc:	2208      	movs	r2, #8
    12de:	4b02      	ldr	r3, [pc, #8]	; (12e8 <led_green+0xc>)
    12e0:	615a      	str	r2, [r3, #20]
    12e2:	3a04      	subs	r2, #4
    12e4:	619a      	str	r2, [r3, #24]
    12e6:	4770      	bx	lr
    12e8:	41004400 	.word	0x41004400

000012ec <user_init>:
    12ec:	b5f0      	push	{r4, r5, r6, r7, lr}
    12ee:	4657      	mov	r7, sl
    12f0:	464e      	mov	r6, r9
    12f2:	4645      	mov	r5, r8
    12f4:	b4e0      	push	{r5, r6, r7}
    12f6:	4bbe      	ldr	r3, [pc, #760]	; (15f0 <user_init+0x304>)
    12f8:	b08e      	sub	sp, #56	; 0x38
    12fa:	4798      	blx	r3
    12fc:	4ebd      	ldr	r6, [pc, #756]	; (15f4 <user_init+0x308>)
    12fe:	47b0      	blx	r6
    1300:	2301      	movs	r3, #1
    1302:	ac01      	add	r4, sp, #4
    1304:	4698      	mov	r8, r3
    1306:	7063      	strb	r3, [r4, #1]
    1308:	2302      	movs	r3, #2
    130a:	4699      	mov	r9, r3
    130c:	70a3      	strb	r3, [r4, #2]
    130e:	230b      	movs	r3, #11
    1310:	2700      	movs	r7, #0
    1312:	70e3      	strb	r3, [r4, #3]
    1314:	1c20      	adds	r0, r4, #0
    1316:	4bb8      	ldr	r3, [pc, #736]	; (15f8 <user_init+0x30c>)
    1318:	7027      	strb	r7, [r4, #0]
    131a:	7127      	strb	r7, [r4, #4]
    131c:	7167      	strb	r7, [r4, #5]
    131e:	4798      	blx	r3
    1320:	47b0      	blx	r6
    1322:	4642      	mov	r2, r8
    1324:	2502      	movs	r5, #2
    1326:	4648      	mov	r0, r9
    1328:	4bb4      	ldr	r3, [pc, #720]	; (15fc <user_init+0x310>)
    132a:	605a      	str	r2, [r3, #4]
    132c:	323f      	adds	r2, #63	; 0x3f
    132e:	5c99      	ldrb	r1, [r3, r2]
    1330:	4329      	orrs	r1, r5
    1332:	b2c9      	uxtb	r1, r1
    1334:	5499      	strb	r1, [r3, r2]
    1336:	49b2      	ldr	r1, [pc, #712]	; (1600 <user_init+0x314>)
    1338:	6299      	str	r1, [r3, #40]	; 0x28
    133a:	49b2      	ldr	r1, [pc, #712]	; (1604 <user_init+0x318>)
    133c:	6299      	str	r1, [r3, #40]	; 0x28
    133e:	6058      	str	r0, [r3, #4]
    1340:	5c98      	ldrb	r0, [r3, r2]
    1342:	4328      	orrs	r0, r5
    1344:	b2c0      	uxtb	r0, r0
    1346:	5498      	strb	r0, [r3, r2]
    1348:	48af      	ldr	r0, [pc, #700]	; (1608 <user_init+0x31c>)
    134a:	6298      	str	r0, [r3, #40]	; 0x28
    134c:	2004      	movs	r0, #4
    134e:	6299      	str	r1, [r3, #40]	; 0x28
    1350:	6098      	str	r0, [r3, #8]
    1352:	5c98      	ldrb	r0, [r3, r2]
    1354:	4328      	orrs	r0, r5
    1356:	b2c0      	uxtb	r0, r0
    1358:	5498      	strb	r0, [r3, r2]
    135a:	2008      	movs	r0, #8
    135c:	6098      	str	r0, [r3, #8]
    135e:	5c98      	ldrb	r0, [r3, r2]
    1360:	4328      	orrs	r0, r5
    1362:	b2c0      	uxtb	r0, r0
    1364:	5498      	strb	r0, [r3, r2]
    1366:	2010      	movs	r0, #16
    1368:	6058      	str	r0, [r3, #4]
    136a:	5c98      	ldrb	r0, [r3, r2]
    136c:	4328      	orrs	r0, r5
    136e:	b2c0      	uxtb	r0, r0
    1370:	5498      	strb	r0, [r3, r2]
    1372:	48a6      	ldr	r0, [pc, #664]	; (160c <user_init+0x320>)
    1374:	6298      	str	r0, [r3, #40]	; 0x28
    1376:	2020      	movs	r0, #32
    1378:	6299      	str	r1, [r3, #40]	; 0x28
    137a:	6058      	str	r0, [r3, #4]
    137c:	4681      	mov	r9, r0
    137e:	5c98      	ldrb	r0, [r3, r2]
    1380:	4328      	orrs	r0, r5
    1382:	b2c0      	uxtb	r0, r0
    1384:	5498      	strb	r0, [r3, r2]
    1386:	48a2      	ldr	r0, [pc, #648]	; (1610 <user_init+0x324>)
    1388:	6298      	str	r0, [r3, #40]	; 0x28
    138a:	2080      	movs	r0, #128	; 0x80
    138c:	6299      	str	r1, [r3, #40]	; 0x28
    138e:	6098      	str	r0, [r3, #8]
    1390:	5c98      	ldrb	r0, [r3, r2]
    1392:	4328      	orrs	r0, r5
    1394:	b2c0      	uxtb	r0, r0
    1396:	5498      	strb	r0, [r3, r2]
    1398:	2080      	movs	r0, #128	; 0x80
    139a:	0040      	lsls	r0, r0, #1
    139c:	6098      	str	r0, [r3, #8]
    139e:	5c98      	ldrb	r0, [r3, r2]
    13a0:	4328      	orrs	r0, r5
    13a2:	b2c0      	uxtb	r0, r0
    13a4:	5498      	strb	r0, [r3, r2]
    13a6:	2080      	movs	r0, #128	; 0x80
    13a8:	0080      	lsls	r0, r0, #2
    13aa:	6098      	str	r0, [r3, #8]
    13ac:	5c98      	ldrb	r0, [r3, r2]
    13ae:	4328      	orrs	r0, r5
    13b0:	b2c0      	uxtb	r0, r0
    13b2:	5498      	strb	r0, [r3, r2]
    13b4:	2080      	movs	r0, #128	; 0x80
    13b6:	00c0      	lsls	r0, r0, #3
    13b8:	6098      	str	r0, [r3, #8]
    13ba:	5c98      	ldrb	r0, [r3, r2]
    13bc:	4328      	orrs	r0, r5
    13be:	b2c0      	uxtb	r0, r0
    13c0:	5498      	strb	r0, [r3, r2]
    13c2:	2080      	movs	r0, #128	; 0x80
    13c4:	0100      	lsls	r0, r0, #4
    13c6:	6058      	str	r0, [r3, #4]
    13c8:	5c98      	ldrb	r0, [r3, r2]
    13ca:	4328      	orrs	r0, r5
    13cc:	b2c0      	uxtb	r0, r0
    13ce:	5498      	strb	r0, [r3, r2]
    13d0:	4890      	ldr	r0, [pc, #576]	; (1614 <user_init+0x328>)
    13d2:	6298      	str	r0, [r3, #40]	; 0x28
    13d4:	6299      	str	r1, [r3, #40]	; 0x28
    13d6:	2180      	movs	r1, #128	; 0x80
    13d8:	0289      	lsls	r1, r1, #10
    13da:	6059      	str	r1, [r3, #4]
    13dc:	5c99      	ldrb	r1, [r3, r2]
    13de:	488e      	ldr	r0, [pc, #568]	; (1618 <user_init+0x32c>)
    13e0:	4329      	orrs	r1, r5
    13e2:	b2c9      	uxtb	r1, r1
    13e4:	5499      	strb	r1, [r3, r2]
    13e6:	498d      	ldr	r1, [pc, #564]	; (161c <user_init+0x330>)
    13e8:	6298      	str	r0, [r3, #40]	; 0x28
    13ea:	6299      	str	r1, [r3, #40]	; 0x28
    13ec:	2180      	movs	r1, #128	; 0x80
    13ee:	0249      	lsls	r1, r1, #9
    13f0:	6099      	str	r1, [r3, #8]
    13f2:	5c99      	ldrb	r1, [r3, r2]
    13f4:	4329      	orrs	r1, r5
    13f6:	b2c9      	uxtb	r1, r1
    13f8:	5499      	strb	r1, [r3, r2]
    13fa:	2180      	movs	r1, #128	; 0x80
    13fc:	0409      	lsls	r1, r1, #16
    13fe:	6099      	str	r1, [r3, #8]
    1400:	5c99      	ldrb	r1, [r3, r2]
    1402:	4329      	orrs	r1, r5
    1404:	b2c9      	uxtb	r1, r1
    1406:	5499      	strb	r1, [r3, r2]
    1408:	2180      	movs	r1, #128	; 0x80
    140a:	03c9      	lsls	r1, r1, #15
    140c:	6059      	str	r1, [r3, #4]
    140e:	5c99      	ldrb	r1, [r3, r2]
    1410:	4329      	orrs	r1, r5
    1412:	b2c9      	uxtb	r1, r1
    1414:	5499      	strb	r1, [r3, r2]
    1416:	4982      	ldr	r1, [pc, #520]	; (1620 <user_init+0x334>)
    1418:	6298      	str	r0, [r3, #40]	; 0x28
    141a:	6299      	str	r1, [r3, #40]	; 0x28
    141c:	2180      	movs	r1, #128	; 0x80
    141e:	0489      	lsls	r1, r1, #18
    1420:	6059      	str	r1, [r3, #4]
    1422:	5c99      	ldrb	r1, [r3, r2]
    1424:	430d      	orrs	r5, r1
    1426:	b2ed      	uxtb	r5, r5
    1428:	549d      	strb	r5, [r3, r2]
    142a:	4a7e      	ldr	r2, [pc, #504]	; (1624 <user_init+0x338>)
    142c:	6298      	str	r0, [r3, #40]	; 0x28
    142e:	629a      	str	r2, [r3, #40]	; 0x28
    1430:	47b0      	blx	r6
    1432:	4b7d      	ldr	r3, [pc, #500]	; (1628 <user_init+0x33c>)
    1434:	2500      	movs	r5, #0
    1436:	469a      	mov	sl, r3
    1438:	1c18      	adds	r0, r3, #0
    143a:	4b7c      	ldr	r3, [pc, #496]	; (162c <user_init+0x340>)
    143c:	4798      	blx	r3
    143e:	464b      	mov	r3, r9
    1440:	71a3      	strb	r3, [r4, #6]
    1442:	4b7b      	ldr	r3, [pc, #492]	; (1630 <user_init+0x344>)
    1444:	1c22      	adds	r2, r4, #0
    1446:	8563      	strh	r3, [r4, #42]	; 0x2a
    1448:	4643      	mov	r3, r8
    144a:	7723      	strb	r3, [r4, #28]
    144c:	2319      	movs	r3, #25
    144e:	6223      	str	r3, [r4, #32]
    1450:	3b14      	subs	r3, #20
    1452:	7425      	strb	r5, [r4, #16]
    1454:	6263      	str	r3, [r4, #36]	; 0x24
    1456:	4977      	ldr	r1, [pc, #476]	; (1634 <user_init+0x348>)
    1458:	4b77      	ldr	r3, [pc, #476]	; (1638 <user_init+0x34c>)
    145a:	6167      	str	r7, [r4, #20]
    145c:	61a7      	str	r7, [r4, #24]
    145e:	4650      	mov	r0, sl
    1460:	7065      	strb	r5, [r4, #1]
    1462:	72a5      	strb	r5, [r4, #10]
    1464:	72e5      	strb	r5, [r4, #11]
    1466:	7325      	strb	r5, [r4, #12]
    1468:	73a5      	strb	r5, [r4, #14]
    146a:	7365      	strb	r5, [r4, #13]
    146c:	7027      	strb	r7, [r4, #0]
    146e:	70a7      	strb	r7, [r4, #2]
    1470:	80a7      	strh	r7, [r4, #4]
    1472:	8127      	strh	r7, [r4, #8]
    1474:	8527      	strh	r7, [r4, #40]	; 0x28
    1476:	85a7      	strh	r7, [r4, #44]	; 0x2c
    1478:	4798      	blx	r3
    147a:	47b0      	blx	r6
    147c:	4b6f      	ldr	r3, [pc, #444]	; (163c <user_init+0x350>)
    147e:	7025      	strb	r5, [r4, #0]
    1480:	685b      	ldr	r3, [r3, #4]
    1482:	1c20      	adds	r0, r4, #0
    1484:	06db      	lsls	r3, r3, #27
    1486:	0f1b      	lsrs	r3, r3, #28
    1488:	70a3      	strb	r3, [r4, #2]
    148a:	4b6d      	ldr	r3, [pc, #436]	; (1640 <user_init+0x354>)
    148c:	70e5      	strb	r5, [r4, #3]
    148e:	7125      	strb	r5, [r4, #4]
    1490:	7065      	strb	r5, [r4, #1]
    1492:	4798      	blx	r3
    1494:	4c6b      	ldr	r4, [pc, #428]	; (1644 <user_init+0x358>)
    1496:	4d6c      	ldr	r5, [pc, #432]	; (1648 <user_init+0x35c>)
    1498:	20fc      	movs	r0, #252	; 0xfc
    149a:	1c21      	adds	r1, r4, #0
    149c:	0180      	lsls	r0, r0, #6
    149e:	2240      	movs	r2, #64	; 0x40
    14a0:	47a8      	blx	r5
    14a2:	2805      	cmp	r0, #5
    14a4:	d0f8      	beq.n	1498 <user_init+0x1ac>
    14a6:	47b0      	blx	r6
    14a8:	7863      	ldrb	r3, [r4, #1]
    14aa:	2bff      	cmp	r3, #255	; 0xff
    14ac:	d04d      	beq.n	154a <user_init+0x25e>
    14ae:	78a3      	ldrb	r3, [r4, #2]
    14b0:	22f7      	movs	r2, #247	; 0xf7
    14b2:	3b1a      	subs	r3, #26
    14b4:	4213      	tst	r3, r2
    14b6:	d025      	beq.n	1504 <user_init+0x218>
    14b8:	20fc      	movs	r0, #252	; 0xfc
    14ba:	1c21      	adds	r1, r4, #0
    14bc:	0180      	lsls	r0, r0, #6
    14be:	2240      	movs	r2, #64	; 0x40
    14c0:	47a8      	blx	r5
    14c2:	2805      	cmp	r0, #5
    14c4:	d0f8      	beq.n	14b8 <user_init+0x1cc>
    14c6:	47b0      	blx	r6
    14c8:	7823      	ldrb	r3, [r4, #0]
    14ca:	2b4d      	cmp	r3, #77	; 0x4d
    14cc:	d021      	beq.n	1512 <user_init+0x226>
    14ce:	20fc      	movs	r0, #252	; 0xfc
    14d0:	1c21      	adds	r1, r4, #0
    14d2:	0180      	lsls	r0, r0, #6
    14d4:	2240      	movs	r2, #64	; 0x40
    14d6:	47a8      	blx	r5
    14d8:	2805      	cmp	r0, #5
    14da:	d0f8      	beq.n	14ce <user_init+0x1e2>
    14dc:	47b0      	blx	r6
    14de:	231a      	movs	r3, #26
    14e0:	70a3      	strb	r3, [r4, #2]
    14e2:	4b5a      	ldr	r3, [pc, #360]	; (164c <user_init+0x360>)
    14e4:	4698      	mov	r8, r3
    14e6:	20fc      	movs	r0, #252	; 0xfc
    14e8:	0180      	lsls	r0, r0, #6
    14ea:	47c0      	blx	r8
    14ec:	2805      	cmp	r0, #5
    14ee:	d0fa      	beq.n	14e6 <user_init+0x1fa>
    14f0:	47b0      	blx	r6
    14f2:	4f57      	ldr	r7, [pc, #348]	; (1650 <user_init+0x364>)
    14f4:	20fc      	movs	r0, #252	; 0xfc
    14f6:	1c21      	adds	r1, r4, #0
    14f8:	0180      	lsls	r0, r0, #6
    14fa:	2240      	movs	r2, #64	; 0x40
    14fc:	47b8      	blx	r7
    14fe:	2805      	cmp	r0, #5
    1500:	d0f8      	beq.n	14f4 <user_init+0x208>
    1502:	47b0      	blx	r6
    1504:	47b0      	blx	r6
    1506:	b00e      	add	sp, #56	; 0x38
    1508:	bc1c      	pop	{r2, r3, r4}
    150a:	4690      	mov	r8, r2
    150c:	4699      	mov	r9, r3
    150e:	46a2      	mov	sl, r4
    1510:	bdf0      	pop	{r4, r5, r6, r7, pc}
    1512:	20fc      	movs	r0, #252	; 0xfc
    1514:	1c21      	adds	r1, r4, #0
    1516:	0180      	lsls	r0, r0, #6
    1518:	2240      	movs	r2, #64	; 0x40
    151a:	47a8      	blx	r5
    151c:	2805      	cmp	r0, #5
    151e:	d0f8      	beq.n	1512 <user_init+0x226>
    1520:	47b0      	blx	r6
    1522:	2322      	movs	r3, #34	; 0x22
    1524:	70a3      	strb	r3, [r4, #2]
    1526:	4b49      	ldr	r3, [pc, #292]	; (164c <user_init+0x360>)
    1528:	4698      	mov	r8, r3
    152a:	20fc      	movs	r0, #252	; 0xfc
    152c:	0180      	lsls	r0, r0, #6
    152e:	47c0      	blx	r8
    1530:	2805      	cmp	r0, #5
    1532:	d0fa      	beq.n	152a <user_init+0x23e>
    1534:	47b0      	blx	r6
    1536:	4f46      	ldr	r7, [pc, #280]	; (1650 <user_init+0x364>)
    1538:	20fc      	movs	r0, #252	; 0xfc
    153a:	1c21      	adds	r1, r4, #0
    153c:	0180      	lsls	r0, r0, #6
    153e:	2240      	movs	r2, #64	; 0x40
    1540:	47b8      	blx	r7
    1542:	2805      	cmp	r0, #5
    1544:	d0f8      	beq.n	1538 <user_init+0x24c>
    1546:	47b0      	blx	r6
    1548:	e7dc      	b.n	1504 <user_init+0x218>
    154a:	7823      	ldrb	r3, [r4, #0]
    154c:	2bff      	cmp	r3, #255	; 0xff
    154e:	d1ae      	bne.n	14ae <user_init+0x1c2>
    1550:	78a3      	ldrb	r3, [r4, #2]
    1552:	2bff      	cmp	r3, #255	; 0xff
    1554:	d1ac      	bne.n	14b0 <user_init+0x1c4>
    1556:	20fc      	movs	r0, #252	; 0xfc
    1558:	1c21      	adds	r1, r4, #0
    155a:	0180      	lsls	r0, r0, #6
    155c:	2240      	movs	r2, #64	; 0x40
    155e:	47a8      	blx	r5
    1560:	2805      	cmp	r0, #5
    1562:	d0f8      	beq.n	1556 <user_init+0x26a>
    1564:	47b0      	blx	r6
    1566:	2357      	movs	r3, #87	; 0x57
    1568:	7063      	strb	r3, [r4, #1]
    156a:	4b38      	ldr	r3, [pc, #224]	; (164c <user_init+0x360>)
    156c:	4698      	mov	r8, r3
    156e:	20fc      	movs	r0, #252	; 0xfc
    1570:	0180      	lsls	r0, r0, #6
    1572:	47c0      	blx	r8
    1574:	2805      	cmp	r0, #5
    1576:	d0fa      	beq.n	156e <user_init+0x282>
    1578:	47b0      	blx	r6
    157a:	4f35      	ldr	r7, [pc, #212]	; (1650 <user_init+0x364>)
    157c:	20fc      	movs	r0, #252	; 0xfc
    157e:	1c21      	adds	r1, r4, #0
    1580:	0180      	lsls	r0, r0, #6
    1582:	2240      	movs	r2, #64	; 0x40
    1584:	47b8      	blx	r7
    1586:	2805      	cmp	r0, #5
    1588:	d0f8      	beq.n	157c <user_init+0x290>
    158a:	47b0      	blx	r6
    158c:	20fc      	movs	r0, #252	; 0xfc
    158e:	1c21      	adds	r1, r4, #0
    1590:	0180      	lsls	r0, r0, #6
    1592:	2240      	movs	r2, #64	; 0x40
    1594:	47a8      	blx	r5
    1596:	2805      	cmp	r0, #5
    1598:	d0f8      	beq.n	158c <user_init+0x2a0>
    159a:	47b0      	blx	r6
    159c:	2341      	movs	r3, #65	; 0x41
    159e:	7023      	strb	r3, [r4, #0]
    15a0:	20fc      	movs	r0, #252	; 0xfc
    15a2:	0180      	lsls	r0, r0, #6
    15a4:	47c0      	blx	r8
    15a6:	2805      	cmp	r0, #5
    15a8:	d0fa      	beq.n	15a0 <user_init+0x2b4>
    15aa:	47b0      	blx	r6
    15ac:	20fc      	movs	r0, #252	; 0xfc
    15ae:	1c21      	adds	r1, r4, #0
    15b0:	0180      	lsls	r0, r0, #6
    15b2:	2240      	movs	r2, #64	; 0x40
    15b4:	47b8      	blx	r7
    15b6:	2805      	cmp	r0, #5
    15b8:	d0f8      	beq.n	15ac <user_init+0x2c0>
    15ba:	47b0      	blx	r6
    15bc:	20fc      	movs	r0, #252	; 0xfc
    15be:	1c21      	adds	r1, r4, #0
    15c0:	0180      	lsls	r0, r0, #6
    15c2:	2240      	movs	r2, #64	; 0x40
    15c4:	47a8      	blx	r5
    15c6:	2805      	cmp	r0, #5
    15c8:	d0f8      	beq.n	15bc <user_init+0x2d0>
    15ca:	47b0      	blx	r6
    15cc:	231a      	movs	r3, #26
    15ce:	70a3      	strb	r3, [r4, #2]
    15d0:	20fc      	movs	r0, #252	; 0xfc
    15d2:	0180      	lsls	r0, r0, #6
    15d4:	47c0      	blx	r8
    15d6:	2805      	cmp	r0, #5
    15d8:	d0fa      	beq.n	15d0 <user_init+0x2e4>
    15da:	47b0      	blx	r6
    15dc:	20fc      	movs	r0, #252	; 0xfc
    15de:	1c21      	adds	r1, r4, #0
    15e0:	0180      	lsls	r0, r0, #6
    15e2:	2240      	movs	r2, #64	; 0x40
    15e4:	47b8      	blx	r7
    15e6:	2805      	cmp	r0, #5
    15e8:	d0f8      	beq.n	15dc <user_init+0x2f0>
    15ea:	47b0      	blx	r6
    15ec:	e75f      	b.n	14ae <user_init+0x1c2>
    15ee:	46c0      	nop			; (mov r8, r8)
    15f0:	00000301 	.word	0x00000301
    15f4:	0000120d 	.word	0x0000120d
    15f8:	00001115 	.word	0x00001115
    15fc:	41004400 	.word	0x41004400
    1600:	50020001 	.word	0x50020001
    1604:	d0020000 	.word	0xd0020000
    1608:	50020002 	.word	0x50020002
    160c:	50020010 	.word	0x50020010
    1610:	50020020 	.word	0x50020020
    1614:	50020800 	.word	0x50020800
    1618:	50020000 	.word	0x50020000
    161c:	d0020002 	.word	0xd0020002
    1620:	d0020040 	.word	0xd0020040
    1624:	d0020200 	.word	0xd0020200
    1628:	20000928 	.word	0x20000928
    162c:	000010d9 	.word	0x000010d9
    1630:	0000176f 	.word	0x0000176f
    1634:	42003400 	.word	0x42003400
    1638:	00000df1 	.word	0x00000df1
    163c:	41004000 	.word	0x41004000
    1640:	00000901 	.word	0x00000901
    1644:	20000048 	.word	0x20000048
    1648:	00000a65 	.word	0x00000a65
    164c:	00000acd 	.word	0x00000acd
    1650:	00000981 	.word	0x00000981

00001654 <avaliar_modo_leitor>:
    1654:	b5f8      	push	{r3, r4, r5, r6, r7, lr}
    1656:	2301      	movs	r3, #1
    1658:	464f      	mov	r7, r9
    165a:	4646      	mov	r6, r8
    165c:	4698      	mov	r8, r3
    165e:	33ff      	adds	r3, #255	; 0xff
    1660:	b4c0      	push	{r6, r7}
    1662:	2400      	movs	r4, #0
    1664:	4e35      	ldr	r6, [pc, #212]	; (173c <avaliar_modo_leitor+0xe8>)
    1666:	4f36      	ldr	r7, [pc, #216]	; (1740 <avaliar_modo_leitor+0xec>)
    1668:	4699      	mov	r9, r3
    166a:	e00b      	b.n	1684 <avaliar_modo_leitor+0x30>
    166c:	617b      	str	r3, [r7, #20]
    166e:	200a      	movs	r0, #10
    1670:	47b0      	blx	r6
    1672:	4642      	mov	r2, r8
    1674:	6a3b      	ldr	r3, [r7, #32]
    1676:	0c5b      	lsrs	r3, r3, #17
    1678:	4013      	ands	r3, r2
    167a:	42ab      	cmp	r3, r5
    167c:	d00f      	beq.n	169e <avaliar_modo_leitor+0x4a>
    167e:	3401      	adds	r4, #1
    1680:	2c10      	cmp	r4, #16
    1682:	d051      	beq.n	1728 <avaliar_modo_leitor+0xd4>
    1684:	4645      	mov	r5, r8
    1686:	464b      	mov	r3, r9
    1688:	4025      	ands	r5, r4
    168a:	d0ef      	beq.n	166c <avaliar_modo_leitor+0x18>
    168c:	61bb      	str	r3, [r7, #24]
    168e:	200a      	movs	r0, #10
    1690:	47b0      	blx	r6
    1692:	4642      	mov	r2, r8
    1694:	6a3b      	ldr	r3, [r7, #32]
    1696:	0c5b      	lsrs	r3, r3, #17
    1698:	4013      	ands	r3, r2
    169a:	42ab      	cmp	r3, r5
    169c:	d1ef      	bne.n	167e <avaliar_modo_leitor+0x2a>
    169e:	2301      	movs	r3, #1
    16a0:	4698      	mov	r8, r3
    16a2:	2380      	movs	r3, #128	; 0x80
    16a4:	009b      	lsls	r3, r3, #2
    16a6:	2400      	movs	r4, #0
    16a8:	4f25      	ldr	r7, [pc, #148]	; (1740 <avaliar_modo_leitor+0xec>)
    16aa:	4699      	mov	r9, r3
    16ac:	e00b      	b.n	16c6 <avaliar_modo_leitor+0x72>
    16ae:	617b      	str	r3, [r7, #20]
    16b0:	200a      	movs	r0, #10
    16b2:	47b0      	blx	r6
    16b4:	4642      	mov	r2, r8
    16b6:	6a3b      	ldr	r3, [r7, #32]
    16b8:	0c5b      	lsrs	r3, r3, #17
    16ba:	4013      	ands	r3, r2
    16bc:	42ab      	cmp	r3, r5
    16be:	d00f      	beq.n	16e0 <avaliar_modo_leitor+0x8c>
    16c0:	3401      	adds	r4, #1
    16c2:	2c10      	cmp	r4, #16
    16c4:	d035      	beq.n	1732 <avaliar_modo_leitor+0xde>
    16c6:	4645      	mov	r5, r8
    16c8:	464b      	mov	r3, r9
    16ca:	4025      	ands	r5, r4
    16cc:	d0ef      	beq.n	16ae <avaliar_modo_leitor+0x5a>
    16ce:	61bb      	str	r3, [r7, #24]
    16d0:	200a      	movs	r0, #10
    16d2:	47b0      	blx	r6
    16d4:	4642      	mov	r2, r8
    16d6:	6a3b      	ldr	r3, [r7, #32]
    16d8:	0c5b      	lsrs	r3, r3, #17
    16da:	4013      	ands	r3, r2
    16dc:	42ab      	cmp	r3, r5
    16de:	d1ef      	bne.n	16c0 <avaliar_modo_leitor+0x6c>
    16e0:	4b17      	ldr	r3, [pc, #92]	; (1740 <avaliar_modo_leitor+0xec>)
    16e2:	2400      	movs	r4, #0
    16e4:	4698      	mov	r8, r3
    16e6:	2380      	movs	r3, #128	; 0x80
    16e8:	00db      	lsls	r3, r3, #3
    16ea:	2701      	movs	r7, #1
    16ec:	4699      	mov	r9, r3
    16ee:	e00b      	b.n	1708 <avaliar_modo_leitor+0xb4>
    16f0:	615a      	str	r2, [r3, #20]
    16f2:	200a      	movs	r0, #10
    16f4:	47b0      	blx	r6
    16f6:	4643      	mov	r3, r8
    16f8:	6a1b      	ldr	r3, [r3, #32]
    16fa:	0c5b      	lsrs	r3, r3, #17
    16fc:	403b      	ands	r3, r7
    16fe:	429d      	cmp	r5, r3
    1700:	d010      	beq.n	1724 <avaliar_modo_leitor+0xd0>
    1702:	3401      	adds	r4, #1
    1704:	2c10      	cmp	r4, #16
    1706:	d016      	beq.n	1736 <avaliar_modo_leitor+0xe2>
    1708:	1c3d      	adds	r5, r7, #0
    170a:	4643      	mov	r3, r8
    170c:	4025      	ands	r5, r4
    170e:	464a      	mov	r2, r9
    1710:	d0ee      	beq.n	16f0 <avaliar_modo_leitor+0x9c>
    1712:	619a      	str	r2, [r3, #24]
    1714:	200a      	movs	r0, #10
    1716:	47b0      	blx	r6
    1718:	4643      	mov	r3, r8
    171a:	6a1b      	ldr	r3, [r3, #32]
    171c:	0c5b      	lsrs	r3, r3, #17
    171e:	403b      	ands	r3, r7
    1720:	429d      	cmp	r5, r3
    1722:	d1ee      	bne.n	1702 <avaliar_modo_leitor+0xae>
    1724:	2003      	movs	r0, #3
    1726:	e000      	b.n	172a <avaliar_modo_leitor+0xd6>
    1728:	2001      	movs	r0, #1
    172a:	bc0c      	pop	{r2, r3}
    172c:	4690      	mov	r8, r2
    172e:	4699      	mov	r9, r3
    1730:	bdf8      	pop	{r3, r4, r5, r6, r7, pc}
    1732:	2002      	movs	r0, #2
    1734:	e7f9      	b.n	172a <avaliar_modo_leitor+0xd6>
    1736:	2000      	movs	r0, #0
    1738:	e7f7      	b.n	172a <avaliar_modo_leitor+0xd6>
    173a:	46c0      	nop			; (mov r8, r8)
    173c:	0000036d 	.word	0x0000036d
    1740:	41004400 	.word	0x41004400

00001744 <modo_leitor>:
    1744:	b5f0      	push	{r4, r5, r6, r7, lr}
    1746:	4647      	mov	r7, r8
    1748:	4ba2      	ldr	r3, [pc, #648]	; (19d4 <modo_leitor+0x290>)
    174a:	b480      	push	{r7}
    174c:	4798      	blx	r3
    174e:	2801      	cmp	r0, #1
    1750:	d100      	bne.n	1754 <modo_leitor+0x10>
    1752:	e0e8      	b.n	1926 <modo_leitor+0x1e2>
    1754:	2800      	cmp	r0, #0
    1756:	d100      	bne.n	175a <modo_leitor+0x16>
    1758:	e09d      	b.n	1896 <modo_leitor+0x152>
    175a:	2802      	cmp	r0, #2
    175c:	d053      	beq.n	1806 <modo_leitor+0xc2>
    175e:	2803      	cmp	r0, #3
    1760:	d14e      	bne.n	1800 <modo_leitor+0xbc>
    1762:	4d9d      	ldr	r5, [pc, #628]	; (19d8 <modo_leitor+0x294>)
    1764:	4e9d      	ldr	r6, [pc, #628]	; (19dc <modo_leitor+0x298>)
    1766:	20fc      	movs	r0, #252	; 0xfc
    1768:	1c29      	adds	r1, r5, #0
    176a:	0180      	lsls	r0, r0, #6
    176c:	2240      	movs	r2, #64	; 0x40
    176e:	47b0      	blx	r6
    1770:	2805      	cmp	r0, #5
    1772:	d0f8      	beq.n	1766 <modo_leitor+0x22>
    1774:	4c9a      	ldr	r4, [pc, #616]	; (19e0 <modo_leitor+0x29c>)
    1776:	47a0      	blx	r4
    1778:	78ab      	ldrb	r3, [r5, #2]
    177a:	2b22      	cmp	r3, #34	; 0x22
    177c:	d100      	bne.n	1780 <modo_leitor+0x3c>
    177e:	e11a      	b.n	19b6 <modo_leitor+0x272>
    1780:	231a      	movs	r3, #26
    1782:	4a98      	ldr	r2, [pc, #608]	; (19e4 <modo_leitor+0x2a0>)
    1784:	7013      	strb	r3, [r2, #0]
    1786:	20fc      	movs	r0, #252	; 0xfc
    1788:	1c29      	adds	r1, r5, #0
    178a:	0180      	lsls	r0, r0, #6
    178c:	2240      	movs	r2, #64	; 0x40
    178e:	47b0      	blx	r6
    1790:	2805      	cmp	r0, #5
    1792:	d0f8      	beq.n	1786 <modo_leitor+0x42>
    1794:	47a0      	blx	r4
    1796:	786b      	ldrb	r3, [r5, #1]
    1798:	2b41      	cmp	r3, #65	; 0x41
    179a:	d100      	bne.n	179e <modo_leitor+0x5a>
    179c:	e10d      	b.n	19ba <modo_leitor+0x276>
    179e:	2257      	movs	r2, #87	; 0x57
    17a0:	4b91      	ldr	r3, [pc, #580]	; (19e8 <modo_leitor+0x2a4>)
    17a2:	701a      	strb	r2, [r3, #0]
    17a4:	4b91      	ldr	r3, [pc, #580]	; (19ec <modo_leitor+0x2a8>)
    17a6:	32a9      	adds	r2, #169	; 0xa9
    17a8:	615a      	str	r2, [r3, #20]
    17aa:	3201      	adds	r2, #1
    17ac:	32ff      	adds	r2, #255	; 0xff
    17ae:	615a      	str	r2, [r3, #20]
    17b0:	2280      	movs	r2, #128	; 0x80
    17b2:	00d2      	lsls	r2, r2, #3
    17b4:	615a      	str	r2, [r3, #20]
    17b6:	2708      	movs	r7, #8
    17b8:	2604      	movs	r6, #4
    17ba:	2096      	movs	r0, #150	; 0x96
    17bc:	4c8b      	ldr	r4, [pc, #556]	; (19ec <modo_leitor+0x2a8>)
    17be:	0040      	lsls	r0, r0, #1
    17c0:	61a7      	str	r7, [r4, #24]
    17c2:	4d8b      	ldr	r5, [pc, #556]	; (19f0 <modo_leitor+0x2ac>)
    17c4:	6166      	str	r6, [r4, #20]
    17c6:	47a8      	blx	r5
    17c8:	217f      	movs	r1, #127	; 0x7f
    17ca:	6167      	str	r7, [r4, #20]
    17cc:	61a6      	str	r6, [r4, #24]
    17ce:	4c89      	ldr	r4, [pc, #548]	; (19f4 <modo_leitor+0x2b0>)
    17d0:	6823      	ldr	r3, [r4, #0]
    17d2:	7bda      	ldrb	r2, [r3, #15]
    17d4:	438a      	bics	r2, r1
    17d6:	d1fc      	bne.n	17d2 <modo_leitor+0x8e>
    17d8:	8819      	ldrh	r1, [r3, #0]
    17da:	3202      	adds	r2, #2
    17dc:	430a      	orrs	r2, r1
    17de:	801a      	strh	r2, [r3, #0]
    17e0:	20fa      	movs	r0, #250	; 0xfa
    17e2:	47a8      	blx	r5
    17e4:	217f      	movs	r1, #127	; 0x7f
    17e6:	6823      	ldr	r3, [r4, #0]
    17e8:	7bda      	ldrb	r2, [r3, #15]
    17ea:	438a      	bics	r2, r1
    17ec:	d1fc      	bne.n	17e8 <modo_leitor+0xa4>
    17ee:	2102      	movs	r1, #2
    17f0:	881a      	ldrh	r2, [r3, #0]
    17f2:	438a      	bics	r2, r1
    17f4:	801a      	strh	r2, [r3, #0]
    17f6:	2208      	movs	r2, #8
    17f8:	4b7c      	ldr	r3, [pc, #496]	; (19ec <modo_leitor+0x2a8>)
    17fa:	619a      	str	r2, [r3, #24]
    17fc:	3a04      	subs	r2, #4
    17fe:	615a      	str	r2, [r3, #20]
    1800:	bc04      	pop	{r2}
    1802:	4690      	mov	r8, r2
    1804:	bdf0      	pop	{r4, r5, r6, r7, pc}
    1806:	4d74      	ldr	r5, [pc, #464]	; (19d8 <modo_leitor+0x294>)
    1808:	4e74      	ldr	r6, [pc, #464]	; (19dc <modo_leitor+0x298>)
    180a:	20fc      	movs	r0, #252	; 0xfc
    180c:	1c29      	adds	r1, r5, #0
    180e:	0180      	lsls	r0, r0, #6
    1810:	2240      	movs	r2, #64	; 0x40
    1812:	47b0      	blx	r6
    1814:	2805      	cmp	r0, #5
    1816:	d0f8      	beq.n	180a <modo_leitor+0xc6>
    1818:	4c71      	ldr	r4, [pc, #452]	; (19e0 <modo_leitor+0x29c>)
    181a:	47a0      	blx	r4
    181c:	2357      	movs	r3, #87	; 0x57
    181e:	706b      	strb	r3, [r5, #1]
    1820:	4b75      	ldr	r3, [pc, #468]	; (19f8 <modo_leitor+0x2b4>)
    1822:	4698      	mov	r8, r3
    1824:	20fc      	movs	r0, #252	; 0xfc
    1826:	0180      	lsls	r0, r0, #6
    1828:	47c0      	blx	r8
    182a:	2805      	cmp	r0, #5
    182c:	d0fa      	beq.n	1824 <modo_leitor+0xe0>
    182e:	47a0      	blx	r4
    1830:	4f72      	ldr	r7, [pc, #456]	; (19fc <modo_leitor+0x2b8>)
    1832:	20fc      	movs	r0, #252	; 0xfc
    1834:	1c29      	adds	r1, r5, #0
    1836:	0180      	lsls	r0, r0, #6
    1838:	2240      	movs	r2, #64	; 0x40
    183a:	47b8      	blx	r7
    183c:	2805      	cmp	r0, #5
    183e:	d0f8      	beq.n	1832 <modo_leitor+0xee>
    1840:	47a0      	blx	r4
    1842:	20fc      	movs	r0, #252	; 0xfc
    1844:	1c29      	adds	r1, r5, #0
    1846:	0180      	lsls	r0, r0, #6
    1848:	2240      	movs	r2, #64	; 0x40
    184a:	47b0      	blx	r6
    184c:	2805      	cmp	r0, #5
    184e:	d0f8      	beq.n	1842 <modo_leitor+0xfe>
    1850:	47a0      	blx	r4
    1852:	2322      	movs	r3, #34	; 0x22
    1854:	70ab      	strb	r3, [r5, #2]
    1856:	20fc      	movs	r0, #252	; 0xfc
    1858:	0180      	lsls	r0, r0, #6
    185a:	47c0      	blx	r8
    185c:	2805      	cmp	r0, #5
    185e:	d0fa      	beq.n	1856 <modo_leitor+0x112>
    1860:	47a0      	blx	r4
    1862:	20fc      	movs	r0, #252	; 0xfc
    1864:	1c29      	adds	r1, r5, #0
    1866:	0180      	lsls	r0, r0, #6
    1868:	2240      	movs	r2, #64	; 0x40
    186a:	47b8      	blx	r7
    186c:	2805      	cmp	r0, #5
    186e:	d0f8      	beq.n	1862 <modo_leitor+0x11e>
    1870:	47a0      	blx	r4
    1872:	2208      	movs	r2, #8
    1874:	217f      	movs	r1, #127	; 0x7f
    1876:	4b5d      	ldr	r3, [pc, #372]	; (19ec <modo_leitor+0x2a8>)
    1878:	619a      	str	r2, [r3, #24]
    187a:	3a04      	subs	r2, #4
    187c:	619a      	str	r2, [r3, #24]
    187e:	4b5d      	ldr	r3, [pc, #372]	; (19f4 <modo_leitor+0x2b0>)
    1880:	681b      	ldr	r3, [r3, #0]
    1882:	7bda      	ldrb	r2, [r3, #15]
    1884:	438a      	bics	r2, r1
    1886:	d1fc      	bne.n	1882 <modo_leitor+0x13e>
    1888:	8819      	ldrh	r1, [r3, #0]
    188a:	3202      	adds	r2, #2
    188c:	430a      	orrs	r2, r1
    188e:	801a      	strh	r2, [r3, #0]
    1890:	47a0      	blx	r4
    1892:	47a0      	blx	r4
    1894:	e7fc      	b.n	1890 <modo_leitor+0x14c>
    1896:	4d50      	ldr	r5, [pc, #320]	; (19d8 <modo_leitor+0x294>)
    1898:	4e50      	ldr	r6, [pc, #320]	; (19dc <modo_leitor+0x298>)
    189a:	20fc      	movs	r0, #252	; 0xfc
    189c:	1c29      	adds	r1, r5, #0
    189e:	0180      	lsls	r0, r0, #6
    18a0:	2240      	movs	r2, #64	; 0x40
    18a2:	47b0      	blx	r6
    18a4:	2805      	cmp	r0, #5
    18a6:	d0f8      	beq.n	189a <modo_leitor+0x156>
    18a8:	4c4d      	ldr	r4, [pc, #308]	; (19e0 <modo_leitor+0x29c>)
    18aa:	47a0      	blx	r4
    18ac:	2341      	movs	r3, #65	; 0x41
    18ae:	706b      	strb	r3, [r5, #1]
    18b0:	4b51      	ldr	r3, [pc, #324]	; (19f8 <modo_leitor+0x2b4>)
    18b2:	4698      	mov	r8, r3
    18b4:	20fc      	movs	r0, #252	; 0xfc
    18b6:	0180      	lsls	r0, r0, #6
    18b8:	47c0      	blx	r8
    18ba:	2805      	cmp	r0, #5
    18bc:	d0fa      	beq.n	18b4 <modo_leitor+0x170>
    18be:	47a0      	blx	r4
    18c0:	4f4e      	ldr	r7, [pc, #312]	; (19fc <modo_leitor+0x2b8>)
    18c2:	20fc      	movs	r0, #252	; 0xfc
    18c4:	1c29      	adds	r1, r5, #0
    18c6:	0180      	lsls	r0, r0, #6
    18c8:	2240      	movs	r2, #64	; 0x40
    18ca:	47b8      	blx	r7
    18cc:	2805      	cmp	r0, #5
    18ce:	d0f8      	beq.n	18c2 <modo_leitor+0x17e>
    18d0:	47a0      	blx	r4
    18d2:	20fc      	movs	r0, #252	; 0xfc
    18d4:	1c29      	adds	r1, r5, #0
    18d6:	0180      	lsls	r0, r0, #6
    18d8:	2240      	movs	r2, #64	; 0x40
    18da:	47b0      	blx	r6
    18dc:	2805      	cmp	r0, #5
    18de:	d0f8      	beq.n	18d2 <modo_leitor+0x18e>
    18e0:	47a0      	blx	r4
    18e2:	231a      	movs	r3, #26
    18e4:	70ab      	strb	r3, [r5, #2]
    18e6:	20fc      	movs	r0, #252	; 0xfc
    18e8:	0180      	lsls	r0, r0, #6
    18ea:	47c0      	blx	r8
    18ec:	2805      	cmp	r0, #5
    18ee:	d0fa      	beq.n	18e6 <modo_leitor+0x1a2>
    18f0:	47a0      	blx	r4
    18f2:	20fc      	movs	r0, #252	; 0xfc
    18f4:	1c29      	adds	r1, r5, #0
    18f6:	0180      	lsls	r0, r0, #6
    18f8:	2240      	movs	r2, #64	; 0x40
    18fa:	47b8      	blx	r7
    18fc:	2805      	cmp	r0, #5
    18fe:	d0f8      	beq.n	18f2 <modo_leitor+0x1ae>
    1900:	47a0      	blx	r4
    1902:	2208      	movs	r2, #8
    1904:	217f      	movs	r1, #127	; 0x7f
    1906:	4b39      	ldr	r3, [pc, #228]	; (19ec <modo_leitor+0x2a8>)
    1908:	619a      	str	r2, [r3, #24]
    190a:	3a04      	subs	r2, #4
    190c:	615a      	str	r2, [r3, #20]
    190e:	4b39      	ldr	r3, [pc, #228]	; (19f4 <modo_leitor+0x2b0>)
    1910:	681b      	ldr	r3, [r3, #0]
    1912:	7bda      	ldrb	r2, [r3, #15]
    1914:	438a      	bics	r2, r1
    1916:	d1fc      	bne.n	1912 <modo_leitor+0x1ce>
    1918:	8819      	ldrh	r1, [r3, #0]
    191a:	3202      	adds	r2, #2
    191c:	430a      	orrs	r2, r1
    191e:	801a      	strh	r2, [r3, #0]
    1920:	47a0      	blx	r4
    1922:	47a0      	blx	r4
    1924:	e7fc      	b.n	1920 <modo_leitor+0x1dc>
    1926:	4d2c      	ldr	r5, [pc, #176]	; (19d8 <modo_leitor+0x294>)
    1928:	4e2c      	ldr	r6, [pc, #176]	; (19dc <modo_leitor+0x298>)
    192a:	20fc      	movs	r0, #252	; 0xfc
    192c:	1c29      	adds	r1, r5, #0
    192e:	0180      	lsls	r0, r0, #6
    1930:	2240      	movs	r2, #64	; 0x40
    1932:	47b0      	blx	r6
    1934:	2805      	cmp	r0, #5
    1936:	d0f8      	beq.n	192a <modo_leitor+0x1e6>
    1938:	4c29      	ldr	r4, [pc, #164]	; (19e0 <modo_leitor+0x29c>)
    193a:	47a0      	blx	r4
    193c:	2357      	movs	r3, #87	; 0x57
    193e:	706b      	strb	r3, [r5, #1]
    1940:	4b2d      	ldr	r3, [pc, #180]	; (19f8 <modo_leitor+0x2b4>)
    1942:	4698      	mov	r8, r3
    1944:	20fc      	movs	r0, #252	; 0xfc
    1946:	0180      	lsls	r0, r0, #6
    1948:	47c0      	blx	r8
    194a:	2805      	cmp	r0, #5
    194c:	d0fa      	beq.n	1944 <modo_leitor+0x200>
    194e:	47a0      	blx	r4
    1950:	4f2a      	ldr	r7, [pc, #168]	; (19fc <modo_leitor+0x2b8>)
    1952:	20fc      	movs	r0, #252	; 0xfc
    1954:	1c29      	adds	r1, r5, #0
    1956:	0180      	lsls	r0, r0, #6
    1958:	2240      	movs	r2, #64	; 0x40
    195a:	47b8      	blx	r7
    195c:	2805      	cmp	r0, #5
    195e:	d0f8      	beq.n	1952 <modo_leitor+0x20e>
    1960:	47a0      	blx	r4
    1962:	20fc      	movs	r0, #252	; 0xfc
    1964:	1c29      	adds	r1, r5, #0
    1966:	0180      	lsls	r0, r0, #6
    1968:	2240      	movs	r2, #64	; 0x40
    196a:	47b0      	blx	r6
    196c:	2805      	cmp	r0, #5
    196e:	d0f8      	beq.n	1962 <modo_leitor+0x21e>
    1970:	47a0      	blx	r4
    1972:	231a      	movs	r3, #26
    1974:	70ab      	strb	r3, [r5, #2]
    1976:	20fc      	movs	r0, #252	; 0xfc
    1978:	0180      	lsls	r0, r0, #6
    197a:	47c0      	blx	r8
    197c:	2805      	cmp	r0, #5
    197e:	d0fa      	beq.n	1976 <modo_leitor+0x232>
    1980:	47a0      	blx	r4
    1982:	20fc      	movs	r0, #252	; 0xfc
    1984:	1c29      	adds	r1, r5, #0
    1986:	0180      	lsls	r0, r0, #6
    1988:	2240      	movs	r2, #64	; 0x40
    198a:	47b8      	blx	r7
    198c:	2805      	cmp	r0, #5
    198e:	d0f8      	beq.n	1982 <modo_leitor+0x23e>
    1990:	47a0      	blx	r4
    1992:	2208      	movs	r2, #8
    1994:	217f      	movs	r1, #127	; 0x7f
    1996:	4b15      	ldr	r3, [pc, #84]	; (19ec <modo_leitor+0x2a8>)
    1998:	615a      	str	r2, [r3, #20]
    199a:	3a04      	subs	r2, #4
    199c:	619a      	str	r2, [r3, #24]
    199e:	4b15      	ldr	r3, [pc, #84]	; (19f4 <modo_leitor+0x2b0>)
    19a0:	681b      	ldr	r3, [r3, #0]
    19a2:	7bda      	ldrb	r2, [r3, #15]
    19a4:	438a      	bics	r2, r1
    19a6:	d1fc      	bne.n	19a2 <modo_leitor+0x25e>
    19a8:	8819      	ldrh	r1, [r3, #0]
    19aa:	3202      	adds	r2, #2
    19ac:	430a      	orrs	r2, r1
    19ae:	801a      	strh	r2, [r3, #0]
    19b0:	47a0      	blx	r4
    19b2:	47a0      	blx	r4
    19b4:	e7fc      	b.n	19b0 <modo_leitor+0x26c>
    19b6:	2322      	movs	r3, #34	; 0x22
    19b8:	e6e3      	b.n	1782 <modo_leitor+0x3e>
    19ba:	4a0b      	ldr	r2, [pc, #44]	; (19e8 <modo_leitor+0x2a4>)
    19bc:	7013      	strb	r3, [r2, #0]
    19be:	2280      	movs	r2, #128	; 0x80
    19c0:	4b0a      	ldr	r3, [pc, #40]	; (19ec <modo_leitor+0x2a8>)
    19c2:	0052      	lsls	r2, r2, #1
    19c4:	615a      	str	r2, [r3, #20]
    19c6:	1892      	adds	r2, r2, r2
    19c8:	615a      	str	r2, [r3, #20]
    19ca:	2280      	movs	r2, #128	; 0x80
    19cc:	00d2      	lsls	r2, r2, #3
    19ce:	615a      	str	r2, [r3, #20]
    19d0:	e6f1      	b.n	17b6 <modo_leitor+0x72>
    19d2:	46c0      	nop			; (mov r8, r8)
    19d4:	00001655 	.word	0x00001655
    19d8:	20000048 	.word	0x20000048
    19dc:	00000a65 	.word	0x00000a65
    19e0:	0000120d 	.word	0x0000120d
    19e4:	20000944 	.word	0x20000944
    19e8:	20000908 	.word	0x20000908
    19ec:	41004400 	.word	0x41004400
    19f0:	0000036d 	.word	0x0000036d
    19f4:	20000928 	.word	0x20000928
    19f8:	00000acd 	.word	0x00000acd
    19fc:	00000981 	.word	0x00000981

00001a00 <ler_tipo_leitor>:
    1a00:	b538      	push	{r3, r4, r5, lr}
    1a02:	4c0a      	ldr	r4, [pc, #40]	; (1a2c <ler_tipo_leitor+0x2c>)
    1a04:	4d0a      	ldr	r5, [pc, #40]	; (1a30 <ler_tipo_leitor+0x30>)
    1a06:	20fc      	movs	r0, #252	; 0xfc
    1a08:	1c21      	adds	r1, r4, #0
    1a0a:	0180      	lsls	r0, r0, #6
    1a0c:	2240      	movs	r2, #64	; 0x40
    1a0e:	47a8      	blx	r5
    1a10:	2805      	cmp	r0, #5
    1a12:	d0f8      	beq.n	1a06 <ler_tipo_leitor+0x6>
    1a14:	4b07      	ldr	r3, [pc, #28]	; (1a34 <ler_tipo_leitor+0x34>)
    1a16:	4798      	blx	r3
    1a18:	7823      	ldrb	r3, [r4, #0]
    1a1a:	2000      	movs	r0, #0
    1a1c:	3b46      	subs	r3, #70	; 0x46
    1a1e:	b2db      	uxtb	r3, r3
    1a20:	2b0a      	cmp	r3, #10
    1a22:	d801      	bhi.n	1a28 <ler_tipo_leitor+0x28>
    1a24:	4a04      	ldr	r2, [pc, #16]	; (1a38 <ler_tipo_leitor+0x38>)
    1a26:	5cd0      	ldrb	r0, [r2, r3]
    1a28:	bd38      	pop	{r3, r4, r5, pc}
    1a2a:	46c0      	nop			; (mov r8, r8)
    1a2c:	20000048 	.word	0x20000048
    1a30:	00000a65 	.word	0x00000a65
    1a34:	0000120d 	.word	0x0000120d
    1a38:	00003de4 	.word	0x00003de4

00001a3c <go_output>:
    1a3c:	b5f0      	push	{r4, r5, r6, r7, lr}
    1a3e:	4657      	mov	r7, sl
    1a40:	464e      	mov	r6, r9
    1a42:	4645      	mov	r5, r8
    1a44:	b4e0      	push	{r5, r6, r7}
    1a46:	4b5d      	ldr	r3, [pc, #372]	; (1bbc <go_output+0x180>)
    1a48:	b08e      	sub	sp, #56	; 0x38
    1a4a:	681e      	ldr	r6, [r3, #0]
    1a4c:	1c04      	adds	r4, r0, #0
    1a4e:	1c0d      	adds	r5, r1, #0
    1a50:	1c17      	adds	r7, r2, #0
    1a52:	2e00      	cmp	r6, #0
    1a54:	d02f      	beq.n	1ab6 <go_output+0x7a>
    1a56:	4b5a      	ldr	r3, [pc, #360]	; (1bc0 <go_output+0x184>)
    1a58:	8a18      	ldrh	r0, [r3, #16]
    1a5a:	b280      	uxth	r0, r0
    1a5c:	2800      	cmp	r0, #0
    1a5e:	d100      	bne.n	1a62 <go_output+0x26>
    1a60:	e072      	b.n	1b48 <go_output+0x10c>
    1a62:	4b58      	ldr	r3, [pc, #352]	; (1bc4 <go_output+0x188>)
    1a64:	0280      	lsls	r0, r0, #10
    1a66:	4958      	ldr	r1, [pc, #352]	; (1bc8 <go_output+0x18c>)
    1a68:	4798      	blx	r3
    1a6a:	4e58      	ldr	r6, [pc, #352]	; (1bcc <go_output+0x190>)
    1a6c:	6833      	ldr	r3, [r6, #0]
    1a6e:	469c      	mov	ip, r3
    1a70:	4b57      	ldr	r3, [pc, #348]	; (1bd0 <go_output+0x194>)
    1a72:	4460      	add	r0, ip
    1a74:	6030      	str	r0, [r6, #0]
    1a76:	4298      	cmp	r0, r3
    1a78:	dd00      	ble.n	1a7c <go_output+0x40>
    1a7a:	e07b      	b.n	1b74 <go_output+0x138>
    1a7c:	217f      	movs	r1, #127	; 0x7f
    1a7e:	4855      	ldr	r0, [pc, #340]	; (1bd4 <go_output+0x198>)
    1a80:	6802      	ldr	r2, [r0, #0]
    1a82:	7bd3      	ldrb	r3, [r2, #15]
    1a84:	438b      	bics	r3, r1
    1a86:	d1fc      	bne.n	1a82 <go_output+0x46>
    1a88:	2402      	movs	r4, #2
    1a8a:	8811      	ldrh	r1, [r2, #0]
    1a8c:	43a1      	bics	r1, r4
    1a8e:	8011      	strh	r1, [r2, #0]
    1a90:	217f      	movs	r1, #127	; 0x7f
    1a92:	4a4b      	ldr	r2, [pc, #300]	; (1bc0 <go_output+0x184>)
    1a94:	8213      	strh	r3, [r2, #16]
    1a96:	4b50      	ldr	r3, [pc, #320]	; (1bd8 <go_output+0x19c>)
    1a98:	8313      	strh	r3, [r2, #24]
    1a9a:	6802      	ldr	r2, [r0, #0]
    1a9c:	7bd3      	ldrb	r3, [r2, #15]
    1a9e:	438b      	bics	r3, r1
    1aa0:	d1fc      	bne.n	1a9c <go_output+0x60>
    1aa2:	8811      	ldrh	r1, [r2, #0]
    1aa4:	3302      	adds	r3, #2
    1aa6:	430b      	orrs	r3, r1
    1aa8:	8013      	strh	r3, [r2, #0]
    1aaa:	b00e      	add	sp, #56	; 0x38
    1aac:	bc1c      	pop	{r2, r3, r4}
    1aae:	4690      	mov	r8, r2
    1ab0:	4699      	mov	r9, r3
    1ab2:	46a2      	mov	sl, r4
    1ab4:	bdf0      	pop	{r4, r5, r6, r7, pc}
    1ab6:	2101      	movs	r1, #1
    1ab8:	6019      	str	r1, [r3, #0]
    1aba:	2300      	movs	r3, #0
    1abc:	aa01      	add	r2, sp, #4
    1abe:	7053      	strb	r3, [r2, #1]
    1ac0:	7293      	strb	r3, [r2, #10]
    1ac2:	72d3      	strb	r3, [r2, #11]
    1ac4:	7313      	strb	r3, [r2, #12]
    1ac6:	7393      	strb	r3, [r2, #14]
    1ac8:	7413      	strb	r3, [r2, #16]
    1aca:	7713      	strb	r3, [r2, #28]
    1acc:	2320      	movs	r3, #32
    1ace:	7193      	strb	r3, [r2, #6]
    1ad0:	23e0      	movs	r3, #224	; 0xe0
    1ad2:	00db      	lsls	r3, r3, #3
    1ad4:	8093      	strh	r3, [r2, #4]
    1ad6:	4b40      	ldr	r3, [pc, #256]	; (1bd8 <go_output+0x19c>)
    1ad8:	7351      	strb	r1, [r2, #13]
    1ada:	8553      	strh	r3, [r2, #42]	; 0x2a
    1adc:	469a      	mov	sl, r3
    1ade:	4b3d      	ldr	r3, [pc, #244]	; (1bd4 <go_output+0x198>)
    1ae0:	6156      	str	r6, [r2, #20]
    1ae2:	4699      	mov	r9, r3
    1ae4:	4b36      	ldr	r3, [pc, #216]	; (1bc0 <go_output+0x184>)
    1ae6:	6196      	str	r6, [r2, #24]
    1ae8:	4698      	mov	r8, r3
    1aea:	1c19      	adds	r1, r3, #0
    1aec:	6216      	str	r6, [r2, #32]
    1aee:	6256      	str	r6, [r2, #36]	; 0x24
    1af0:	4b3a      	ldr	r3, [pc, #232]	; (1bdc <go_output+0x1a0>)
    1af2:	4648      	mov	r0, r9
    1af4:	7016      	strb	r6, [r2, #0]
    1af6:	7096      	strb	r6, [r2, #2]
    1af8:	8116      	strh	r6, [r2, #8]
    1afa:	8516      	strh	r6, [r2, #40]	; 0x28
    1afc:	8596      	strh	r6, [r2, #44]	; 0x2c
    1afe:	4798      	blx	r3
    1b00:	4643      	mov	r3, r8
    1b02:	4652      	mov	r2, sl
    1b04:	821e      	strh	r6, [r3, #16]
    1b06:	831a      	strh	r2, [r3, #24]
    1b08:	464b      	mov	r3, r9
    1b0a:	217f      	movs	r1, #127	; 0x7f
    1b0c:	681a      	ldr	r2, [r3, #0]
    1b0e:	7bd3      	ldrb	r3, [r2, #15]
    1b10:	438b      	bics	r3, r1
    1b12:	d1fc      	bne.n	1b0e <go_output+0xd2>
    1b14:	8811      	ldrh	r1, [r2, #0]
    1b16:	3302      	adds	r3, #2
    1b18:	430b      	orrs	r3, r1
    1b1a:	8013      	strh	r3, [r2, #0]
    1b1c:	4b30      	ldr	r3, [pc, #192]	; (1be0 <go_output+0x1a4>)
    1b1e:	4798      	blx	r3
    1b20:	4b30      	ldr	r3, [pc, #192]	; (1be4 <go_output+0x1a8>)
    1b22:	781b      	ldrb	r3, [r3, #0]
    1b24:	2b41      	cmp	r3, #65	; 0x41
    1b26:	d03a      	beq.n	1b9e <go_output+0x162>
    1b28:	2b57      	cmp	r3, #87	; 0x57
    1b2a:	d104      	bne.n	1b36 <go_output+0xfa>
    1b2c:	1c20      	adds	r0, r4, #0
    1b2e:	1c29      	adds	r1, r5, #0
    1b30:	1c3a      	adds	r2, r7, #0
    1b32:	4b2d      	ldr	r3, [pc, #180]	; (1be8 <go_output+0x1ac>)
    1b34:	4798      	blx	r3
    1b36:	2032      	movs	r0, #50	; 0x32
    1b38:	4b2c      	ldr	r3, [pc, #176]	; (1bec <go_output+0x1b0>)
    1b3a:	4798      	blx	r3
    1b3c:	4b2c      	ldr	r3, [pc, #176]	; (1bf0 <go_output+0x1b4>)
    1b3e:	4798      	blx	r3
    1b40:	2200      	movs	r2, #0
    1b42:	4b22      	ldr	r3, [pc, #136]	; (1bcc <go_output+0x190>)
    1b44:	601a      	str	r2, [r3, #0]
    1b46:	e7b0      	b.n	1aaa <go_output+0x6e>
    1b48:	4b25      	ldr	r3, [pc, #148]	; (1be0 <go_output+0x1a4>)
    1b4a:	4798      	blx	r3
    1b4c:	4b25      	ldr	r3, [pc, #148]	; (1be4 <go_output+0x1a8>)
    1b4e:	781b      	ldrb	r3, [r3, #0]
    1b50:	2b41      	cmp	r3, #65	; 0x41
    1b52:	d029      	beq.n	1ba8 <go_output+0x16c>
    1b54:	2b57      	cmp	r3, #87	; 0x57
    1b56:	d104      	bne.n	1b62 <go_output+0x126>
    1b58:	1c20      	adds	r0, r4, #0
    1b5a:	1c29      	adds	r1, r5, #0
    1b5c:	1c3a      	adds	r2, r7, #0
    1b5e:	4b22      	ldr	r3, [pc, #136]	; (1be8 <go_output+0x1ac>)
    1b60:	4798      	blx	r3
    1b62:	2032      	movs	r0, #50	; 0x32
    1b64:	4b21      	ldr	r3, [pc, #132]	; (1bec <go_output+0x1b0>)
    1b66:	4798      	blx	r3
    1b68:	4b21      	ldr	r3, [pc, #132]	; (1bf0 <go_output+0x1b4>)
    1b6a:	4798      	blx	r3
    1b6c:	2200      	movs	r2, #0
    1b6e:	4b17      	ldr	r3, [pc, #92]	; (1bcc <go_output+0x190>)
    1b70:	601a      	str	r2, [r3, #0]
    1b72:	e783      	b.n	1a7c <go_output+0x40>
    1b74:	4b1a      	ldr	r3, [pc, #104]	; (1be0 <go_output+0x1a4>)
    1b76:	4798      	blx	r3
    1b78:	4b1a      	ldr	r3, [pc, #104]	; (1be4 <go_output+0x1a8>)
    1b7a:	781b      	ldrb	r3, [r3, #0]
    1b7c:	2b41      	cmp	r3, #65	; 0x41
    1b7e:	d018      	beq.n	1bb2 <go_output+0x176>
    1b80:	2b57      	cmp	r3, #87	; 0x57
    1b82:	d104      	bne.n	1b8e <go_output+0x152>
    1b84:	1c20      	adds	r0, r4, #0
    1b86:	1c29      	adds	r1, r5, #0
    1b88:	1c3a      	adds	r2, r7, #0
    1b8a:	4b17      	ldr	r3, [pc, #92]	; (1be8 <go_output+0x1ac>)
    1b8c:	4798      	blx	r3
    1b8e:	2032      	movs	r0, #50	; 0x32
    1b90:	4b16      	ldr	r3, [pc, #88]	; (1bec <go_output+0x1b0>)
    1b92:	4798      	blx	r3
    1b94:	4b16      	ldr	r3, [pc, #88]	; (1bf0 <go_output+0x1b4>)
    1b96:	4798      	blx	r3
    1b98:	2300      	movs	r3, #0
    1b9a:	6033      	str	r3, [r6, #0]
    1b9c:	e76e      	b.n	1a7c <go_output+0x40>
    1b9e:	1c20      	adds	r0, r4, #0
    1ba0:	1c29      	adds	r1, r5, #0
    1ba2:	4b14      	ldr	r3, [pc, #80]	; (1bf4 <go_output+0x1b8>)
    1ba4:	4798      	blx	r3
    1ba6:	e7c6      	b.n	1b36 <go_output+0xfa>
    1ba8:	1c20      	adds	r0, r4, #0
    1baa:	1c29      	adds	r1, r5, #0
    1bac:	4b11      	ldr	r3, [pc, #68]	; (1bf4 <go_output+0x1b8>)
    1bae:	4798      	blx	r3
    1bb0:	e7d7      	b.n	1b62 <go_output+0x126>
    1bb2:	1c20      	adds	r0, r4, #0
    1bb4:	1c29      	adds	r1, r5, #0
    1bb6:	4b0f      	ldr	r3, [pc, #60]	; (1bf4 <go_output+0x1b8>)
    1bb8:	4798      	blx	r3
    1bba:	e7e8      	b.n	1b8e <go_output+0x152>
    1bbc:	200000a8 	.word	0x200000a8
    1bc0:	42002800 	.word	0x42002800
    1bc4:	000036b9 	.word	0x000036b9
    1bc8:	0000bb80 	.word	0x0000bb80
    1bcc:	200000a4 	.word	0x200000a4
    1bd0:	00000bb7 	.word	0x00000bb7
    1bd4:	20000088 	.word	0x20000088
    1bd8:	000036ed 	.word	0x000036ed
    1bdc:	00000df1 	.word	0x00000df1
    1be0:	000012dd 	.word	0x000012dd
    1be4:	20000908 	.word	0x20000908
    1be8:	00002cb5 	.word	0x00002cb5
    1bec:	00001295 	.word	0x00001295
    1bf0:	000012cd 	.word	0x000012cd
    1bf4:	00000105 	.word	0x00000105

00001bf8 <M522PcdCmd.constprop.1>:
    1bf8:	b5f8      	push	{r3, r4, r5, r6, r7, lr}
    1bfa:	4656      	mov	r6, sl
    1bfc:	464d      	mov	r5, r9
    1bfe:	4644      	mov	r4, r8
    1c00:	465f      	mov	r7, fp
    1c02:	2004      	movs	r0, #4
    1c04:	b4f0      	push	{r4, r5, r6, r7}
    1c06:	2142      	movs	r1, #66	; 0x42
    1c08:	4d7d      	ldr	r5, [pc, #500]	; (1e00 <M522PcdCmd.constprop.1+0x208>)
    1c0a:	47a8      	blx	r5
    1c0c:	2005      	movs	r0, #5
    1c0e:	2100      	movs	r1, #0
    1c10:	47a8      	blx	r5
    1c12:	2180      	movs	r1, #128	; 0x80
    1c14:	200a      	movs	r0, #10
    1c16:	47a8      	blx	r5
    1c18:	4e7a      	ldr	r6, [pc, #488]	; (1e04 <M522PcdCmd.constprop.1+0x20c>)
    1c1a:	2001      	movs	r0, #1
    1c1c:	47b0      	blx	r6
    1c1e:	230f      	movs	r3, #15
    1c20:	1c01      	adds	r1, r0, #0
    1c22:	4399      	bics	r1, r3
    1c24:	230c      	movs	r3, #12
    1c26:	4319      	orrs	r1, r3
    1c28:	b2c9      	uxtb	r1, r1
    1c2a:	2001      	movs	r0, #1
    1c2c:	47a8      	blx	r5
    1c2e:	4b76      	ldr	r3, [pc, #472]	; (1e08 <M522PcdCmd.constprop.1+0x210>)
    1c30:	2002      	movs	r0, #2
    1c32:	4698      	mov	r8, r3
    1c34:	4642      	mov	r2, r8
    1c36:	4b75      	ldr	r3, [pc, #468]	; (1e0c <M522PcdCmd.constprop.1+0x214>)
    1c38:	6013      	str	r3, [r2, #0]
    1c3a:	47b0      	blx	r6
    1c3c:	2323      	movs	r3, #35	; 0x23
    1c3e:	4318      	orrs	r0, r3
    1c40:	b2c1      	uxtb	r1, r0
    1c42:	2002      	movs	r0, #2
    1c44:	47a8      	blx	r5
    1c46:	2003      	movs	r0, #3
    1c48:	47b0      	blx	r6
    1c4a:	1c01      	adds	r1, r0, #0
    1c4c:	2003      	movs	r0, #3
    1c4e:	47a8      	blx	r5
    1c50:	4643      	mov	r3, r8
    1c52:	681b      	ldr	r3, [r3, #0]
    1c54:	78db      	ldrb	r3, [r3, #3]
    1c56:	2b00      	cmp	r3, #0
    1c58:	d00d      	beq.n	1c76 <M522PcdCmd.constprop.1+0x7e>
    1c5a:	4b6d      	ldr	r3, [pc, #436]	; (1e10 <M522PcdCmd.constprop.1+0x218>)
    1c5c:	2400      	movs	r4, #0
    1c5e:	4699      	mov	r9, r3
    1c60:	464b      	mov	r3, r9
    1c62:	2009      	movs	r0, #9
    1c64:	5d19      	ldrb	r1, [r3, r4]
    1c66:	47a8      	blx	r5
    1c68:	4643      	mov	r3, r8
    1c6a:	681b      	ldr	r3, [r3, #0]
    1c6c:	3401      	adds	r4, #1
    1c6e:	78db      	ldrb	r3, [r3, #3]
    1c70:	b2e4      	uxtb	r4, r4
    1c72:	42a3      	cmp	r3, r4
    1c74:	d8f4      	bhi.n	1c60 <M522PcdCmd.constprop.1+0x68>
    1c76:	4b67      	ldr	r3, [pc, #412]	; (1e14 <M522PcdCmd.constprop.1+0x21c>)
    1c78:	200d      	movs	r0, #13
    1c7a:	2101      	movs	r1, #1
    1c7c:	2280      	movs	r2, #128	; 0x80
    1c7e:	469b      	mov	fp, r3
    1c80:	4798      	blx	r3
    1c82:	2323      	movs	r3, #35	; 0x23
    1c84:	2402      	movs	r4, #2
    1c86:	469a      	mov	sl, r3
    1c88:	34ff      	adds	r4, #255	; 0xff
    1c8a:	2004      	movs	r0, #4
    1c8c:	47b0      	blx	r6
    1c8e:	3c01      	subs	r4, #1
    1c90:	4681      	mov	r9, r0
    1c92:	2005      	movs	r0, #5
    1c94:	47b0      	blx	r6
    1c96:	2c00      	cmp	r4, #0
    1c98:	d100      	bne.n	1c9c <M522PcdCmd.constprop.1+0xa4>
    1c9a:	e09b      	b.n	1dd4 <M522PcdCmd.constprop.1+0x1dc>
    1c9c:	4657      	mov	r7, sl
    1c9e:	464b      	mov	r3, r9
    1ca0:	401f      	ands	r7, r3
    1ca2:	d0f2      	beq.n	1c8a <M522PcdCmd.constprop.1+0x92>
    1ca4:	464b      	mov	r3, r9
    1ca6:	07db      	lsls	r3, r3, #31
    1ca8:	d44a      	bmi.n	1d40 <M522PcdCmd.constprop.1+0x148>
    1caa:	2002      	movs	r0, #2
    1cac:	2100      	movs	r1, #0
    1cae:	2223      	movs	r2, #35	; 0x23
    1cb0:	47d8      	blx	fp
    1cb2:	2100      	movs	r1, #0
    1cb4:	2200      	movs	r2, #0
    1cb6:	2003      	movs	r0, #3
    1cb8:	47d8      	blx	fp
    1cba:	4643      	mov	r3, r8
    1cbc:	200a      	movs	r0, #10
    1cbe:	681c      	ldr	r4, [r3, #0]
    1cc0:	47b0      	blx	r6
    1cc2:	7120      	strb	r0, [r4, #4]
    1cc4:	200c      	movs	r0, #12
    1cc6:	47b0      	blx	r6
    1cc8:	2307      	movs	r3, #7
    1cca:	4018      	ands	r0, r3
    1ccc:	4643      	mov	r3, r8
    1cce:	681b      	ldr	r3, [r3, #0]
    1cd0:	80d8      	strh	r0, [r3, #6]
    1cd2:	2006      	movs	r0, #6
    1cd4:	47b0      	blx	r6
    1cd6:	1e04      	subs	r4, r0, #0
    1cd8:	d13d      	bne.n	1d56 <M522PcdCmd.constprop.1+0x15e>
    1cda:	2300      	movs	r3, #0
    1cdc:	469a      	mov	sl, r3
    1cde:	4643      	mov	r3, r8
    1ce0:	681b      	ldr	r3, [r3, #0]
    1ce2:	791b      	ldrb	r3, [r3, #4]
    1ce4:	2b00      	cmp	r3, #0
    1ce6:	d014      	beq.n	1d12 <M522PcdCmd.constprop.1+0x11a>
    1ce8:	4b49      	ldr	r3, [pc, #292]	; (1e10 <M522PcdCmd.constprop.1+0x218>)
    1cea:	2400      	movs	r4, #0
    1cec:	4699      	mov	r9, r3
    1cee:	2009      	movs	r0, #9
    1cf0:	47b0      	blx	r6
    1cf2:	464b      	mov	r3, r9
    1cf4:	5518      	strb	r0, [r3, r4]
    1cf6:	4643      	mov	r3, r8
    1cf8:	681a      	ldr	r2, [r3, #0]
    1cfa:	3401      	adds	r4, #1
    1cfc:	7913      	ldrb	r3, [r2, #4]
    1cfe:	b2e4      	uxtb	r4, r4
    1d00:	429c      	cmp	r4, r3
    1d02:	d3f4      	bcc.n	1cee <M522PcdCmd.constprop.1+0xf6>
    1d04:	88d1      	ldrh	r1, [r2, #6]
    1d06:	2900      	cmp	r1, #0
    1d08:	d003      	beq.n	1d12 <M522PcdCmd.constprop.1+0x11a>
    1d0a:	2b00      	cmp	r3, #0
    1d0c:	d001      	beq.n	1d12 <M522PcdCmd.constprop.1+0x11a>
    1d0e:	3b01      	subs	r3, #1
    1d10:	7113      	strb	r3, [r2, #4]
    1d12:	1c39      	adds	r1, r7, #0
    1d14:	2004      	movs	r0, #4
    1d16:	47a8      	blx	r5
    1d18:	2005      	movs	r0, #5
    1d1a:	2100      	movs	r1, #0
    1d1c:	47a8      	blx	r5
    1d1e:	200a      	movs	r0, #10
    1d20:	2180      	movs	r1, #128	; 0x80
    1d22:	47a8      	blx	r5
    1d24:	2004      	movs	r0, #4
    1d26:	2101      	movs	r1, #1
    1d28:	47a8      	blx	r5
    1d2a:	200d      	movs	r0, #13
    1d2c:	2100      	movs	r1, #0
    1d2e:	47a8      	blx	r5
    1d30:	4653      	mov	r3, sl
    1d32:	b218      	sxth	r0, r3
    1d34:	bc3c      	pop	{r2, r3, r4, r5}
    1d36:	4690      	mov	r8, r2
    1d38:	4699      	mov	r9, r3
    1d3a:	46a2      	mov	sl, r4
    1d3c:	46ab      	mov	fp, r5
    1d3e:	bdf8      	pop	{r3, r4, r5, r6, r7, pc}
    1d40:	2002      	movs	r0, #2
    1d42:	2100      	movs	r1, #0
    1d44:	2223      	movs	r2, #35	; 0x23
    1d46:	47d8      	blx	fp
    1d48:	2003      	movs	r0, #3
    1d4a:	2100      	movs	r1, #0
    1d4c:	2200      	movs	r2, #0
    1d4e:	47d8      	blx	fp
    1d50:	2301      	movs	r3, #1
    1d52:	469a      	mov	sl, r3
    1d54:	e7dd      	b.n	1d12 <M522PcdCmd.constprop.1+0x11a>
    1d56:	2306      	movs	r3, #6
    1d58:	469a      	mov	sl, r3
    1d5a:	0723      	lsls	r3, r4, #28
    1d5c:	d403      	bmi.n	1d66 <M522PcdCmd.constprop.1+0x16e>
    1d5e:	2300      	movs	r3, #0
    1d60:	469a      	mov	sl, r3
    1d62:	07a3      	lsls	r3, r4, #30
    1d64:	d433      	bmi.n	1dce <M522PcdCmd.constprop.1+0x1d6>
    1d66:	07e3      	lsls	r3, r4, #31
    1d68:	d420      	bmi.n	1dac <M522PcdCmd.constprop.1+0x1b4>
    1d6a:	06e3      	lsls	r3, r4, #27
    1d6c:	d42c      	bmi.n	1dc8 <M522PcdCmd.constprop.1+0x1d0>
    1d6e:	2304      	movs	r3, #4
    1d70:	4223      	tst	r3, r4
    1d72:	d033      	beq.n	1ddc <M522PcdCmd.constprop.1+0x1e4>
    1d74:	4642      	mov	r2, r8
    1d76:	6812      	ldr	r2, [r2, #0]
    1d78:	7911      	ldrb	r1, [r2, #4]
    1d7a:	468b      	mov	fp, r1
    1d7c:	2102      	movs	r1, #2
    1d7e:	468a      	mov	sl, r1
    1d80:	4659      	mov	r1, fp
    1d82:	2901      	cmp	r1, #1
    1d84:	d114      	bne.n	1db0 <M522PcdCmd.constprop.1+0x1b8>
    1d86:	88d2      	ldrh	r2, [r2, #6]
    1d88:	439a      	bics	r2, r3
    1d8a:	d111      	bne.n	1db0 <M522PcdCmd.constprop.1+0x1b8>
    1d8c:	2009      	movs	r0, #9
    1d8e:	47b0      	blx	r6
    1d90:	4b1f      	ldr	r3, [pc, #124]	; (1e10 <M522PcdCmd.constprop.1+0x218>)
    1d92:	465a      	mov	r2, fp
    1d94:	7018      	strb	r0, [r3, #0]
    1d96:	4643      	mov	r3, r8
    1d98:	681b      	ldr	r3, [r3, #0]
    1d9a:	711a      	strb	r2, [r3, #4]
    1d9c:	0623      	lsls	r3, r4, #24
    1d9e:	d40d      	bmi.n	1dbc <M522PcdCmd.constprop.1+0x1c4>
    1da0:	2006      	movs	r0, #6
    1da2:	2100      	movs	r1, #0
    1da4:	47a8      	blx	r5
    1da6:	4b1c      	ldr	r3, [pc, #112]	; (1e18 <M522PcdCmd.constprop.1+0x220>)
    1da8:	469a      	mov	sl, r3
    1daa:	e7b2      	b.n	1d12 <M522PcdCmd.constprop.1+0x11a>
    1dac:	230b      	movs	r3, #11
    1dae:	469a      	mov	sl, r3
    1db0:	0623      	lsls	r3, r4, #24
    1db2:	d403      	bmi.n	1dbc <M522PcdCmd.constprop.1+0x1c4>
    1db4:	2006      	movs	r0, #6
    1db6:	2100      	movs	r1, #0
    1db8:	47a8      	blx	r5
    1dba:	e790      	b.n	1cde <M522PcdCmd.constprop.1+0xe6>
    1dbc:	2006      	movs	r0, #6
    1dbe:	2100      	movs	r1, #0
    1dc0:	47a8      	blx	r5
    1dc2:	230d      	movs	r3, #13
    1dc4:	469a      	mov	sl, r3
    1dc6:	e78a      	b.n	1cde <M522PcdCmd.constprop.1+0xe6>
    1dc8:	2309      	movs	r3, #9
    1dca:	469a      	mov	sl, r3
    1dcc:	e7f0      	b.n	1db0 <M522PcdCmd.constprop.1+0x1b8>
    1dce:	2303      	movs	r3, #3
    1dd0:	469a      	mov	sl, r3
    1dd2:	e7c8      	b.n	1d66 <M522PcdCmd.constprop.1+0x16e>
    1dd4:	2723      	movs	r7, #35	; 0x23
    1dd6:	464b      	mov	r3, r9
    1dd8:	401f      	ands	r7, r3
    1dda:	e763      	b.n	1ca4 <M522PcdCmd.constprop.1+0xac>
    1ddc:	0663      	lsls	r3, r4, #25
    1dde:	d502      	bpl.n	1de6 <M522PcdCmd.constprop.1+0x1ee>
    1de0:	4b0e      	ldr	r3, [pc, #56]	; (1e1c <M522PcdCmd.constprop.1+0x224>)
    1de2:	469a      	mov	sl, r3
    1de4:	e7e4      	b.n	1db0 <M522PcdCmd.constprop.1+0x1b8>
    1de6:	0623      	lsls	r3, r4, #24
    1de8:	d4e8      	bmi.n	1dbc <M522PcdCmd.constprop.1+0x1c4>
    1dea:	4653      	mov	r3, sl
    1dec:	2006      	movs	r0, #6
    1dee:	2100      	movs	r1, #0
    1df0:	2b00      	cmp	r3, #0
    1df2:	d103      	bne.n	1dfc <M522PcdCmd.constprop.1+0x204>
    1df4:	47a8      	blx	r5
    1df6:	230c      	movs	r3, #12
    1df8:	469a      	mov	sl, r3
    1dfa:	e770      	b.n	1cde <M522PcdCmd.constprop.1+0xe6>
    1dfc:	47a8      	blx	r5
    1dfe:	e76e      	b.n	1cde <M522PcdCmd.constprop.1+0xe6>
    1e00:	00002359 	.word	0x00002359
    1e04:	00002389 	.word	0x00002389
    1e08:	200000ac 	.word	0x200000ac
    1e0c:	20000988 	.word	0x20000988
    1e10:	20000948 	.word	0x20000948
    1e14:	000023d9 	.word	0x000023d9
    1e18:	00000202 	.word	0x00000202
    1e1c:	00007e04 	.word	0x00007e04

00001e20 <Rc522Init>:
    1e20:	b5f0      	push	{r4, r5, r6, r7, lr}
    1e22:	4647      	mov	r7, r8
    1e24:	4c4e      	ldr	r4, [pc, #312]	; (1f60 <Rc522Init+0x140>)
    1e26:	b480      	push	{r7}
    1e28:	2001      	movs	r0, #1
    1e2a:	210f      	movs	r1, #15
    1e2c:	47a0      	blx	r4
    1e2e:	2015      	movs	r0, #21
    1e30:	2140      	movs	r1, #64	; 0x40
    1e32:	47a0      	blx	r4
    1e34:	21aa      	movs	r1, #170	; 0xaa
    1e36:	202c      	movs	r0, #44	; 0x2c
    1e38:	47a0      	blx	r4
    1e3a:	4d4a      	ldr	r5, [pc, #296]	; (1f64 <Rc522Init+0x144>)
    1e3c:	202c      	movs	r0, #44	; 0x2c
    1e3e:	47a8      	blx	r5
    1e40:	2208      	movs	r2, #8
    1e42:	4f49      	ldr	r7, [pc, #292]	; (1f68 <Rc522Init+0x148>)
    1e44:	2100      	movs	r1, #0
    1e46:	2008      	movs	r0, #8
    1e48:	47b8      	blx	r7
    1e4a:	2012      	movs	r0, #18
    1e4c:	47a8      	blx	r5
    1e4e:	2308      	movs	r3, #8
    1e50:	2680      	movs	r6, #128	; 0x80
    1e52:	1c19      	adds	r1, r3, #0
    1e54:	4698      	mov	r8, r3
    1e56:	4276      	negs	r6, r6
    1e58:	4001      	ands	r1, r0
    1e5a:	4331      	orrs	r1, r6
    1e5c:	b2c9      	uxtb	r1, r1
    1e5e:	2012      	movs	r0, #18
    1e60:	47a0      	blx	r4
    1e62:	2013      	movs	r0, #19
    1e64:	47a8      	blx	r5
    1e66:	4641      	mov	r1, r8
    1e68:	4001      	ands	r1, r0
    1e6a:	4331      	orrs	r1, r6
    1e6c:	b2c9      	uxtb	r1, r1
    1e6e:	2013      	movs	r0, #19
    1e70:	47a0      	blx	r4
    1e72:	2019      	movs	r0, #25
    1e74:	216d      	movs	r1, #109	; 0x6d
    1e76:	47a0      	blx	r4
    1e78:	2026      	movs	r0, #38	; 0x26
    1e7a:	2148      	movs	r1, #72	; 0x48
    1e7c:	47a0      	blx	r4
    1e7e:	2018      	movs	r0, #24
    1e80:	2155      	movs	r1, #85	; 0x55
    1e82:	47a0      	blx	r4
    1e84:	2024      	movs	r0, #36	; 0x24
    1e86:	2126      	movs	r1, #38	; 0x26
    1e88:	47a0      	blx	r4
    1e8a:	2027      	movs	r0, #39	; 0x27
    1e8c:	21f4      	movs	r1, #244	; 0xf4
    1e8e:	47a0      	blx	r4
    1e90:	2280      	movs	r2, #128	; 0x80
    1e92:	202a      	movs	r0, #42	; 0x2a
    1e94:	2101      	movs	r1, #1
    1e96:	47b8      	blx	r7
    1e98:	21a6      	movs	r1, #166	; 0xa6
    1e9a:	202b      	movs	r0, #43	; 0x2b
    1e9c:	47a0      	blx	r4
    1e9e:	202a      	movs	r0, #42	; 0x2a
    1ea0:	47a8      	blx	r5
    1ea2:	23f0      	movs	r3, #240	; 0xf0
    1ea4:	1c01      	adds	r1, r0, #0
    1ea6:	4019      	ands	r1, r3
    1ea8:	3bee      	subs	r3, #238	; 0xee
    1eaa:	4319      	orrs	r1, r3
    1eac:	202a      	movs	r0, #42	; 0x2a
    1eae:	47a0      	blx	r4
    1eb0:	202d      	movs	r0, #45	; 0x2d
    1eb2:	2132      	movs	r1, #50	; 0x32
    1eb4:	47a0      	blx	r4
    1eb6:	202c      	movs	r0, #44	; 0x2c
    1eb8:	2100      	movs	r1, #0
    1eba:	47a0      	blx	r4
    1ebc:	2014      	movs	r0, #20
    1ebe:	2101      	movs	r1, #1
    1ec0:	2203      	movs	r2, #3
    1ec2:	47b8      	blx	r7
    1ec4:	200c      	movs	r0, #12
    1ec6:	2101      	movs	r1, #1
    1ec8:	2240      	movs	r2, #64	; 0x40
    1eca:	47b8      	blx	r7
    1ecc:	3681      	adds	r6, #129	; 0x81
    1ece:	2004      	movs	r0, #4
    1ed0:	47a8      	blx	r5
    1ed2:	4206      	tst	r6, r0
    1ed4:	d0fb      	beq.n	1ece <Rc522Init+0xae>
    1ed6:	2004      	movs	r0, #4
    1ed8:	2101      	movs	r1, #1
    1eda:	47a0      	blx	r4
    1edc:	2280      	movs	r2, #128	; 0x80
    1ede:	202a      	movs	r0, #42	; 0x2a
    1ee0:	2101      	movs	r1, #1
    1ee2:	47b8      	blx	r7
    1ee4:	21a6      	movs	r1, #166	; 0xa6
    1ee6:	202b      	movs	r0, #43	; 0x2b
    1ee8:	47a0      	blx	r4
    1eea:	202a      	movs	r0, #42	; 0x2a
    1eec:	47a8      	blx	r5
    1eee:	2302      	movs	r3, #2
    1ef0:	4698      	mov	r8, r3
    1ef2:	260f      	movs	r6, #15
    1ef4:	4643      	mov	r3, r8
    1ef6:	43b0      	bics	r0, r6
    1ef8:	b2c1      	uxtb	r1, r0
    1efa:	4319      	orrs	r1, r3
    1efc:	b2c9      	uxtb	r1, r1
    1efe:	202a      	movs	r0, #42	; 0x2a
    1f00:	47a0      	blx	r4
    1f02:	202d      	movs	r0, #45	; 0x2d
    1f04:	2132      	movs	r1, #50	; 0x32
    1f06:	47a0      	blx	r4
    1f08:	202c      	movs	r0, #44	; 0x2c
    1f0a:	2100      	movs	r1, #0
    1f0c:	47a0      	blx	r4
    1f0e:	200b      	movs	r0, #11
    1f10:	211a      	movs	r1, #26
    1f12:	47a0      	blx	r4
    1f14:	2016      	movs	r0, #22
    1f16:	2110      	movs	r1, #16
    1f18:	47a0      	blx	r4
    1f1a:	2017      	movs	r0, #23
    1f1c:	2187      	movs	r1, #135	; 0x87
    1f1e:	47a0      	blx	r4
    1f20:	2001      	movs	r0, #1
    1f22:	2100      	movs	r1, #0
    1f24:	47a0      	blx	r4
    1f26:	2280      	movs	r2, #128	; 0x80
    1f28:	202a      	movs	r0, #42	; 0x2a
    1f2a:	2101      	movs	r1, #1
    1f2c:	47b8      	blx	r7
    1f2e:	21a6      	movs	r1, #166	; 0xa6
    1f30:	202b      	movs	r0, #43	; 0x2b
    1f32:	47a0      	blx	r4
    1f34:	202a      	movs	r0, #42	; 0x2a
    1f36:	47a8      	blx	r5
    1f38:	4643      	mov	r3, r8
    1f3a:	43b0      	bics	r0, r6
    1f3c:	b2c1      	uxtb	r1, r0
    1f3e:	4319      	orrs	r1, r3
    1f40:	b2c9      	uxtb	r1, r1
    1f42:	202a      	movs	r0, #42	; 0x2a
    1f44:	47a0      	blx	r4
    1f46:	202d      	movs	r0, #45	; 0x2d
    1f48:	2114      	movs	r1, #20
    1f4a:	47a0      	blx	r4
    1f4c:	202c      	movs	r0, #44	; 0x2c
    1f4e:	2100      	movs	r1, #0
    1f50:	47a0      	blx	r4
    1f52:	2038      	movs	r0, #56	; 0x38
    1f54:	21cd      	movs	r1, #205	; 0xcd
    1f56:	47a0      	blx	r4
    1f58:	bc04      	pop	{r2}
    1f5a:	4690      	mov	r8, r2
    1f5c:	bdf0      	pop	{r4, r5, r6, r7, pc}
    1f5e:	46c0      	nop			; (mov r8, r8)
    1f60:	00002359 	.word	0x00002359
    1f64:	00002389 	.word	0x00002389
    1f68:	000023d9 	.word	0x000023d9

00001f6c <Rc522RFReset>:
    1f6c:	b510      	push	{r4, lr}
    1f6e:	1c04      	adds	r4, r0, #0
    1f70:	210f      	movs	r1, #15
    1f72:	2001      	movs	r0, #1
    1f74:	4b03      	ldr	r3, [pc, #12]	; (1f84 <Rc522RFReset+0x18>)
    1f76:	4798      	blx	r3
    1f78:	1c20      	adds	r0, r4, #0
    1f7a:	4b03      	ldr	r3, [pc, #12]	; (1f88 <Rc522RFReset+0x1c>)
    1f7c:	4798      	blx	r3
    1f7e:	4b03      	ldr	r3, [pc, #12]	; (1f8c <Rc522RFReset+0x20>)
    1f80:	4798      	blx	r3
    1f82:	bd10      	pop	{r4, pc}
    1f84:	00002359 	.word	0x00002359
    1f88:	0000036d 	.word	0x0000036d
    1f8c:	00001e21 	.word	0x00001e21

00001f90 <Request>:
    1f90:	b5f0      	push	{r4, r5, r6, r7, lr}
    1f92:	4657      	mov	r7, sl
    1f94:	464e      	mov	r6, r9
    1f96:	4645      	mov	r5, r8
    1f98:	4682      	mov	sl, r0
    1f9a:	b4e0      	push	{r5, r6, r7}
    1f9c:	2208      	movs	r2, #8
    1f9e:	4e2e      	ldr	r6, [pc, #184]	; (2058 <Request+0xc8>)
    1fa0:	2008      	movs	r0, #8
    1fa2:	4688      	mov	r8, r1
    1fa4:	2100      	movs	r1, #0
    1fa6:	47b0      	blx	r6
    1fa8:	4d2c      	ldr	r5, [pc, #176]	; (205c <Request+0xcc>)
    1faa:	200e      	movs	r0, #14
    1fac:	2180      	movs	r1, #128	; 0x80
    1fae:	47a8      	blx	r5
    1fb0:	2012      	movs	r0, #18
    1fb2:	2100      	movs	r1, #0
    1fb4:	2280      	movs	r2, #128	; 0x80
    1fb6:	47b0      	blx	r6
    1fb8:	2280      	movs	r2, #128	; 0x80
    1fba:	2013      	movs	r0, #19
    1fbc:	2100      	movs	r1, #0
    1fbe:	47b0      	blx	r6
    1fc0:	200d      	movs	r0, #13
    1fc2:	2107      	movs	r1, #7
    1fc4:	47a8      	blx	r5
    1fc6:	2300      	movs	r3, #0
    1fc8:	4652      	mov	r2, sl
    1fca:	4c25      	ldr	r4, [pc, #148]	; (2060 <Request+0xd0>)
    1fcc:	2700      	movs	r7, #0
    1fce:	7023      	strb	r3, [r4, #0]
    1fd0:	7063      	strb	r3, [r4, #1]
    1fd2:	70a3      	strb	r3, [r4, #2]
    1fd4:	7123      	strb	r3, [r4, #4]
    1fd6:	80e3      	strh	r3, [r4, #6]
    1fd8:	4b22      	ldr	r3, [pc, #136]	; (2064 <Request+0xd4>)
    1fda:	202a      	movs	r0, #42	; 0x2a
    1fdc:	701a      	strb	r2, [r3, #0]
    1fde:	4699      	mov	r9, r3
    1fe0:	2301      	movs	r3, #1
    1fe2:	2280      	movs	r2, #128	; 0x80
    1fe4:	2101      	movs	r1, #1
    1fe6:	70e3      	strb	r3, [r4, #3]
    1fe8:	7227      	strb	r7, [r4, #8]
    1fea:	47b0      	blx	r6
    1fec:	21a6      	movs	r1, #166	; 0xa6
    1fee:	202b      	movs	r0, #43	; 0x2b
    1ff0:	47a8      	blx	r5
    1ff2:	4b1d      	ldr	r3, [pc, #116]	; (2068 <Request+0xd8>)
    1ff4:	202a      	movs	r0, #42	; 0x2a
    1ff6:	4798      	blx	r3
    1ff8:	23f0      	movs	r3, #240	; 0xf0
    1ffa:	1c01      	adds	r1, r0, #0
    1ffc:	4019      	ands	r1, r3
    1ffe:	3bee      	subs	r3, #238	; 0xee
    2000:	4319      	orrs	r1, r3
    2002:	202a      	movs	r0, #42	; 0x2a
    2004:	47a8      	blx	r5
    2006:	202d      	movs	r0, #45	; 0x2d
    2008:	2104      	movs	r1, #4
    200a:	47a8      	blx	r5
    200c:	202c      	movs	r0, #44	; 0x2c
    200e:	2100      	movs	r1, #0
    2010:	47a8      	blx	r5
    2012:	4b16      	ldr	r3, [pc, #88]	; (206c <Request+0xdc>)
    2014:	4798      	blx	r3
    2016:	b2c3      	uxtb	r3, r0
    2018:	1c05      	adds	r5, r0, #0
    201a:	2b00      	cmp	r3, #0
    201c:	d00c      	beq.n	2038 <Request+0xa8>
    201e:	2b06      	cmp	r3, #6
    2020:	d00a      	beq.n	2038 <Request+0xa8>
    2022:	4643      	mov	r3, r8
    2024:	20ff      	movs	r0, #255	; 0xff
    2026:	701f      	strb	r7, [r3, #0]
    2028:	705f      	strb	r7, [r3, #1]
    202a:	4028      	ands	r0, r5
    202c:	b200      	sxth	r0, r0
    202e:	bc1c      	pop	{r2, r3, r4}
    2030:	4690      	mov	r8, r2
    2032:	4699      	mov	r9, r3
    2034:	46a2      	mov	sl, r4
    2036:	bdf0      	pop	{r4, r5, r6, r7, pc}
    2038:	7923      	ldrb	r3, [r4, #4]
    203a:	200b      	movs	r0, #11
    203c:	2b02      	cmp	r3, #2
    203e:	d1f5      	bne.n	202c <Request+0x9c>
    2040:	88e3      	ldrh	r3, [r4, #6]
    2042:	2b00      	cmp	r3, #0
    2044:	d1f2      	bne.n	202c <Request+0x9c>
    2046:	4640      	mov	r0, r8
    2048:	4649      	mov	r1, r9
    204a:	2202      	movs	r2, #2
    204c:	4b08      	ldr	r3, [pc, #32]	; (2070 <Request+0xe0>)
    204e:	4798      	blx	r3
    2050:	20ff      	movs	r0, #255	; 0xff
    2052:	4028      	ands	r0, r5
    2054:	e7ea      	b.n	202c <Request+0x9c>
    2056:	46c0      	nop			; (mov r8, r8)
    2058:	000023d9 	.word	0x000023d9
    205c:	00002359 	.word	0x00002359
    2060:	20000988 	.word	0x20000988
    2064:	20000948 	.word	0x20000948
    2068:	00002389 	.word	0x00002389
    206c:	00001bf9 	.word	0x00001bf9
    2070:	00003d85 	.word	0x00003d85

00002074 <CascAnticoll>:
    2074:	b5f0      	push	{r4, r5, r6, r7, lr}
    2076:	4656      	mov	r6, sl
    2078:	4644      	mov	r4, r8
    207a:	465f      	mov	r7, fp
    207c:	464d      	mov	r5, r9
    207e:	2300      	movs	r3, #0
    2080:	b4f0      	push	{r4, r5, r6, r7}
    2082:	4c6e      	ldr	r4, [pc, #440]	; (223c <CascAnticoll+0x1c8>)
    2084:	b083      	sub	sp, #12
    2086:	9001      	str	r0, [sp, #4]
    2088:	70a3      	strb	r3, [r4, #2]
    208a:	70e3      	strb	r3, [r4, #3]
    208c:	7123      	strb	r3, [r4, #4]
    208e:	7163      	strb	r3, [r4, #5]
    2090:	71a3      	strb	r3, [r4, #6]
    2092:	2012      	movs	r0, #18
    2094:	4b6a      	ldr	r3, [pc, #424]	; (2240 <CascAnticoll+0x1cc>)
    2096:	468a      	mov	sl, r1
    2098:	1c16      	adds	r6, r2, #0
    209a:	2100      	movs	r1, #0
    209c:	2280      	movs	r2, #128	; 0x80
    209e:	4798      	blx	r3
    20a0:	2013      	movs	r0, #19
    20a2:	2100      	movs	r1, #0
    20a4:	2280      	movs	r2, #128	; 0x80
    20a6:	4b66      	ldr	r3, [pc, #408]	; (2240 <CascAnticoll+0x1cc>)
    20a8:	4798      	blx	r3
    20aa:	4b66      	ldr	r3, [pc, #408]	; (2244 <CascAnticoll+0x1d0>)
    20ac:	200e      	movs	r0, #14
    20ae:	2100      	movs	r1, #0
    20b0:	4698      	mov	r8, r3
    20b2:	4798      	blx	r3
    20b4:	4f64      	ldr	r7, [pc, #400]	; (2248 <CascAnticoll+0x1d4>)
    20b6:	4653      	mov	r3, sl
    20b8:	2b20      	cmp	r3, #32
    20ba:	d911      	bls.n	20e0 <CascAnticoll+0x6c>
    20bc:	2302      	movs	r3, #2
    20be:	33ff      	adds	r3, #255	; 0xff
    20c0:	4699      	mov	r9, r3
    20c2:	200d      	movs	r0, #13
    20c4:	2100      	movs	r1, #0
    20c6:	47c0      	blx	r8
    20c8:	200e      	movs	r0, #14
    20ca:	2180      	movs	r1, #128	; 0x80
    20cc:	47c0      	blx	r8
    20ce:	464b      	mov	r3, r9
    20d0:	b218      	sxth	r0, r3
    20d2:	b003      	add	sp, #12
    20d4:	bc3c      	pop	{r2, r3, r4, r5}
    20d6:	4690      	mov	r8, r2
    20d8:	4699      	mov	r9, r3
    20da:	46a2      	mov	sl, r4
    20dc:	46ab      	mov	fp, r5
    20de:	bdf0      	pop	{r4, r5, r6, r7, pc}
    20e0:	2307      	movs	r3, #7
    20e2:	4652      	mov	r2, sl
    20e4:	401a      	ands	r2, r3
    20e6:	4653      	mov	r3, sl
    20e8:	4693      	mov	fp, r2
    20ea:	08db      	lsrs	r3, r3, #3
    20ec:	2a00      	cmp	r2, #0
    20ee:	d100      	bne.n	20f2 <CascAnticoll+0x7e>
    20f0:	e090      	b.n	2214 <CascAnticoll+0x1a0>
    20f2:	466a      	mov	r2, sp
    20f4:	7912      	ldrb	r2, [r2, #4]
    20f6:	1c5d      	adds	r5, r3, #1
    20f8:	7022      	strb	r2, [r4, #0]
    20fa:	465a      	mov	r2, fp
    20fc:	011b      	lsls	r3, r3, #4
    20fe:	3220      	adds	r2, #32
    2100:	18d3      	adds	r3, r2, r3
    2102:	7063      	strb	r3, [r4, #1]
    2104:	7833      	ldrb	r3, [r6, #0]
    2106:	70a3      	strb	r3, [r4, #2]
    2108:	2d01      	cmp	r5, #1
    210a:	d00d      	beq.n	2128 <CascAnticoll+0xb4>
    210c:	7873      	ldrb	r3, [r6, #1]
    210e:	70e3      	strb	r3, [r4, #3]
    2110:	2d02      	cmp	r5, #2
    2112:	d009      	beq.n	2128 <CascAnticoll+0xb4>
    2114:	78b3      	ldrb	r3, [r6, #2]
    2116:	7123      	strb	r3, [r4, #4]
    2118:	2d03      	cmp	r5, #3
    211a:	d005      	beq.n	2128 <CascAnticoll+0xb4>
    211c:	78f3      	ldrb	r3, [r6, #3]
    211e:	7163      	strb	r3, [r4, #5]
    2120:	2d05      	cmp	r5, #5
    2122:	d101      	bne.n	2128 <CascAnticoll+0xb4>
    2124:	7933      	ldrb	r3, [r6, #4]
    2126:	71a3      	strb	r3, [r4, #6]
    2128:	465b      	mov	r3, fp
    212a:	0119      	lsls	r1, r3, #4
    212c:	4319      	orrs	r1, r3
    212e:	200d      	movs	r0, #13
    2130:	47c0      	blx	r8
    2132:	2300      	movs	r3, #0
    2134:	703b      	strb	r3, [r7, #0]
    2136:	707b      	strb	r3, [r7, #1]
    2138:	70bb      	strb	r3, [r7, #2]
    213a:	713b      	strb	r3, [r7, #4]
    213c:	80fb      	strh	r3, [r7, #6]
    213e:	723b      	strb	r3, [r7, #8]
    2140:	1cab      	adds	r3, r5, #2
    2142:	2280      	movs	r2, #128	; 0x80
    2144:	70fb      	strb	r3, [r7, #3]
    2146:	202a      	movs	r0, #42	; 0x2a
    2148:	4b3d      	ldr	r3, [pc, #244]	; (2240 <CascAnticoll+0x1cc>)
    214a:	2101      	movs	r1, #1
    214c:	4798      	blx	r3
    214e:	21a6      	movs	r1, #166	; 0xa6
    2150:	202b      	movs	r0, #43	; 0x2b
    2152:	47c0      	blx	r8
    2154:	4b3d      	ldr	r3, [pc, #244]	; (224c <CascAnticoll+0x1d8>)
    2156:	202a      	movs	r0, #42	; 0x2a
    2158:	4798      	blx	r3
    215a:	23f0      	movs	r3, #240	; 0xf0
    215c:	1c01      	adds	r1, r0, #0
    215e:	4019      	ands	r1, r3
    2160:	3bee      	subs	r3, #238	; 0xee
    2162:	4319      	orrs	r1, r3
    2164:	202a      	movs	r0, #42	; 0x2a
    2166:	47c0      	blx	r8
    2168:	202d      	movs	r0, #45	; 0x2d
    216a:	2164      	movs	r1, #100	; 0x64
    216c:	47c0      	blx	r8
    216e:	202c      	movs	r0, #44	; 0x2c
    2170:	2100      	movs	r1, #0
    2172:	47c0      	blx	r8
    2174:	4b36      	ldr	r3, [pc, #216]	; (2250 <CascAnticoll+0x1dc>)
    2176:	4798      	blx	r3
    2178:	4681      	mov	r9, r0
    217a:	2806      	cmp	r0, #6
    217c:	d001      	beq.n	2182 <CascAnticoll+0x10e>
    217e:	2800      	cmp	r0, #0
    2180:	d19f      	bne.n	20c2 <CascAnticoll+0x4e>
    2182:	793b      	ldrb	r3, [r7, #4]
    2184:	88fa      	ldrh	r2, [r7, #6]
    2186:	00d9      	lsls	r1, r3, #3
    2188:	469c      	mov	ip, r3
    218a:	465b      	mov	r3, fp
    218c:	1889      	adds	r1, r1, r2
    218e:	1ac9      	subs	r1, r1, r3
    2190:	b2c9      	uxtb	r1, r1
    2192:	448a      	add	sl, r1
    2194:	4653      	mov	r3, sl
    2196:	2b28      	cmp	r3, #40	; 0x28
    2198:	dc47      	bgt.n	222a <CascAnticoll+0x1b6>
    219a:	2a00      	cmp	r2, #0
    219c:	d002      	beq.n	21a4 <CascAnticoll+0x130>
    219e:	4663      	mov	r3, ip
    21a0:	3301      	adds	r3, #1
    21a2:	713b      	strb	r3, [r7, #4]
    21a4:	2300      	movs	r3, #0
    21a6:	469c      	mov	ip, r3
    21a8:	465b      	mov	r3, fp
    21aa:	2b00      	cmp	r3, #0
    21ac:	d007      	beq.n	21be <CascAnticoll+0x14a>
    21ae:	1e6b      	subs	r3, r5, #1
    21b0:	18f3      	adds	r3, r6, r3
    21b2:	7819      	ldrb	r1, [r3, #0]
    21b4:	7822      	ldrb	r2, [r4, #0]
    21b6:	430a      	orrs	r2, r1
    21b8:	701a      	strb	r2, [r3, #0]
    21ba:	2301      	movs	r3, #1
    21bc:	469c      	mov	ip, r3
    21be:	2304      	movs	r3, #4
    21c0:	1b5b      	subs	r3, r3, r5
    21c2:	469b      	mov	fp, r3
    21c4:	2200      	movs	r2, #0
    21c6:	2b00      	cmp	r3, #0
    21c8:	dd12      	ble.n	21f0 <CascAnticoll+0x17c>
    21ca:	4659      	mov	r1, fp
    21cc:	9100      	str	r1, [sp, #0]
    21ce:	1c01      	adds	r1, r0, #0
    21d0:	2300      	movs	r3, #0
    21d2:	4660      	mov	r0, ip
    21d4:	468c      	mov	ip, r1
    21d6:	18a1      	adds	r1, r4, r2
    21d8:	5c09      	ldrb	r1, [r1, r0]
    21da:	18b2      	adds	r2, r6, r2
    21dc:	5551      	strb	r1, [r2, r5]
    21de:	3301      	adds	r3, #1
    21e0:	9900      	ldr	r1, [sp, #0]
    21e2:	b2db      	uxtb	r3, r3
    21e4:	1e1a      	subs	r2, r3, #0
    21e6:	428a      	cmp	r2, r1
    21e8:	dbf5      	blt.n	21d6 <CascAnticoll+0x162>
    21ea:	4663      	mov	r3, ip
    21ec:	4684      	mov	ip, r0
    21ee:	1c18      	adds	r0, r3, #0
    21f0:	2806      	cmp	r0, #6
    21f2:	d01d      	beq.n	2230 <CascAnticoll+0x1bc>
    21f4:	4660      	mov	r0, ip
    21f6:	7833      	ldrb	r3, [r6, #0]
    21f8:	7871      	ldrb	r1, [r6, #1]
    21fa:	18a2      	adds	r2, r4, r2
    21fc:	4059      	eors	r1, r3
    21fe:	78b3      	ldrb	r3, [r6, #2]
    2200:	5c12      	ldrb	r2, [r2, r0]
    2202:	4059      	eors	r1, r3
    2204:	78f3      	ldrb	r3, [r6, #3]
    2206:	404b      	eors	r3, r1
    2208:	429a      	cmp	r2, r3
    220a:	d100      	bne.n	220e <CascAnticoll+0x19a>
    220c:	e759      	b.n	20c2 <CascAnticoll+0x4e>
    220e:	4b11      	ldr	r3, [pc, #68]	; (2254 <CascAnticoll+0x1e0>)
    2210:	4699      	mov	r9, r3
    2212:	e756      	b.n	20c2 <CascAnticoll+0x4e>
    2214:	1c1d      	adds	r5, r3, #0
    2216:	466b      	mov	r3, sp
    2218:	791b      	ldrb	r3, [r3, #4]
    221a:	7023      	strb	r3, [r4, #0]
    221c:	012b      	lsls	r3, r5, #4
    221e:	3320      	adds	r3, #32
    2220:	7063      	strb	r3, [r4, #1]
    2222:	2d00      	cmp	r5, #0
    2224:	d000      	beq.n	2228 <CascAnticoll+0x1b4>
    2226:	e76d      	b.n	2104 <CascAnticoll+0x90>
    2228:	e77e      	b.n	2128 <CascAnticoll+0xb4>
    222a:	2304      	movs	r3, #4
    222c:	4699      	mov	r9, r3
    222e:	e748      	b.n	20c2 <CascAnticoll+0x4e>
    2230:	4653      	mov	r3, sl
    2232:	466a      	mov	r2, sp
    2234:	7013      	strb	r3, [r2, #0]
    2236:	7813      	ldrb	r3, [r2, #0]
    2238:	469a      	mov	sl, r3
    223a:	e73c      	b.n	20b6 <CascAnticoll+0x42>
    223c:	20000948 	.word	0x20000948
    2240:	000023d9 	.word	0x000023d9
    2244:	00002359 	.word	0x00002359
    2248:	20000988 	.word	0x20000988
    224c:	00002389 	.word	0x00002389
    2250:	00001bf9 	.word	0x00001bf9
    2254:	00000501 	.word	0x00000501

00002258 <Select>:
    2258:	b5f0      	push	{r4, r5, r6, r7, lr}
    225a:	4647      	mov	r7, r8
    225c:	4680      	mov	r8, r0
    225e:	b480      	push	{r7}
    2260:	1c0c      	adds	r4, r1, #0
    2262:	2012      	movs	r0, #18
    2264:	2101      	movs	r1, #1
    2266:	4e36      	ldr	r6, [pc, #216]	; (2340 <Select+0xe8>)
    2268:	1c17      	adds	r7, r2, #0
    226a:	2280      	movs	r2, #128	; 0x80
    226c:	47b0      	blx	r6
    226e:	2280      	movs	r2, #128	; 0x80
    2270:	2013      	movs	r0, #19
    2272:	2101      	movs	r1, #1
    2274:	47b0      	blx	r6
    2276:	4643      	mov	r3, r8
    2278:	4d32      	ldr	r5, [pc, #200]	; (2344 <Select+0xec>)
    227a:	702b      	strb	r3, [r5, #0]
    227c:	2370      	movs	r3, #112	; 0x70
    227e:	706b      	strb	r3, [r5, #1]
    2280:	1c23      	adds	r3, r4, #0
    2282:	1caa      	adds	r2, r5, #2
    2284:	4313      	orrs	r3, r2
    2286:	079b      	lsls	r3, r3, #30
    2288:	d14a      	bne.n	2320 <Select+0xc8>
    228a:	2300      	movs	r3, #0
    228c:	1c18      	adds	r0, r3, #0
    228e:	1d21      	adds	r1, r4, #4
    2290:	428a      	cmp	r2, r1
    2292:	4158      	adcs	r0, r3
    2294:	1c01      	adds	r1, r0, #0
    2296:	1da8      	adds	r0, r5, #6
    2298:	4284      	cmp	r4, r0
    229a:	415b      	adcs	r3, r3
    229c:	430b      	orrs	r3, r1
    229e:	b2db      	uxtb	r3, r3
    22a0:	2b00      	cmp	r3, #0
    22a2:	d03d      	beq.n	2320 <Select+0xc8>
    22a4:	6823      	ldr	r3, [r4, #0]
    22a6:	0a19      	lsrs	r1, r3, #8
    22a8:	70ab      	strb	r3, [r5, #2]
    22aa:	70e9      	strb	r1, [r5, #3]
    22ac:	0c19      	lsrs	r1, r3, #16
    22ae:	0e1b      	lsrs	r3, r3, #24
    22b0:	7129      	strb	r1, [r5, #4]
    22b2:	716b      	strb	r3, [r5, #5]
    22b4:	7862      	ldrb	r2, [r4, #1]
    22b6:	7823      	ldrb	r3, [r4, #0]
    22b8:	202a      	movs	r0, #42	; 0x2a
    22ba:	4053      	eors	r3, r2
    22bc:	78a2      	ldrb	r2, [r4, #2]
    22be:	2101      	movs	r1, #1
    22c0:	4053      	eors	r3, r2
    22c2:	78e2      	ldrb	r2, [r4, #3]
    22c4:	4c20      	ldr	r4, [pc, #128]	; (2348 <Select+0xf0>)
    22c6:	4053      	eors	r3, r2
    22c8:	71ab      	strb	r3, [r5, #6]
    22ca:	2300      	movs	r3, #0
    22cc:	7023      	strb	r3, [r4, #0]
    22ce:	7063      	strb	r3, [r4, #1]
    22d0:	70a3      	strb	r3, [r4, #2]
    22d2:	7123      	strb	r3, [r4, #4]
    22d4:	80e3      	strh	r3, [r4, #6]
    22d6:	7223      	strb	r3, [r4, #8]
    22d8:	2307      	movs	r3, #7
    22da:	2280      	movs	r2, #128	; 0x80
    22dc:	70e3      	strb	r3, [r4, #3]
    22de:	47b0      	blx	r6
    22e0:	4e1a      	ldr	r6, [pc, #104]	; (234c <Select+0xf4>)
    22e2:	21a6      	movs	r1, #166	; 0xa6
    22e4:	202b      	movs	r0, #43	; 0x2b
    22e6:	47b0      	blx	r6
    22e8:	4b19      	ldr	r3, [pc, #100]	; (2350 <Select+0xf8>)
    22ea:	202a      	movs	r0, #42	; 0x2a
    22ec:	4798      	blx	r3
    22ee:	23f0      	movs	r3, #240	; 0xf0
    22f0:	1c01      	adds	r1, r0, #0
    22f2:	4019      	ands	r1, r3
    22f4:	3bee      	subs	r3, #238	; 0xee
    22f6:	4319      	orrs	r1, r3
    22f8:	202a      	movs	r0, #42	; 0x2a
    22fa:	47b0      	blx	r6
    22fc:	202d      	movs	r0, #45	; 0x2d
    22fe:	2114      	movs	r1, #20
    2300:	47b0      	blx	r6
    2302:	202c      	movs	r0, #44	; 0x2c
    2304:	2100      	movs	r1, #0
    2306:	47b0      	blx	r6
    2308:	4b12      	ldr	r3, [pc, #72]	; (2354 <Select+0xfc>)
    230a:	4798      	blx	r3
    230c:	2800      	cmp	r0, #0
    230e:	d103      	bne.n	2318 <Select+0xc0>
    2310:	7923      	ldrb	r3, [r4, #4]
    2312:	2b01      	cmp	r3, #1
    2314:	d00d      	beq.n	2332 <Select+0xda>
    2316:	2004      	movs	r0, #4
    2318:	b200      	sxth	r0, r0
    231a:	bc04      	pop	{r2}
    231c:	4690      	mov	r8, r2
    231e:	bdf0      	pop	{r4, r5, r6, r7, pc}
    2320:	7823      	ldrb	r3, [r4, #0]
    2322:	70ab      	strb	r3, [r5, #2]
    2324:	7863      	ldrb	r3, [r4, #1]
    2326:	70eb      	strb	r3, [r5, #3]
    2328:	78a3      	ldrb	r3, [r4, #2]
    232a:	712b      	strb	r3, [r5, #4]
    232c:	78e3      	ldrb	r3, [r4, #3]
    232e:	716b      	strb	r3, [r5, #5]
    2330:	e7c0      	b.n	22b4 <Select+0x5c>
    2332:	88e3      	ldrh	r3, [r4, #6]
    2334:	2b00      	cmp	r3, #0
    2336:	d1ee      	bne.n	2316 <Select+0xbe>
    2338:	782b      	ldrb	r3, [r5, #0]
    233a:	703b      	strb	r3, [r7, #0]
    233c:	e7ec      	b.n	2318 <Select+0xc0>
    233e:	46c0      	nop			; (mov r8, r8)
    2340:	000023d9 	.word	0x000023d9
    2344:	20000948 	.word	0x20000948
    2348:	20000988 	.word	0x20000988
    234c:	00002359 	.word	0x00002359
    2350:	00002389 	.word	0x00002389
    2354:	00001bf9 	.word	0x00001bf9

00002358 <RcSetReg>:
    2358:	b500      	push	{lr}
    235a:	b085      	sub	sp, #20
    235c:	466b      	mov	r3, sp
    235e:	7059      	strb	r1, [r3, #1]
    2360:	7018      	strb	r0, [r3, #0]
    2362:	2328      	movs	r3, #40	; 0x28
    2364:	a901      	add	r1, sp, #4
    2366:	800b      	strh	r3, [r1, #0]
    2368:	466b      	mov	r3, sp
    236a:	604b      	str	r3, [r1, #4]
    236c:	2302      	movs	r3, #2
    236e:	804b      	strh	r3, [r1, #2]
    2370:	2300      	movs	r3, #0
    2372:	4803      	ldr	r0, [pc, #12]	; (2380 <RcSetReg+0x28>)
    2374:	720b      	strb	r3, [r1, #8]
    2376:	724b      	strb	r3, [r1, #9]
    2378:	4b02      	ldr	r3, [pc, #8]	; (2384 <RcSetReg+0x2c>)
    237a:	4798      	blx	r3
    237c:	b005      	add	sp, #20
    237e:	bd00      	pop	{pc}
    2380:	20000994 	.word	0x20000994
    2384:	00000765 	.word	0x00000765

00002388 <RcGetReg>:
    2388:	b570      	push	{r4, r5, r6, lr}
    238a:	b08a      	sub	sp, #40	; 0x28
    238c:	466b      	mov	r3, sp
    238e:	a904      	add	r1, sp, #16
    2390:	71d8      	strb	r0, [r3, #7]
    2392:	3307      	adds	r3, #7
    2394:	2028      	movs	r0, #40	; 0x28
    2396:	604b      	str	r3, [r1, #4]
    2398:	250f      	movs	r5, #15
    239a:	2300      	movs	r3, #0
    239c:	2201      	movs	r2, #1
    239e:	4e0b      	ldr	r6, [pc, #44]	; (23cc <RcGetReg+0x44>)
    23a0:	ac07      	add	r4, sp, #28
    23a2:	8008      	strh	r0, [r1, #0]
    23a4:	720b      	strb	r3, [r1, #8]
    23a6:	724b      	strb	r3, [r1, #9]
    23a8:	8020      	strh	r0, [r4, #0]
    23aa:	446d      	add	r5, sp
    23ac:	7223      	strb	r3, [r4, #8]
    23ae:	7263      	strb	r3, [r4, #9]
    23b0:	1c30      	adds	r0, r6, #0
    23b2:	4b07      	ldr	r3, [pc, #28]	; (23d0 <RcGetReg+0x48>)
    23b4:	804a      	strh	r2, [r1, #2]
    23b6:	8062      	strh	r2, [r4, #2]
    23b8:	9508      	str	r5, [sp, #32]
    23ba:	4798      	blx	r3
    23bc:	1c30      	adds	r0, r6, #0
    23be:	1c21      	adds	r1, r4, #0
    23c0:	4b04      	ldr	r3, [pc, #16]	; (23d4 <RcGetReg+0x4c>)
    23c2:	4798      	blx	r3
    23c4:	7828      	ldrb	r0, [r5, #0]
    23c6:	b00a      	add	sp, #40	; 0x28
    23c8:	bd70      	pop	{r4, r5, r6, pc}
    23ca:	46c0      	nop			; (mov r8, r8)
    23cc:	20000994 	.word	0x20000994
    23d0:	00000765 	.word	0x00000765
    23d4:	00000749 	.word	0x00000749

000023d8 <RcModifyReg>:
    23d8:	b5f0      	push	{r4, r5, r6, r7, lr}
    23da:	4656      	mov	r6, sl
    23dc:	464d      	mov	r5, r9
    23de:	4644      	mov	r4, r8
    23e0:	465f      	mov	r7, fp
    23e2:	b4f0      	push	{r4, r5, r6, r7}
    23e4:	b089      	sub	sp, #36	; 0x24
    23e6:	466b      	mov	r3, sp
    23e8:	468a      	mov	sl, r1
    23ea:	2128      	movs	r1, #40	; 0x28
    23ec:	ad02      	add	r5, sp, #8
    23ee:	7198      	strb	r0, [r3, #6]
    23f0:	3306      	adds	r3, #6
    23f2:	ac05      	add	r4, sp, #20
    23f4:	606b      	str	r3, [r5, #4]
    23f6:	2300      	movs	r3, #0
    23f8:	8029      	strh	r1, [r5, #0]
    23fa:	8021      	strh	r1, [r4, #0]
    23fc:	4669      	mov	r1, sp
    23fe:	4691      	mov	r9, r2
    2400:	2201      	movs	r2, #1
    2402:	4f19      	ldr	r7, [pc, #100]	; (2468 <RcModifyReg+0x90>)
    2404:	722b      	strb	r3, [r5, #8]
    2406:	726b      	strb	r3, [r5, #9]
    2408:	7223      	strb	r3, [r4, #8]
    240a:	7263      	strb	r3, [r4, #9]
    240c:	4b17      	ldr	r3, [pc, #92]	; (246c <RcModifyReg+0x94>)
    240e:	1dce      	adds	r6, r1, #7
    2410:	4680      	mov	r8, r0
    2412:	1c29      	adds	r1, r5, #0
    2414:	1c38      	adds	r0, r7, #0
    2416:	806a      	strh	r2, [r5, #2]
    2418:	8062      	strh	r2, [r4, #2]
    241a:	469b      	mov	fp, r3
    241c:	6066      	str	r6, [r4, #4]
    241e:	4798      	blx	r3
    2420:	4b13      	ldr	r3, [pc, #76]	; (2470 <RcModifyReg+0x98>)
    2422:	1c38      	adds	r0, r7, #0
    2424:	1c21      	adds	r1, r4, #0
    2426:	4798      	blx	r3
    2428:	4652      	mov	r2, sl
    242a:	7833      	ldrb	r3, [r6, #0]
    242c:	2a00      	cmp	r2, #0
    242e:	d116      	bne.n	245e <RcModifyReg+0x86>
    2430:	464a      	mov	r2, r9
    2432:	4393      	bics	r3, r2
    2434:	706b      	strb	r3, [r5, #1]
    2436:	2328      	movs	r3, #40	; 0x28
    2438:	8023      	strh	r3, [r4, #0]
    243a:	3b26      	subs	r3, #38	; 0x26
    243c:	4642      	mov	r2, r8
    243e:	8063      	strh	r3, [r4, #2]
    2440:	2300      	movs	r3, #0
    2442:	1c38      	adds	r0, r7, #0
    2444:	1c21      	adds	r1, r4, #0
    2446:	702a      	strb	r2, [r5, #0]
    2448:	6065      	str	r5, [r4, #4]
    244a:	7223      	strb	r3, [r4, #8]
    244c:	7263      	strb	r3, [r4, #9]
    244e:	47d8      	blx	fp
    2450:	b009      	add	sp, #36	; 0x24
    2452:	bc3c      	pop	{r2, r3, r4, r5}
    2454:	4690      	mov	r8, r2
    2456:	4699      	mov	r9, r3
    2458:	46a2      	mov	sl, r4
    245a:	46ab      	mov	fp, r5
    245c:	bdf0      	pop	{r4, r5, r6, r7, pc}
    245e:	464a      	mov	r2, r9
    2460:	431a      	orrs	r2, r3
    2462:	1c13      	adds	r3, r2, #0
    2464:	e7e6      	b.n	2434 <RcModifyReg+0x5c>
    2466:	46c0      	nop			; (mov r8, r8)
    2468:	20000994 	.word	0x20000994
    246c:	00000765 	.word	0x00000765
    2470:	00000749 	.word	0x00000749

00002474 <TC3_callback>:
    2474:	b530      	push	{r4, r5, lr}
    2476:	4b15      	ldr	r3, [pc, #84]	; (24cc <TC3_callback+0x58>)
    2478:	4915      	ldr	r1, [pc, #84]	; (24d0 <TC3_callback+0x5c>)
    247a:	6a1c      	ldr	r4, [r3, #32]
    247c:	2301      	movs	r3, #1
    247e:	8808      	ldrh	r0, [r1, #0]
    2480:	4a14      	ldr	r2, [pc, #80]	; (24d4 <TC3_callback+0x60>)
    2482:	401c      	ands	r4, r3
    2484:	4290      	cmp	r0, r2
    2486:	d91e      	bls.n	24c6 <TC3_callback+0x52>
    2488:	4a13      	ldr	r2, [pc, #76]	; (24d8 <TC3_callback+0x64>)
    248a:	7013      	strb	r3, [r2, #0]
    248c:	2300      	movs	r3, #0
    248e:	800b      	strh	r3, [r1, #0]
    2490:	4b12      	ldr	r3, [pc, #72]	; (24dc <TC3_callback+0x68>)
    2492:	781a      	ldrb	r2, [r3, #0]
    2494:	3201      	adds	r2, #1
    2496:	b2d2      	uxtb	r2, r2
    2498:	701a      	strb	r2, [r3, #0]
    249a:	781a      	ldrb	r2, [r3, #0]
    249c:	2a01      	cmp	r2, #1
    249e:	d901      	bls.n	24a4 <TC3_callback+0x30>
    24a0:	2200      	movs	r2, #0
    24a2:	701a      	strb	r2, [r3, #0]
    24a4:	2501      	movs	r5, #1
    24a6:	781b      	ldrb	r3, [r3, #0]
    24a8:	880a      	ldrh	r2, [r1, #0]
    24aa:	005b      	lsls	r3, r3, #1
    24ac:	8808      	ldrh	r0, [r1, #0]
    24ae:	402a      	ands	r2, r5
    24b0:	189b      	adds	r3, r3, r2
    24b2:	025b      	lsls	r3, r3, #9
    24b4:	0842      	lsrs	r2, r0, #1
    24b6:	189b      	adds	r3, r3, r2
    24b8:	4a09      	ldr	r2, [pc, #36]	; (24e0 <TC3_callback+0x6c>)
    24ba:	549c      	strb	r4, [r3, r2]
    24bc:	880b      	ldrh	r3, [r1, #0]
    24be:	3301      	adds	r3, #1
    24c0:	b29b      	uxth	r3, r3
    24c2:	800b      	strh	r3, [r1, #0]
    24c4:	bd30      	pop	{r4, r5, pc}
    24c6:	4b05      	ldr	r3, [pc, #20]	; (24dc <TC3_callback+0x68>)
    24c8:	e7ec      	b.n	24a4 <TC3_callback+0x30>
    24ca:	46c0      	nop			; (mov r8, r8)
    24cc:	41004400 	.word	0x41004400
    24d0:	200008b4 	.word	0x200008b4
    24d4:	000003ff 	.word	0x000003ff
    24d8:	200000b0 	.word	0x200000b0
    24dc:	200000b1 	.word	0x200000b1
    24e0:	200000b4 	.word	0x200000b4

000024e4 <ASK_Run>:
    24e4:	b5f0      	push	{r4, r5, r6, r7, lr}
    24e6:	465f      	mov	r7, fp
    24e8:	4656      	mov	r6, sl
    24ea:	464d      	mov	r5, r9
    24ec:	4644      	mov	r4, r8
    24ee:	2300      	movs	r3, #0
    24f0:	b4f0      	push	{r4, r5, r6, r7}
    24f2:	b095      	sub	sp, #84	; 0x54
    24f4:	aa06      	add	r2, sp, #24
    24f6:	8093      	strh	r3, [r2, #4]
    24f8:	22c0      	movs	r2, #192	; 0xc0
    24fa:	00d2      	lsls	r2, r2, #3
    24fc:	4694      	mov	ip, r2
    24fe:	9308      	str	r3, [sp, #32]
    2500:	9309      	str	r3, [sp, #36]	; 0x24
    2502:	930c      	str	r3, [sp, #48]	; 0x30
    2504:	930d      	str	r3, [sp, #52]	; 0x34
    2506:	930e      	str	r3, [sp, #56]	; 0x38
    2508:	930f      	str	r3, [sp, #60]	; 0x3c
    250a:	9310      	str	r3, [sp, #64]	; 0x40
    250c:	9311      	str	r3, [sp, #68]	; 0x44
    250e:	9312      	str	r3, [sp, #72]	; 0x48
    2510:	9313      	str	r3, [sp, #76]	; 0x4c
    2512:	930a      	str	r3, [sp, #40]	; 0x28
    2514:	930b      	str	r3, [sp, #44]	; 0x2c
    2516:	4b33      	ldr	r3, [pc, #204]	; (25e4 <ASK_Run+0x100>)
    2518:	4463      	add	r3, ip
    251a:	9305      	str	r3, [sp, #20]
    251c:	4b32      	ldr	r3, [pc, #200]	; (25e8 <ASK_Run+0x104>)
    251e:	4798      	blx	r3
    2520:	4b32      	ldr	r3, [pc, #200]	; (25ec <ASK_Run+0x108>)
    2522:	781b      	ldrb	r3, [r3, #0]
    2524:	2b00      	cmp	r3, #0
    2526:	d0fb      	beq.n	2520 <ASK_Run+0x3c>
    2528:	4b2f      	ldr	r3, [pc, #188]	; (25e8 <ASK_Run+0x104>)
    252a:	4798      	blx	r3
    252c:	2200      	movs	r2, #0
    252e:	4b2f      	ldr	r3, [pc, #188]	; (25ec <ASK_Run+0x108>)
    2530:	af10      	add	r7, sp, #64	; 0x40
    2532:	701a      	strb	r2, [r3, #0]
    2534:	9b05      	ldr	r3, [sp, #20]
    2536:	469a      	mov	sl, r3
    2538:	ab07      	add	r3, sp, #28
    253a:	469b      	mov	fp, r3
    253c:	ab0c      	add	r3, sp, #48	; 0x30
    253e:	4699      	mov	r9, r3
    2540:	465a      	mov	r2, fp
    2542:	2300      	movs	r3, #0
    2544:	46c8      	mov	r8, r9
    2546:	46d3      	mov	fp, sl
    2548:	4699      	mov	r9, r3
    254a:	4692      	mov	sl, r2
    254c:	4e28      	ldr	r6, [pc, #160]	; (25f0 <ASK_Run+0x10c>)
    254e:	445e      	add	r6, fp
    2550:	e015      	b.n	257e <ASK_Run+0x9a>
    2552:	4653      	mov	r3, sl
    2554:	781b      	ldrb	r3, [r3, #0]
    2556:	7834      	ldrb	r4, [r6, #0]
    2558:	2500      	movs	r5, #0
    255a:	2b01      	cmp	r3, #1
    255c:	d01b      	beq.n	2596 <ASK_Run+0xb2>
    255e:	2b00      	cmp	r3, #0
    2560:	d100      	bne.n	2564 <ASK_Run+0x80>
    2562:	e1f4      	b.n	294e <ASK_Run+0x46a>
    2564:	2b02      	cmp	r3, #2
    2566:	d049      	beq.n	25fc <ASK_Run+0x118>
    2568:	2b03      	cmp	r3, #3
    256a:	d000      	beq.n	256e <ASK_Run+0x8a>
    256c:	e1eb      	b.n	2946 <ASK_Run+0x462>
    256e:	2302      	movs	r3, #2
    2570:	4652      	mov	r2, sl
    2572:	7013      	strb	r3, [r2, #0]
    2574:	3601      	adds	r6, #1
    2576:	603c      	str	r4, [r7, #0]
    2578:	607d      	str	r5, [r7, #4]
    257a:	45b3      	cmp	fp, r6
    257c:	d020      	beq.n	25c0 <ASK_Run+0xdc>
    257e:	4b1d      	ldr	r3, [pc, #116]	; (25f4 <ASK_Run+0x110>)
    2580:	781b      	ldrb	r3, [r3, #0]
    2582:	2b00      	cmp	r3, #0
    2584:	d0e5      	beq.n	2552 <ASK_Run+0x6e>
    2586:	4b1c      	ldr	r3, [pc, #112]	; (25f8 <ASK_Run+0x114>)
    2588:	2500      	movs	r5, #0
    258a:	18f3      	adds	r3, r6, r3
    258c:	781c      	ldrb	r4, [r3, #0]
    258e:	4653      	mov	r3, sl
    2590:	781b      	ldrb	r3, [r3, #0]
    2592:	2b01      	cmp	r3, #1
    2594:	d1e3      	bne.n	255e <ASK_Run+0x7a>
    2596:	683b      	ldr	r3, [r7, #0]
    2598:	42a3      	cmp	r3, r4
    259a:	d100      	bne.n	259e <ASK_Run+0xba>
    259c:	e204      	b.n	29a8 <ASK_Run+0x4c4>
    259e:	2108      	movs	r1, #8
    25a0:	464a      	mov	r2, r9
    25a2:	ab06      	add	r3, sp, #24
    25a4:	2008      	movs	r0, #8
    25a6:	185b      	adds	r3, r3, r1
    25a8:	4649      	mov	r1, r9
    25aa:	589b      	ldr	r3, [r3, r2]
    25ac:	aa06      	add	r2, sp, #24
    25ae:	9300      	str	r3, [sp, #0]
    25b0:	1812      	adds	r2, r2, r0
    25b2:	3301      	adds	r3, #1
    25b4:	3601      	adds	r6, #1
    25b6:	5053      	str	r3, [r2, r1]
    25b8:	603c      	str	r4, [r7, #0]
    25ba:	607d      	str	r5, [r7, #4]
    25bc:	45b3      	cmp	fp, r6
    25be:	d1de      	bne.n	257e <ASK_Run+0x9a>
    25c0:	2380      	movs	r3, #128	; 0x80
    25c2:	009b      	lsls	r3, r3, #2
    25c4:	469c      	mov	ip, r3
    25c6:	2301      	movs	r3, #1
    25c8:	44e3      	add	fp, ip
    25ca:	469c      	mov	ip, r3
    25cc:	3303      	adds	r3, #3
    25ce:	44e2      	add	sl, ip
    25d0:	469c      	mov	ip, r3
    25d2:	3304      	adds	r3, #4
    25d4:	44e1      	add	r9, ip
    25d6:	469c      	mov	ip, r3
    25d8:	464b      	mov	r3, r9
    25da:	3708      	adds	r7, #8
    25dc:	44e0      	add	r8, ip
    25de:	2b08      	cmp	r3, #8
    25e0:	d1b4      	bne.n	254c <ASK_Run+0x68>
    25e2:	e79b      	b.n	251c <ASK_Run+0x38>
    25e4:	200000b4 	.word	0x200000b4
    25e8:	0000120d 	.word	0x0000120d
    25ec:	200000b0 	.word	0x200000b0
    25f0:	fffffe00 	.word	0xfffffe00
    25f4:	200000b1 	.word	0x200000b1
    25f8:	fffffc00 	.word	0xfffffc00
    25fc:	683b      	ldr	r3, [r7, #0]
    25fe:	42a3      	cmp	r3, r4
    2600:	d100      	bne.n	2604 <ASK_Run+0x120>
    2602:	e1b0      	b.n	2966 <ASK_Run+0x482>
    2604:	4643      	mov	r3, r8
    2606:	681a      	ldr	r2, [r3, #0]
    2608:	685b      	ldr	r3, [r3, #4]
    260a:	1892      	adds	r2, r2, r2
    260c:	415b      	adcs	r3, r3
    260e:	9203      	str	r2, [sp, #12]
    2610:	9300      	str	r3, [sp, #0]
    2612:	2c01      	cmp	r4, #1
    2614:	d100      	bne.n	2618 <ASK_Run+0x134>
    2616:	e214      	b.n	2a42 <ASK_Run+0x55e>
    2618:	4641      	mov	r1, r8
    261a:	c10c      	stmia	r1!, {r2, r3}
    261c:	2303      	movs	r3, #3
    261e:	4652      	mov	r2, sl
    2620:	2110      	movs	r1, #16
    2622:	7013      	strb	r3, [r2, #0]
    2624:	464a      	mov	r2, r9
    2626:	ab06      	add	r3, sp, #24
    2628:	2010      	movs	r0, #16
    262a:	185b      	adds	r3, r3, r1
    262c:	4649      	mov	r1, r9
    262e:	589b      	ldr	r3, [r3, r2]
    2630:	aa06      	add	r2, sp, #24
    2632:	9302      	str	r3, [sp, #8]
    2634:	1812      	adds	r2, r2, r0
    2636:	3301      	adds	r3, #1
    2638:	5053      	str	r3, [r2, r1]
    263a:	2b40      	cmp	r3, #64	; 0x40
    263c:	d19a      	bne.n	2574 <ASK_Run+0x90>
    263e:	9900      	ldr	r1, [sp, #0]
    2640:	9b03      	ldr	r3, [sp, #12]
    2642:	06ca      	lsls	r2, r1, #27
    2644:	095b      	lsrs	r3, r3, #5
    2646:	4313      	orrs	r3, r2
    2648:	0948      	lsrs	r0, r1, #5
    264a:	221f      	movs	r2, #31
    264c:	1c19      	adds	r1, r3, #0
    264e:	4694      	mov	ip, r2
    2650:	4011      	ands	r1, r2
    2652:	4ac7      	ldr	r2, [pc, #796]	; (2970 <ASK_Run+0x48c>)
    2654:	0089      	lsls	r1, r1, #2
    2656:	5851      	ldr	r1, [r2, r1]
    2658:	2900      	cmp	r1, #0
    265a:	d100      	bne.n	265e <ASK_Run+0x17a>
    265c:	e173      	b.n	2946 <ASK_Run+0x462>
    265e:	06c0      	lsls	r0, r0, #27
    2660:	9900      	ldr	r1, [sp, #0]
    2662:	095b      	lsrs	r3, r3, #5
    2664:	4303      	orrs	r3, r0
    2666:	4662      	mov	r2, ip
    2668:	0a88      	lsrs	r0, r1, #10
    266a:	1c19      	adds	r1, r3, #0
    266c:	4011      	ands	r1, r2
    266e:	4ac0      	ldr	r2, [pc, #768]	; (2970 <ASK_Run+0x48c>)
    2670:	0089      	lsls	r1, r1, #2
    2672:	5851      	ldr	r1, [r2, r1]
    2674:	2900      	cmp	r1, #0
    2676:	d100      	bne.n	267a <ASK_Run+0x196>
    2678:	e165      	b.n	2946 <ASK_Run+0x462>
    267a:	06c0      	lsls	r0, r0, #27
    267c:	095b      	lsrs	r3, r3, #5
    267e:	4303      	orrs	r3, r0
    2680:	4662      	mov	r2, ip
    2682:	1c18      	adds	r0, r3, #0
    2684:	4010      	ands	r0, r2
    2686:	4aba      	ldr	r2, [pc, #744]	; (2970 <ASK_Run+0x48c>)
    2688:	0080      	lsls	r0, r0, #2
    268a:	9900      	ldr	r1, [sp, #0]
    268c:	5810      	ldr	r0, [r2, r0]
    268e:	0bc9      	lsrs	r1, r1, #15
    2690:	2800      	cmp	r0, #0
    2692:	d100      	bne.n	2696 <ASK_Run+0x1b2>
    2694:	e157      	b.n	2946 <ASK_Run+0x462>
    2696:	06c9      	lsls	r1, r1, #27
    2698:	095b      	lsrs	r3, r3, #5
    269a:	430b      	orrs	r3, r1
    269c:	9900      	ldr	r1, [sp, #0]
    269e:	4662      	mov	r2, ip
    26a0:	0d08      	lsrs	r0, r1, #20
    26a2:	1c19      	adds	r1, r3, #0
    26a4:	4011      	ands	r1, r2
    26a6:	4ab2      	ldr	r2, [pc, #712]	; (2970 <ASK_Run+0x48c>)
    26a8:	0089      	lsls	r1, r1, #2
    26aa:	5851      	ldr	r1, [r2, r1]
    26ac:	2900      	cmp	r1, #0
    26ae:	d100      	bne.n	26b2 <ASK_Run+0x1ce>
    26b0:	e149      	b.n	2946 <ASK_Run+0x462>
    26b2:	06c0      	lsls	r0, r0, #27
    26b4:	9900      	ldr	r1, [sp, #0]
    26b6:	095b      	lsrs	r3, r3, #5
    26b8:	4303      	orrs	r3, r0
    26ba:	4662      	mov	r2, ip
    26bc:	0e48      	lsrs	r0, r1, #25
    26be:	1c19      	adds	r1, r3, #0
    26c0:	4011      	ands	r1, r2
    26c2:	4aab      	ldr	r2, [pc, #684]	; (2970 <ASK_Run+0x48c>)
    26c4:	0089      	lsls	r1, r1, #2
    26c6:	5851      	ldr	r1, [r2, r1]
    26c8:	2900      	cmp	r1, #0
    26ca:	d100      	bne.n	26ce <ASK_Run+0x1ea>
    26cc:	e13b      	b.n	2946 <ASK_Run+0x462>
    26ce:	06c0      	lsls	r0, r0, #27
    26d0:	095b      	lsrs	r3, r3, #5
    26d2:	4303      	orrs	r3, r0
    26d4:	4662      	mov	r2, ip
    26d6:	1c18      	adds	r0, r3, #0
    26d8:	4010      	ands	r0, r2
    26da:	4aa5      	ldr	r2, [pc, #660]	; (2970 <ASK_Run+0x48c>)
    26dc:	0080      	lsls	r0, r0, #2
    26de:	9900      	ldr	r1, [sp, #0]
    26e0:	5810      	ldr	r0, [r2, r0]
    26e2:	0f89      	lsrs	r1, r1, #30
    26e4:	2800      	cmp	r0, #0
    26e6:	d100      	bne.n	26ea <ASK_Run+0x206>
    26e8:	e12d      	b.n	2946 <ASK_Run+0x462>
    26ea:	06c9      	lsls	r1, r1, #27
    26ec:	095b      	lsrs	r3, r3, #5
    26ee:	430b      	orrs	r3, r1
    26f0:	1c10      	adds	r0, r2, #0
    26f2:	1c19      	adds	r1, r3, #0
    26f4:	4662      	mov	r2, ip
    26f6:	4011      	ands	r1, r2
    26f8:	0089      	lsls	r1, r1, #2
    26fa:	5841      	ldr	r1, [r0, r1]
    26fc:	2900      	cmp	r1, #0
    26fe:	d100      	bne.n	2702 <ASK_Run+0x21e>
    2700:	e121      	b.n	2946 <ASK_Run+0x462>
    2702:	0959      	lsrs	r1, r3, #5
    2704:	4011      	ands	r1, r2
    2706:	0089      	lsls	r1, r1, #2
    2708:	5841      	ldr	r1, [r0, r1]
    270a:	2900      	cmp	r1, #0
    270c:	d100      	bne.n	2710 <ASK_Run+0x22c>
    270e:	e11a      	b.n	2946 <ASK_Run+0x462>
    2710:	0a9b      	lsrs	r3, r3, #10
    2712:	401a      	ands	r2, r3
    2714:	0092      	lsls	r2, r2, #2
    2716:	5882      	ldr	r2, [r0, r2]
    2718:	2a00      	cmp	r2, #0
    271a:	d100      	bne.n	271e <ASK_Run+0x23a>
    271c:	e113      	b.n	2946 <ASK_Run+0x462>
    271e:	059b      	lsls	r3, r3, #22
    2720:	0edb      	lsrs	r3, r3, #27
    2722:	009b      	lsls	r3, r3, #2
    2724:	58c3      	ldr	r3, [r0, r3]
    2726:	2b00      	cmp	r3, #0
    2728:	d100      	bne.n	272c <ASK_Run+0x248>
    272a:	e10c      	b.n	2946 <ASK_Run+0x462>
    272c:	4a91      	ldr	r2, [pc, #580]	; (2974 <ASK_Run+0x490>)
    272e:	9800      	ldr	r0, [sp, #0]
    2730:	9b03      	ldr	r3, [sp, #12]
    2732:	4991      	ldr	r1, [pc, #580]	; (2978 <ASK_Run+0x494>)
    2734:	4010      	ands	r0, r2
    2736:	4019      	ands	r1, r3
    2738:	1c03      	adds	r3, r0, #0
    273a:	0842      	lsrs	r2, r0, #1
    273c:	488f      	ldr	r0, [pc, #572]	; (297c <ASK_Run+0x498>)
    273e:	4002      	ands	r2, r0
    2740:	1a9a      	subs	r2, r3, r2
    2742:	1c10      	adds	r0, r2, #0
    2744:	4b8e      	ldr	r3, [pc, #568]	; (2980 <ASK_Run+0x49c>)
    2746:	0892      	lsrs	r2, r2, #2
    2748:	401a      	ands	r2, r3
    274a:	4018      	ands	r0, r3
    274c:	1810      	adds	r0, r2, r0
    274e:	9002      	str	r0, [sp, #8]
    2750:	488a      	ldr	r0, [pc, #552]	; (297c <ASK_Run+0x498>)
    2752:	084a      	lsrs	r2, r1, #1
    2754:	4002      	ands	r2, r0
    2756:	1a89      	subs	r1, r1, r2
    2758:	1c0a      	adds	r2, r1, #0
    275a:	0889      	lsrs	r1, r1, #2
    275c:	401a      	ands	r2, r3
    275e:	4019      	ands	r1, r3
    2760:	1888      	adds	r0, r1, r2
    2762:	9004      	str	r0, [sp, #16]
    2764:	9a03      	ldr	r2, [sp, #12]
    2766:	4887      	ldr	r0, [pc, #540]	; (2984 <ASK_Run+0x4a0>)
    2768:	9900      	ldr	r1, [sp, #0]
    276a:	4010      	ands	r0, r2
    276c:	4a86      	ldr	r2, [pc, #536]	; (2988 <ASK_Run+0x4a4>)
    276e:	4011      	ands	r1, r2
    2770:	468c      	mov	ip, r1
    2772:	084a      	lsrs	r2, r1, #1
    2774:	4981      	ldr	r1, [pc, #516]	; (297c <ASK_Run+0x498>)
    2776:	400a      	ands	r2, r1
    2778:	4661      	mov	r1, ip
    277a:	1a8a      	subs	r2, r1, r2
    277c:	1c11      	adds	r1, r2, #0
    277e:	0892      	lsrs	r2, r2, #2
    2780:	401a      	ands	r2, r3
    2782:	4694      	mov	ip, r2
    2784:	4019      	ands	r1, r3
    2786:	448c      	add	ip, r1
    2788:	497c      	ldr	r1, [pc, #496]	; (297c <ASK_Run+0x498>)
    278a:	0842      	lsrs	r2, r0, #1
    278c:	400a      	ands	r2, r1
    278e:	1a80      	subs	r0, r0, r2
    2790:	1c02      	adds	r2, r0, #0
    2792:	4661      	mov	r1, ip
    2794:	0880      	lsrs	r0, r0, #2
    2796:	4018      	ands	r0, r3
    2798:	401a      	ands	r2, r3
    279a:	1882      	adds	r2, r0, r2
    279c:	0908      	lsrs	r0, r1, #4
    279e:	1c01      	adds	r1, r0, #0
    27a0:	487a      	ldr	r0, [pc, #488]	; (298c <ASK_Run+0x4a8>)
    27a2:	4461      	add	r1, ip
    27a4:	4001      	ands	r1, r0
    27a6:	0208      	lsls	r0, r1, #8
    27a8:	1841      	adds	r1, r0, r1
    27aa:	0408      	lsls	r0, r1, #16
    27ac:	1808      	adds	r0, r1, r0
    27ae:	0e01      	lsrs	r1, r0, #24
    27b0:	0910      	lsrs	r0, r2, #4
    27b2:	1882      	adds	r2, r0, r2
    27b4:	4875      	ldr	r0, [pc, #468]	; (298c <ASK_Run+0x4a8>)
    27b6:	4002      	ands	r2, r0
    27b8:	0210      	lsls	r0, r2, #8
    27ba:	1882      	adds	r2, r0, r2
    27bc:	0410      	lsls	r0, r2, #16
    27be:	1810      	adds	r0, r2, r0
    27c0:	0e00      	lsrs	r0, r0, #24
    27c2:	1808      	adds	r0, r1, r0
    27c4:	9902      	ldr	r1, [sp, #8]
    27c6:	468c      	mov	ip, r1
    27c8:	090a      	lsrs	r2, r1, #4
    27ca:	4970      	ldr	r1, [pc, #448]	; (298c <ASK_Run+0x4a8>)
    27cc:	4462      	add	r2, ip
    27ce:	400a      	ands	r2, r1
    27d0:	0211      	lsls	r1, r2, #8
    27d2:	188a      	adds	r2, r1, r2
    27d4:	0411      	lsls	r1, r2, #16
    27d6:	1852      	adds	r2, r2, r1
    27d8:	0e11      	lsrs	r1, r2, #24
    27da:	9a04      	ldr	r2, [sp, #16]
    27dc:	9102      	str	r1, [sp, #8]
    27de:	4694      	mov	ip, r2
    27e0:	0911      	lsrs	r1, r2, #4
    27e2:	4a6a      	ldr	r2, [pc, #424]	; (298c <ASK_Run+0x4a8>)
    27e4:	4461      	add	r1, ip
    27e6:	4011      	ands	r1, r2
    27e8:	020a      	lsls	r2, r1, #8
    27ea:	1851      	adds	r1, r2, r1
    27ec:	040a      	lsls	r2, r1, #16
    27ee:	188a      	adds	r2, r1, r2
    27f0:	9902      	ldr	r1, [sp, #8]
    27f2:	0e12      	lsrs	r2, r2, #24
    27f4:	468c      	mov	ip, r1
    27f6:	2101      	movs	r1, #1
    27f8:	4462      	add	r2, ip
    27fa:	4302      	orrs	r2, r0
    27fc:	4211      	tst	r1, r2
    27fe:	d000      	beq.n	2802 <ASK_Run+0x31e>
    2800:	e0a1      	b.n	2946 <ASK_Run+0x462>
    2802:	9a03      	ldr	r2, [sp, #12]
    2804:	4962      	ldr	r1, [pc, #392]	; (2990 <ASK_Run+0x4ac>)
    2806:	9800      	ldr	r0, [sp, #0]
    2808:	4011      	ands	r1, r2
    280a:	4a62      	ldr	r2, [pc, #392]	; (2994 <ASK_Run+0x4b0>)
    280c:	468c      	mov	ip, r1
    280e:	4010      	ands	r0, r2
    2810:	495a      	ldr	r1, [pc, #360]	; (297c <ASK_Run+0x498>)
    2812:	0842      	lsrs	r2, r0, #1
    2814:	400a      	ands	r2, r1
    2816:	1a82      	subs	r2, r0, r2
    2818:	1c10      	adds	r0, r2, #0
    281a:	0892      	lsrs	r2, r2, #2
    281c:	401a      	ands	r2, r3
    281e:	4018      	ands	r0, r3
    2820:	1810      	adds	r0, r2, r0
    2822:	4662      	mov	r2, ip
    2824:	0852      	lsrs	r2, r2, #1
    2826:	400a      	ands	r2, r1
    2828:	4661      	mov	r1, ip
    282a:	1a89      	subs	r1, r1, r2
    282c:	1c0a      	adds	r2, r1, #0
    282e:	0889      	lsrs	r1, r1, #2
    2830:	401a      	ands	r2, r3
    2832:	4019      	ands	r1, r3
    2834:	1889      	adds	r1, r1, r2
    2836:	9104      	str	r1, [sp, #16]
    2838:	9a03      	ldr	r2, [sp, #12]
    283a:	4957      	ldr	r1, [pc, #348]	; (2998 <ASK_Run+0x4b4>)
    283c:	9002      	str	r0, [sp, #8]
    283e:	4011      	ands	r1, r2
    2840:	468c      	mov	ip, r1
    2842:	4a56      	ldr	r2, [pc, #344]	; (299c <ASK_Run+0x4b8>)
    2844:	9800      	ldr	r0, [sp, #0]
    2846:	494d      	ldr	r1, [pc, #308]	; (297c <ASK_Run+0x498>)
    2848:	4010      	ands	r0, r2
    284a:	0842      	lsrs	r2, r0, #1
    284c:	400a      	ands	r2, r1
    284e:	1a82      	subs	r2, r0, r2
    2850:	1c10      	adds	r0, r2, #0
    2852:	4661      	mov	r1, ip
    2854:	0892      	lsrs	r2, r2, #2
    2856:	4018      	ands	r0, r3
    2858:	401a      	ands	r2, r3
    285a:	1812      	adds	r2, r2, r0
    285c:	0848      	lsrs	r0, r1, #1
    285e:	4947      	ldr	r1, [pc, #284]	; (297c <ASK_Run+0x498>)
    2860:	4008      	ands	r0, r1
    2862:	4661      	mov	r1, ip
    2864:	1a09      	subs	r1, r1, r0
    2866:	1c08      	adds	r0, r1, #0
    2868:	0889      	lsrs	r1, r1, #2
    286a:	4018      	ands	r0, r3
    286c:	4019      	ands	r1, r3
    286e:	180b      	adds	r3, r1, r0
    2870:	0918      	lsrs	r0, r3, #4
    2872:	18c3      	adds	r3, r0, r3
    2874:	9802      	ldr	r0, [sp, #8]
    2876:	0911      	lsrs	r1, r2, #4
    2878:	4684      	mov	ip, r0
    287a:	188a      	adds	r2, r1, r2
    287c:	4943      	ldr	r1, [pc, #268]	; (298c <ASK_Run+0x4a8>)
    287e:	400a      	ands	r2, r1
    2880:	0211      	lsls	r1, r2, #8
    2882:	188a      	adds	r2, r1, r2
    2884:	0411      	lsls	r1, r2, #16
    2886:	1851      	adds	r1, r2, r1
    2888:	0e0a      	lsrs	r2, r1, #24
    288a:	4940      	ldr	r1, [pc, #256]	; (298c <ASK_Run+0x4a8>)
    288c:	4019      	ands	r1, r3
    288e:	020b      	lsls	r3, r1, #8
    2890:	185b      	adds	r3, r3, r1
    2892:	0419      	lsls	r1, r3, #16
    2894:	1859      	adds	r1, r3, r1
    2896:	0903      	lsrs	r3, r0, #4
    2898:	483c      	ldr	r0, [pc, #240]	; (298c <ASK_Run+0x4a8>)
    289a:	4463      	add	r3, ip
    289c:	4018      	ands	r0, r3
    289e:	0203      	lsls	r3, r0, #8
    28a0:	181b      	adds	r3, r3, r0
    28a2:	0418      	lsls	r0, r3, #16
    28a4:	1818      	adds	r0, r3, r0
    28a6:	9b04      	ldr	r3, [sp, #16]
    28a8:	0e09      	lsrs	r1, r1, #24
    28aa:	469c      	mov	ip, r3
    28ac:	1851      	adds	r1, r2, r1
    28ae:	091a      	lsrs	r2, r3, #4
    28b0:	4b36      	ldr	r3, [pc, #216]	; (298c <ASK_Run+0x4a8>)
    28b2:	4462      	add	r2, ip
    28b4:	401a      	ands	r2, r3
    28b6:	0213      	lsls	r3, r2, #8
    28b8:	189a      	adds	r2, r3, r2
    28ba:	0413      	lsls	r3, r2, #16
    28bc:	18d3      	adds	r3, r2, r3
    28be:	0e00      	lsrs	r0, r0, #24
    28c0:	0e1b      	lsrs	r3, r3, #24
    28c2:	18c0      	adds	r0, r0, r3
    28c4:	4301      	orrs	r1, r0
    28c6:	2001      	movs	r0, #1
    28c8:	4208      	tst	r0, r1
    28ca:	d13c      	bne.n	2946 <ASK_Run+0x462>
    28cc:	2301      	movs	r3, #1
    28ce:	9a03      	ldr	r2, [sp, #12]
    28d0:	421a      	tst	r2, r3
    28d2:	d138      	bne.n	2946 <ASK_Run+0x462>
    28d4:	9b00      	ldr	r3, [sp, #0]
    28d6:	025b      	lsls	r3, r3, #9
    28d8:	0a5b      	lsrs	r3, r3, #9
    28da:	4313      	orrs	r3, r2
    28dc:	d033      	beq.n	2946 <ASK_Run+0x462>
    28de:	1c10      	adds	r0, r2, #0
    28e0:	9900      	ldr	r1, [sp, #0]
    28e2:	0d52      	lsrs	r2, r2, #21
    28e4:	02cb      	lsls	r3, r1, #11
    28e6:	431a      	orrs	r2, r3
    28e8:	0689      	lsls	r1, r1, #26
    28ea:	0983      	lsrs	r3, r0, #6
    28ec:	430b      	orrs	r3, r1
    28ee:	210f      	movs	r1, #15
    28f0:	400b      	ands	r3, r1
    28f2:	1c19      	adds	r1, r3, #0
    28f4:	9b00      	ldr	r3, [sp, #0]
    28f6:	0312      	lsls	r2, r2, #12
    28f8:	4311      	orrs	r1, r2
    28fa:	055a      	lsls	r2, r3, #21
    28fc:	0ac3      	lsrs	r3, r0, #11
    28fe:	4313      	orrs	r3, r2
    2900:	22ff      	movs	r2, #255	; 0xff
    2902:	011b      	lsls	r3, r3, #4
    2904:	4013      	ands	r3, r2
    2906:	1c0a      	adds	r2, r1, #0
    2908:	431a      	orrs	r2, r3
    290a:	9b00      	ldr	r3, [sp, #0]
    290c:	0419      	lsls	r1, r3, #16
    290e:	0c03      	lsrs	r3, r0, #16
    2910:	430b      	orrs	r3, r1
    2912:	210f      	movs	r1, #15
    2914:	400b      	ands	r3, r1
    2916:	0219      	lsls	r1, r3, #8
    2918:	9b00      	ldr	r3, [sp, #0]
    291a:	430a      	orrs	r2, r1
    291c:	b291      	uxth	r1, r2
    291e:	005a      	lsls	r2, r3, #1
    2920:	0fc3      	lsrs	r3, r0, #31
    2922:	4313      	orrs	r3, r2
    2924:	9a00      	ldr	r2, [sp, #0]
    2926:	0e80      	lsrs	r0, r0, #26
    2928:	0192      	lsls	r2, r2, #6
    292a:	4310      	orrs	r0, r2
    292c:	1c02      	adds	r2, r0, #0
    292e:	200f      	movs	r0, #15
    2930:	011b      	lsls	r3, r3, #4
    2932:	4010      	ands	r0, r2
    2934:	4303      	orrs	r3, r0
    2936:	b2d8      	uxtb	r0, r3
    2938:	4b19      	ldr	r3, [pc, #100]	; (29a0 <ASK_Run+0x4bc>)
    293a:	0400      	lsls	r0, r0, #16
    293c:	1808      	adds	r0, r1, r0
    293e:	781a      	ldrb	r2, [r3, #0]
    2940:	2100      	movs	r1, #0
    2942:	4b18      	ldr	r3, [pc, #96]	; (29a4 <ASK_Run+0x4c0>)
    2944:	4798      	blx	r3
    2946:	4653      	mov	r3, sl
    2948:	2200      	movs	r2, #0
    294a:	701a      	strb	r2, [r3, #0]
    294c:	e612      	b.n	2574 <ASK_Run+0x90>
    294e:	2c00      	cmp	r4, #0
    2950:	d000      	beq.n	2954 <ASK_Run+0x470>
    2952:	e60f      	b.n	2574 <ASK_Run+0x90>
    2954:	683b      	ldr	r3, [r7, #0]
    2956:	687a      	ldr	r2, [r7, #4]
    2958:	4313      	orrs	r3, r2
    295a:	d000      	beq.n	295e <ASK_Run+0x47a>
    295c:	e60a      	b.n	2574 <ASK_Run+0x90>
    295e:	4653      	mov	r3, sl
    2960:	2201      	movs	r2, #1
    2962:	701a      	strb	r2, [r3, #0]
    2964:	e606      	b.n	2574 <ASK_Run+0x90>
    2966:	687b      	ldr	r3, [r7, #4]
    2968:	2b00      	cmp	r3, #0
    296a:	d000      	beq.n	296e <ASK_Run+0x48a>
    296c:	e64a      	b.n	2604 <ASK_Run+0x120>
    296e:	e7ea      	b.n	2946 <ASK_Run+0x462>
    2970:	00003df0 	.word	0x00003df0
    2974:	00084210 	.word	0x00084210
    2978:	84210842 	.word	0x84210842
    297c:	55555555 	.word	0x55555555
    2980:	33333333 	.word	0x33333333
    2984:	08421084 	.word	0x08421084
    2988:	00108421 	.word	0x00108421
    298c:	0f0f0f0f 	.word	0x0f0f0f0f
    2990:	10842108 	.word	0x10842108
    2994:	00210842 	.word	0x00210842
    2998:	21084210 	.word	0x21084210
    299c:	00421084 	.word	0x00421084
    29a0:	20000944 	.word	0x20000944
    29a4:	00001a3d 	.word	0x00001a3d
    29a8:	687b      	ldr	r3, [r7, #4]
    29aa:	2b00      	cmp	r3, #0
    29ac:	d000      	beq.n	29b0 <ASK_Run+0x4cc>
    29ae:	e5f6      	b.n	259e <ASK_Run+0xba>
    29b0:	2108      	movs	r1, #8
    29b2:	464a      	mov	r2, r9
    29b4:	ab06      	add	r3, sp, #24
    29b6:	185b      	adds	r3, r3, r1
    29b8:	589b      	ldr	r3, [r3, r2]
    29ba:	2b10      	cmp	r3, #16
    29bc:	dd3a      	ble.n	2a34 <ASK_Run+0x550>
    29be:	4640      	mov	r0, r8
    29c0:	2100      	movs	r1, #0
    29c2:	2200      	movs	r2, #0
    29c4:	6001      	str	r1, [r0, #0]
    29c6:	6042      	str	r2, [r0, #4]
    29c8:	2010      	movs	r0, #16
    29ca:	aa06      	add	r2, sp, #24
    29cc:	1812      	adds	r2, r2, r0
    29ce:	4649      	mov	r1, r9
    29d0:	2000      	movs	r0, #0
    29d2:	3301      	adds	r3, #1
    29d4:	105b      	asrs	r3, r3, #1
    29d6:	5050      	str	r0, [r2, r1]
    29d8:	1c19      	adds	r1, r3, #0
    29da:	2200      	movs	r2, #0
    29dc:	2300      	movs	r3, #0
    29de:	4684      	mov	ip, r0
    29e0:	9200      	str	r2, [sp, #0]
    29e2:	9301      	str	r3, [sp, #4]
    29e4:	2900      	cmp	r1, #0
    29e6:	dd22      	ble.n	2a2e <ASK_Run+0x54a>
    29e8:	1c08      	adds	r0, r1, #0
    29ea:	9702      	str	r7, [sp, #8]
    29ec:	4661      	mov	r1, ip
    29ee:	1c27      	adds	r7, r4, #0
    29f0:	46ac      	mov	ip, r5
    29f2:	9603      	str	r6, [sp, #12]
    29f4:	1c14      	adds	r4, r2, #0
    29f6:	1c1d      	adds	r5, r3, #0
    29f8:	2601      	movs	r6, #1
    29fa:	18a4      	adds	r4, r4, r2
    29fc:	415d      	adcs	r5, r3
    29fe:	3101      	adds	r1, #1
    2a00:	4326      	orrs	r6, r4
    2a02:	1c32      	adds	r2, r6, #0
    2a04:	1c2b      	adds	r3, r5, #0
    2a06:	4281      	cmp	r1, r0
    2a08:	d1f4      	bne.n	29f4 <ASK_Run+0x510>
    2a0a:	9200      	str	r2, [sp, #0]
    2a0c:	9301      	str	r3, [sp, #4]
    2a0e:	4665      	mov	r5, ip
    2a10:	2310      	movs	r3, #16
    2a12:	468c      	mov	ip, r1
    2a14:	a906      	add	r1, sp, #24
    2a16:	18c9      	adds	r1, r1, r3
    2a18:	4648      	mov	r0, r9
    2a1a:	4663      	mov	r3, ip
    2a1c:	500b      	str	r3, [r1, r0]
    2a1e:	4643      	mov	r3, r8
    2a20:	9900      	ldr	r1, [sp, #0]
    2a22:	9a01      	ldr	r2, [sp, #4]
    2a24:	6019      	str	r1, [r3, #0]
    2a26:	605a      	str	r2, [r3, #4]
    2a28:	1c3c      	adds	r4, r7, #0
    2a2a:	9e03      	ldr	r6, [sp, #12]
    2a2c:	9f02      	ldr	r7, [sp, #8]
    2a2e:	2302      	movs	r3, #2
    2a30:	4652      	mov	r2, sl
    2a32:	7013      	strb	r3, [r2, #0]
    2a34:	2108      	movs	r1, #8
    2a36:	ab06      	add	r3, sp, #24
    2a38:	185b      	adds	r3, r3, r1
    2a3a:	464a      	mov	r2, r9
    2a3c:	2100      	movs	r1, #0
    2a3e:	5099      	str	r1, [r3, r2]
    2a40:	e598      	b.n	2574 <ASK_Run+0x90>
    2a42:	1c21      	adds	r1, r4, #0
    2a44:	4640      	mov	r0, r8
    2a46:	4311      	orrs	r1, r2
    2a48:	9103      	str	r1, [sp, #12]
    2a4a:	6001      	str	r1, [r0, #0]
    2a4c:	6043      	str	r3, [r0, #4]
    2a4e:	e5e5      	b.n	261c <ASK_Run+0x138>

00002a50 <ASK_Init>:
    2a50:	b570      	push	{r4, r5, r6, lr}
    2a52:	2500      	movs	r5, #0
    2a54:	2400      	movs	r4, #0
    2a56:	b08e      	sub	sp, #56	; 0x38
    2a58:	4e24      	ldr	r6, [pc, #144]	; (2aec <ASK_Init+0x9c>)
    2a5a:	47b0      	blx	r6
    2a5c:	4b24      	ldr	r3, [pc, #144]	; (2af0 <ASK_Init+0xa0>)
    2a5e:	701d      	strb	r5, [r3, #0]
    2a60:	4b24      	ldr	r3, [pc, #144]	; (2af4 <ASK_Init+0xa4>)
    2a62:	801d      	strh	r5, [r3, #0]
    2a64:	4b24      	ldr	r3, [pc, #144]	; (2af8 <ASK_Init+0xa8>)
    2a66:	701c      	strb	r4, [r3, #0]
    2a68:	4b24      	ldr	r3, [pc, #144]	; (2afc <ASK_Init+0xac>)
    2a6a:	4798      	blx	r3
    2a6c:	2320      	movs	r3, #32
    2a6e:	aa01      	add	r2, sp, #4
    2a70:	7014      	strb	r4, [r2, #0]
    2a72:	7094      	strb	r4, [r2, #2]
    2a74:	7054      	strb	r4, [r2, #1]
    2a76:	7294      	strb	r4, [r2, #10]
    2a78:	72d4      	strb	r4, [r2, #11]
    2a7a:	7314      	strb	r4, [r2, #12]
    2a7c:	7394      	strb	r4, [r2, #14]
    2a7e:	7354      	strb	r4, [r2, #13]
    2a80:	7414      	strb	r4, [r2, #16]
    2a82:	7714      	strb	r4, [r2, #28]
    2a84:	7193      	strb	r3, [r2, #6]
    2a86:	4c1e      	ldr	r4, [pc, #120]	; (2b00 <ASK_Init+0xb0>)
    2a88:	4b1e      	ldr	r3, [pc, #120]	; (2b04 <ASK_Init+0xb4>)
    2a8a:	6155      	str	r5, [r2, #20]
    2a8c:	8553      	strh	r3, [r2, #42]	; 0x2a
    2a8e:	6195      	str	r5, [r2, #24]
    2a90:	6215      	str	r5, [r2, #32]
    2a92:	6255      	str	r5, [r2, #36]	; 0x24
    2a94:	491c      	ldr	r1, [pc, #112]	; (2b08 <ASK_Init+0xb8>)
    2a96:	4b1d      	ldr	r3, [pc, #116]	; (2b0c <ASK_Init+0xbc>)
    2a98:	1c20      	adds	r0, r4, #0
    2a9a:	8095      	strh	r5, [r2, #4]
    2a9c:	8115      	strh	r5, [r2, #8]
    2a9e:	8515      	strh	r5, [r2, #40]	; 0x28
    2aa0:	8595      	strh	r5, [r2, #44]	; 0x2c
    2aa2:	4798      	blx	r3
    2aa4:	491a      	ldr	r1, [pc, #104]	; (2b10 <ASK_Init+0xc0>)
    2aa6:	2202      	movs	r2, #2
    2aa8:	4b1a      	ldr	r3, [pc, #104]	; (2b14 <ASK_Init+0xc4>)
    2aaa:	1c20      	adds	r0, r4, #0
    2aac:	4798      	blx	r3
    2aae:	4b1a      	ldr	r3, [pc, #104]	; (2b18 <ASK_Init+0xc8>)
    2ab0:	6820      	ldr	r0, [r4, #0]
    2ab2:	4798      	blx	r3
    2ab4:	221f      	movs	r2, #31
    2ab6:	4b19      	ldr	r3, [pc, #100]	; (2b1c <ASK_Init+0xcc>)
    2ab8:	217f      	movs	r1, #127	; 0x7f
    2aba:	5c1b      	ldrb	r3, [r3, r0]
    2abc:	4013      	ands	r3, r2
    2abe:	3a1e      	subs	r2, #30
    2ac0:	409a      	lsls	r2, r3
    2ac2:	1c13      	adds	r3, r2, #0
    2ac4:	4a16      	ldr	r2, [pc, #88]	; (2b20 <ASK_Init+0xd0>)
    2ac6:	6013      	str	r3, [r2, #0]
    2ac8:	2310      	movs	r3, #16
    2aca:	7e62      	ldrb	r2, [r4, #25]
    2acc:	4313      	orrs	r3, r2
    2ace:	7663      	strb	r3, [r4, #25]
    2ad0:	2310      	movs	r3, #16
    2ad2:	6822      	ldr	r2, [r4, #0]
    2ad4:	7353      	strb	r3, [r2, #13]
    2ad6:	7bd3      	ldrb	r3, [r2, #15]
    2ad8:	438b      	bics	r3, r1
    2ada:	d1fc      	bne.n	2ad6 <ASK_Init+0x86>
    2adc:	8811      	ldrh	r1, [r2, #0]
    2ade:	3302      	adds	r3, #2
    2ae0:	430b      	orrs	r3, r1
    2ae2:	8013      	strh	r3, [r2, #0]
    2ae4:	47b0      	blx	r6
    2ae6:	b00e      	add	sp, #56	; 0x38
    2ae8:	bd70      	pop	{r4, r5, r6, pc}
    2aea:	46c0      	nop			; (mov r8, r8)
    2aec:	0000120d 	.word	0x0000120d
    2af0:	200000b1 	.word	0x200000b1
    2af4:	200008b4 	.word	0x200008b4
    2af8:	200000b0 	.word	0x200000b0
    2afc:	00001221 	.word	0x00001221
    2b00:	200008b8 	.word	0x200008b8
    2b04:	000017ff 	.word	0x000017ff
    2b08:	42002c00 	.word	0x42002c00
    2b0c:	00000df1 	.word	0x00000df1
    2b10:	00002475 	.word	0x00002475
    2b14:	00000b19 	.word	0x00000b19
    2b18:	00000d8d 	.word	0x00000d8d
    2b1c:	00003e70 	.word	0x00003e70
    2b20:	e000e100 	.word	0xe000e100

00002b24 <Mifare_Init>:
    2b24:	2364      	movs	r3, #100	; 0x64
    2b26:	b570      	push	{r4, r5, r6, lr}
    2b28:	b08a      	sub	sp, #40	; 0x28
    2b2a:	466a      	mov	r2, sp
    2b2c:	9300      	str	r3, [sp, #0]
    2b2e:	2300      	movs	r3, #0
    2b30:	7113      	strb	r3, [r2, #4]
    2b32:	7413      	strb	r3, [r2, #16]
    2b34:	2280      	movs	r2, #128	; 0x80
    2b36:	4669      	mov	r1, sp
    2b38:	0392      	lsls	r2, r2, #14
    2b3a:	9202      	str	r2, [sp, #8]
    2b3c:	2201      	movs	r2, #1
    2b3e:	770b      	strb	r3, [r1, #28]
    2b40:	9308      	str	r3, [sp, #32]
    2b42:	33d7      	adds	r3, #215	; 0xd7
    2b44:	848b      	strh	r3, [r1, #36]	; 0x24
    2b46:	4b19      	ldr	r3, [pc, #100]	; (2bac <Mifare_Init+0x88>)
    2b48:	4252      	negs	r2, r2
    2b4a:	81cb      	strh	r3, [r1, #14]
    2b4c:	4b18      	ldr	r3, [pc, #96]	; (2bb0 <Mifare_Init+0x8c>)
    2b4e:	4c19      	ldr	r4, [pc, #100]	; (2bb4 <Mifare_Init+0x90>)
    2b50:	9305      	str	r3, [sp, #20]
    2b52:	4b19      	ldr	r3, [pc, #100]	; (2bb8 <Mifare_Init+0x94>)
    2b54:	4d19      	ldr	r5, [pc, #100]	; (2bbc <Mifare_Init+0x98>)
    2b56:	818a      	strh	r2, [r1, #12]
    2b58:	9306      	str	r3, [sp, #24]
    2b5a:	1c20      	adds	r0, r4, #0
    2b5c:	4918      	ldr	r1, [pc, #96]	; (2bc0 <Mifare_Init+0x9c>)
    2b5e:	466a      	mov	r2, sp
    2b60:	47a8      	blx	r5
    2b62:	2800      	cmp	r0, #0
    2b64:	d1f9      	bne.n	2b5a <Mifare_Init+0x36>
    2b66:	6822      	ldr	r2, [r4, #0]
    2b68:	8a13      	ldrh	r3, [r2, #16]
    2b6a:	0bdb      	lsrs	r3, r3, #15
    2b6c:	d1fc      	bne.n	2b68 <Mifare_Init+0x44>
    2b6e:	6811      	ldr	r1, [r2, #0]
    2b70:	3302      	adds	r3, #2
    2b72:	430b      	orrs	r3, r1
    2b74:	6013      	str	r3, [r2, #0]
    2b76:	88e4      	ldrh	r4, [r4, #6]
    2b78:	2300      	movs	r3, #0
    2b7a:	2010      	movs	r0, #16
    2b7c:	e002      	b.n	2b84 <Mifare_Init+0x60>
    2b7e:	3301      	adds	r3, #1
    2b80:	42a3      	cmp	r3, r4
    2b82:	d210      	bcs.n	2ba6 <Mifare_Init+0x82>
    2b84:	8a11      	ldrh	r1, [r2, #16]
    2b86:	4208      	tst	r0, r1
    2b88:	d0f9      	beq.n	2b7e <Mifare_Init+0x5a>
    2b8a:	2680      	movs	r6, #128	; 0x80
    2b8c:	4d0d      	ldr	r5, [pc, #52]	; (2bc4 <Mifare_Init+0xa0>)
    2b8e:	0276      	lsls	r6, r6, #9
    2b90:	4c0d      	ldr	r4, [pc, #52]	; (2bc8 <Mifare_Init+0xa4>)
    2b92:	616e      	str	r6, [r5, #20]
    2b94:	2064      	movs	r0, #100	; 0x64
    2b96:	47a0      	blx	r4
    2b98:	2064      	movs	r0, #100	; 0x64
    2b9a:	61ae      	str	r6, [r5, #24]
    2b9c:	47a0      	blx	r4
    2b9e:	4b0b      	ldr	r3, [pc, #44]	; (2bcc <Mifare_Init+0xa8>)
    2ba0:	4798      	blx	r3
    2ba2:	b00a      	add	sp, #40	; 0x28
    2ba4:	bd70      	pop	{r4, r5, r6, pc}
    2ba6:	2310      	movs	r3, #16
    2ba8:	8213      	strh	r3, [r2, #16]
    2baa:	e7ee      	b.n	2b8a <Mifare_Init+0x66>
    2bac:	00002710 	.word	0x00002710
    2bb0:	00160002 	.word	0x00160002
    2bb4:	20000994 	.word	0x20000994
    2bb8:	00170002 	.word	0x00170002
    2bbc:	000005d5 	.word	0x000005d5
    2bc0:	42001400 	.word	0x42001400
    2bc4:	41004400 	.word	0x41004400
    2bc8:	0000036d 	.word	0x0000036d
    2bcc:	00001e21 	.word	0x00001e21

00002bd0 <Mifare_Run>:
    2bd0:	b5f0      	push	{r4, r5, r6, r7, lr}
    2bd2:	465f      	mov	r7, fp
    2bd4:	4656      	mov	r6, sl
    2bd6:	464d      	mov	r5, r9
    2bd8:	4644      	mov	r4, r8
    2bda:	4b17      	ldr	r3, [pc, #92]	; (2c38 <Mifare_Run+0x68>)
    2bdc:	b4f0      	push	{r4, r5, r6, r7}
    2bde:	469a      	mov	sl, r3
    2be0:	4b16      	ldr	r3, [pc, #88]	; (2c3c <Mifare_Run+0x6c>)
    2be2:	250b      	movs	r5, #11
    2be4:	4699      	mov	r9, r3
    2be6:	4b16      	ldr	r3, [pc, #88]	; (2c40 <Mifare_Run+0x70>)
    2be8:	270a      	movs	r7, #10
    2bea:	469b      	mov	fp, r3
    2bec:	4b15      	ldr	r3, [pc, #84]	; (2c44 <Mifare_Run+0x74>)
    2bee:	26ff      	movs	r6, #255	; 0xff
    2bf0:	4698      	mov	r8, r3
    2bf2:	b087      	sub	sp, #28
    2bf4:	446d      	add	r5, sp
    2bf6:	ac04      	add	r4, sp, #16
    2bf8:	446f      	add	r7, sp
    2bfa:	2005      	movs	r0, #5
    2bfc:	702e      	strb	r6, [r5, #0]
    2bfe:	47d0      	blx	sl
    2c00:	9700      	str	r7, [sp, #0]
    2c02:	2026      	movs	r0, #38	; 0x26
    2c04:	a903      	add	r1, sp, #12
    2c06:	1c22      	adds	r2, r4, #0
    2c08:	1c2b      	adds	r3, r5, #0
    2c0a:	47c8      	blx	r9
    2c0c:	2800      	cmp	r0, #0
    2c0e:	d001      	beq.n	2c14 <Mifare_Run+0x44>
    2c10:	47c0      	blx	r8
    2c12:	e7f2      	b.n	2bfa <Mifare_Run+0x2a>
    2c14:	7823      	ldrb	r3, [r4, #0]
    2c16:	2100      	movs	r1, #0
    2c18:	0618      	lsls	r0, r3, #24
    2c1a:	7863      	ldrb	r3, [r4, #1]
    2c1c:	041b      	lsls	r3, r3, #16
    2c1e:	18c3      	adds	r3, r0, r3
    2c20:	78e0      	ldrb	r0, [r4, #3]
    2c22:	181b      	adds	r3, r3, r0
    2c24:	78a0      	ldrb	r0, [r4, #2]
    2c26:	0200      	lsls	r0, r0, #8
    2c28:	1818      	adds	r0, r3, r0
    2c2a:	465b      	mov	r3, fp
    2c2c:	781a      	ldrb	r2, [r3, #0]
    2c2e:	4b06      	ldr	r3, [pc, #24]	; (2c48 <Mifare_Run+0x78>)
    2c30:	4798      	blx	r3
    2c32:	47c0      	blx	r8
    2c34:	e7e1      	b.n	2bfa <Mifare_Run+0x2a>
    2c36:	46c0      	nop			; (mov r8, r8)
    2c38:	00001f6d 	.word	0x00001f6d
    2c3c:	00002c4d 	.word	0x00002c4d
    2c40:	20000944 	.word	0x20000944
    2c44:	0000120d 	.word	0x0000120d
    2c48:	00001a3d 	.word	0x00001a3d

00002c4c <ActivateCard>:
    2c4c:	b5f8      	push	{r3, r4, r5, r6, r7, lr}
    2c4e:	1c1d      	adds	r5, r3, #0
    2c50:	4b15      	ldr	r3, [pc, #84]	; (2ca8 <ActivateCard+0x5c>)
    2c52:	1c14      	adds	r4, r2, #0
    2c54:	4798      	blx	r3
    2c56:	2800      	cmp	r0, #0
    2c58:	d001      	beq.n	2c5e <ActivateCard+0x12>
    2c5a:	b200      	sxth	r0, r0
    2c5c:	bdf8      	pop	{r3, r4, r5, r6, r7, pc}
    2c5e:	3093      	adds	r0, #147	; 0x93
    2c60:	2100      	movs	r1, #0
    2c62:	1c22      	adds	r2, r4, #0
    2c64:	4e11      	ldr	r6, [pc, #68]	; (2cac <ActivateCard+0x60>)
    2c66:	47b0      	blx	r6
    2c68:	2800      	cmp	r0, #0
    2c6a:	d1f6      	bne.n	2c5a <ActivateCard+0xe>
    2c6c:	3093      	adds	r0, #147	; 0x93
    2c6e:	1c21      	adds	r1, r4, #0
    2c70:	9a06      	ldr	r2, [sp, #24]
    2c72:	4f0f      	ldr	r7, [pc, #60]	; (2cb0 <ActivateCard+0x64>)
    2c74:	47b8      	blx	r7
    2c76:	2800      	cmp	r0, #0
    2c78:	d1ef      	bne.n	2c5a <ActivateCard+0xe>
    2c7a:	2304      	movs	r3, #4
    2c7c:	9a06      	ldr	r2, [sp, #24]
    2c7e:	7812      	ldrb	r2, [r2, #0]
    2c80:	4213      	tst	r3, r2
    2c82:	d101      	bne.n	2c88 <ActivateCard+0x3c>
    2c84:	702b      	strb	r3, [r5, #0]
    2c86:	e7e8      	b.n	2c5a <ActivateCard+0xe>
    2c88:	3404      	adds	r4, #4
    2c8a:	3095      	adds	r0, #149	; 0x95
    2c8c:	2100      	movs	r1, #0
    2c8e:	1c22      	adds	r2, r4, #0
    2c90:	47b0      	blx	r6
    2c92:	2800      	cmp	r0, #0
    2c94:	d1e1      	bne.n	2c5a <ActivateCard+0xe>
    2c96:	3095      	adds	r0, #149	; 0x95
    2c98:	1c21      	adds	r1, r4, #0
    2c9a:	9a06      	ldr	r2, [sp, #24]
    2c9c:	47b8      	blx	r7
    2c9e:	2800      	cmp	r0, #0
    2ca0:	d1db      	bne.n	2c5a <ActivateCard+0xe>
    2ca2:	2308      	movs	r3, #8
    2ca4:	702b      	strb	r3, [r5, #0]
    2ca6:	e7d8      	b.n	2c5a <ActivateCard+0xe>
    2ca8:	00001f91 	.word	0x00001f91
    2cac:	00002075 	.word	0x00002075
    2cb0:	00002259 	.word	0x00002259

00002cb4 <TxWiegandPacket>:
    2cb4:	b5f8      	push	{r3, r4, r5, r6, r7, lr}
    2cb6:	465f      	mov	r7, fp
    2cb8:	4656      	mov	r6, sl
    2cba:	464d      	mov	r5, r9
    2cbc:	4644      	mov	r4, r8
    2cbe:	b4f0      	push	{r4, r5, r6, r7}
    2cc0:	2a1a      	cmp	r2, #26
    2cc2:	d060      	beq.n	2d86 <TxWiegandPacket+0xd2>
    2cc4:	2a22      	cmp	r2, #34	; 0x22
    2cc6:	d02d      	beq.n	2d24 <TxWiegandPacket+0x70>
    2cc8:	1e54      	subs	r4, r2, #1
    2cca:	b2e4      	uxtb	r4, r4
    2ccc:	b263      	sxtb	r3, r4
    2cce:	2b00      	cmp	r3, #0
    2cd0:	db53      	blt.n	2d7a <TxWiegandPacket+0xc6>
    2cd2:	4680      	mov	r8, r0
    2cd4:	1c0d      	adds	r5, r1, #0
    2cd6:	2220      	movs	r2, #32
    2cd8:	4e40      	ldr	r6, [pc, #256]	; (2ddc <TxWiegandPacket+0x128>)
    2cda:	4691      	mov	r9, r2
    2cdc:	2701      	movs	r7, #1
    2cde:	e014      	b.n	2d0a <TxWiegandPacket+0x56>
    2ce0:	4b3f      	ldr	r3, [pc, #252]	; (2de0 <TxWiegandPacket+0x12c>)
    2ce2:	469a      	mov	sl, r3
    2ce4:	2380      	movs	r3, #128	; 0x80
    2ce6:	009b      	lsls	r3, r3, #2
    2ce8:	469b      	mov	fp, r3
    2cea:	4653      	mov	r3, sl
    2cec:	465a      	mov	r2, fp
    2cee:	2064      	movs	r0, #100	; 0x64
    2cf0:	619a      	str	r2, [r3, #24]
    2cf2:	47b0      	blx	r6
    2cf4:	4653      	mov	r3, sl
    2cf6:	465a      	mov	r2, fp
    2cf8:	20fa      	movs	r0, #250	; 0xfa
    2cfa:	3c01      	subs	r4, #1
    2cfc:	615a      	str	r2, [r3, #20]
    2cfe:	00c0      	lsls	r0, r0, #3
    2d00:	b2e4      	uxtb	r4, r4
    2d02:	47b0      	blx	r6
    2d04:	b263      	sxtb	r3, r4
    2d06:	2b00      	cmp	r3, #0
    2d08:	db37      	blt.n	2d7a <TxWiegandPacket+0xc6>
    2d0a:	2220      	movs	r2, #32
    2d0c:	4252      	negs	r2, r2
    2d0e:	189a      	adds	r2, r3, r2
    2d10:	d429      	bmi.n	2d66 <TxWiegandPacket+0xb2>
    2d12:	1c2b      	adds	r3, r5, #0
    2d14:	40d3      	lsrs	r3, r2
    2d16:	423b      	tst	r3, r7
    2d18:	d1e2      	bne.n	2ce0 <TxWiegandPacket+0x2c>
    2d1a:	4b31      	ldr	r3, [pc, #196]	; (2de0 <TxWiegandPacket+0x12c>)
    2d1c:	469a      	mov	sl, r3
    2d1e:	2380      	movs	r3, #128	; 0x80
    2d20:	005b      	lsls	r3, r3, #1
    2d22:	e7e1      	b.n	2ce8 <TxWiegandPacket+0x34>
    2d24:	1c06      	adds	r6, r0, #0
    2d26:	2700      	movs	r7, #0
    2d28:	2500      	movs	r5, #0
    2d2a:	0c03      	lsrs	r3, r0, #16
    2d2c:	d006      	beq.n	2d3c <TxWiegandPacket+0x88>
    2d2e:	2001      	movs	r0, #1
    2d30:	1c01      	adds	r1, r0, #0
    2d32:	4019      	ands	r1, r3
    2d34:	404d      	eors	r5, r1
    2d36:	085b      	lsrs	r3, r3, #1
    2d38:	d1fa      	bne.n	2d30 <TxWiegandPacket+0x7c>
    2d3a:	006d      	lsls	r5, r5, #1
    2d3c:	0433      	lsls	r3, r6, #16
    2d3e:	0c1b      	lsrs	r3, r3, #16
    2d40:	d047      	beq.n	2dd2 <TxWiegandPacket+0x11e>
    2d42:	2400      	movs	r4, #0
    2d44:	2101      	movs	r1, #1
    2d46:	1c08      	adds	r0, r1, #0
    2d48:	4018      	ands	r0, r3
    2d4a:	4044      	eors	r4, r0
    2d4c:	085b      	lsrs	r3, r3, #1
    2d4e:	d1fa      	bne.n	2d46 <TxWiegandPacket+0x92>
    2d50:	2001      	movs	r0, #1
    2d52:	43a0      	bics	r0, r4
    2d54:	19b6      	adds	r6, r6, r6
    2d56:	417f      	adcs	r7, r7
    2d58:	4330      	orrs	r0, r6
    2d5a:	4680      	mov	r8, r0
    2d5c:	433d      	orrs	r5, r7
    2d5e:	1e54      	subs	r4, r2, #1
    2d60:	b2e4      	uxtb	r4, r4
    2d62:	b263      	sxtb	r3, r4
    2d64:	e7b7      	b.n	2cd6 <TxWiegandPacket+0x22>
    2d66:	464a      	mov	r2, r9
    2d68:	1c29      	adds	r1, r5, #0
    2d6a:	1ad2      	subs	r2, r2, r3
    2d6c:	4091      	lsls	r1, r2
    2d6e:	1c0a      	adds	r2, r1, #0
    2d70:	4641      	mov	r1, r8
    2d72:	40d9      	lsrs	r1, r3
    2d74:	1c0b      	adds	r3, r1, #0
    2d76:	4313      	orrs	r3, r2
    2d78:	e7cd      	b.n	2d16 <TxWiegandPacket+0x62>
    2d7a:	bc3c      	pop	{r2, r3, r4, r5}
    2d7c:	4690      	mov	r8, r2
    2d7e:	4699      	mov	r9, r3
    2d80:	46a2      	mov	sl, r4
    2d82:	46ab      	mov	fp, r5
    2d84:	bdf8      	pop	{r3, r4, r5, r6, r7, pc}
    2d86:	2300      	movs	r3, #0
    2d88:	0200      	lsls	r0, r0, #8
    2d8a:	0a06      	lsrs	r6, r0, #8
    2d8c:	0b30      	lsrs	r0, r6, #12
    2d8e:	469c      	mov	ip, r3
    2d90:	2700      	movs	r7, #0
    2d92:	1e03      	subs	r3, r0, #0
    2d94:	d009      	beq.n	2daa <TxWiegandPacket+0xf6>
    2d96:	2000      	movs	r0, #0
    2d98:	2401      	movs	r4, #1
    2d9a:	1c21      	adds	r1, r4, #0
    2d9c:	4019      	ands	r1, r3
    2d9e:	4048      	eors	r0, r1
    2da0:	085b      	lsrs	r3, r3, #1
    2da2:	d1fa      	bne.n	2d9a <TxWiegandPacket+0xe6>
    2da4:	09c3      	lsrs	r3, r0, #7
    2da6:	469c      	mov	ip, r3
    2da8:	0640      	lsls	r0, r0, #25
    2daa:	0533      	lsls	r3, r6, #20
    2dac:	0d1b      	lsrs	r3, r3, #20
    2dae:	d012      	beq.n	2dd6 <TxWiegandPacket+0x122>
    2db0:	2400      	movs	r4, #0
    2db2:	2501      	movs	r5, #1
    2db4:	1c29      	adds	r1, r5, #0
    2db6:	4019      	ands	r1, r3
    2db8:	404c      	eors	r4, r1
    2dba:	085b      	lsrs	r3, r3, #1
    2dbc:	d1fa      	bne.n	2db4 <TxWiegandPacket+0x100>
    2dbe:	3301      	adds	r3, #1
    2dc0:	43a3      	bics	r3, r4
    2dc2:	19b6      	adds	r6, r6, r6
    2dc4:	417f      	adcs	r7, r7
    2dc6:	4665      	mov	r5, ip
    2dc8:	4330      	orrs	r0, r6
    2dca:	4318      	orrs	r0, r3
    2dcc:	4680      	mov	r8, r0
    2dce:	433d      	orrs	r5, r7
    2dd0:	e7c5      	b.n	2d5e <TxWiegandPacket+0xaa>
    2dd2:	2001      	movs	r0, #1
    2dd4:	e7be      	b.n	2d54 <TxWiegandPacket+0xa0>
    2dd6:	2301      	movs	r3, #1
    2dd8:	e7f3      	b.n	2dc2 <TxWiegandPacket+0x10e>
    2dda:	46c0      	nop			; (mov r8, r8)
    2ddc:	0000033d 	.word	0x0000033d
    2de0:	41004400 	.word	0x41004400

00002de4 <system_board_init>:
    2de4:	4770      	bx	lr
    2de6:	46c0      	nop			; (mov r8, r8)

00002de8 <cpu_irq_enter_critical>:
    2de8:	4b0b      	ldr	r3, [pc, #44]	; (2e18 <cpu_irq_enter_critical+0x30>)
    2dea:	681a      	ldr	r2, [r3, #0]
    2dec:	2a00      	cmp	r2, #0
    2dee:	d105      	bne.n	2dfc <cpu_irq_enter_critical+0x14>
    2df0:	f3ef 8110 	mrs	r1, PRIMASK
    2df4:	2900      	cmp	r1, #0
    2df6:	d005      	beq.n	2e04 <cpu_irq_enter_critical+0x1c>
    2df8:	4908      	ldr	r1, [pc, #32]	; (2e1c <cpu_irq_enter_critical+0x34>)
    2dfa:	700a      	strb	r2, [r1, #0]
    2dfc:	681a      	ldr	r2, [r3, #0]
    2dfe:	3201      	adds	r2, #1
    2e00:	601a      	str	r2, [r3, #0]
    2e02:	4770      	bx	lr
    2e04:	b672      	cpsid	i
    2e06:	f3bf 8f5f 	dmb	sy
    2e0a:	4a05      	ldr	r2, [pc, #20]	; (2e20 <cpu_irq_enter_critical+0x38>)
    2e0c:	7011      	strb	r1, [r2, #0]
    2e0e:	4a03      	ldr	r2, [pc, #12]	; (2e1c <cpu_irq_enter_critical+0x34>)
    2e10:	3101      	adds	r1, #1
    2e12:	7011      	strb	r1, [r2, #0]
    2e14:	e7f2      	b.n	2dfc <cpu_irq_enter_critical+0x14>
    2e16:	46c0      	nop			; (mov r8, r8)
    2e18:	200008d4 	.word	0x200008d4
    2e1c:	200008d8 	.word	0x200008d8
    2e20:	20000008 	.word	0x20000008

00002e24 <cpu_irq_leave_critical>:
    2e24:	4b08      	ldr	r3, [pc, #32]	; (2e48 <cpu_irq_leave_critical+0x24>)
    2e26:	681a      	ldr	r2, [r3, #0]
    2e28:	3a01      	subs	r2, #1
    2e2a:	601a      	str	r2, [r3, #0]
    2e2c:	681b      	ldr	r3, [r3, #0]
    2e2e:	2b00      	cmp	r3, #0
    2e30:	d109      	bne.n	2e46 <cpu_irq_leave_critical+0x22>
    2e32:	4b06      	ldr	r3, [pc, #24]	; (2e4c <cpu_irq_leave_critical+0x28>)
    2e34:	781b      	ldrb	r3, [r3, #0]
    2e36:	2b00      	cmp	r3, #0
    2e38:	d005      	beq.n	2e46 <cpu_irq_leave_critical+0x22>
    2e3a:	2201      	movs	r2, #1
    2e3c:	4b04      	ldr	r3, [pc, #16]	; (2e50 <cpu_irq_leave_critical+0x2c>)
    2e3e:	701a      	strb	r2, [r3, #0]
    2e40:	f3bf 8f5f 	dmb	sy
    2e44:	b662      	cpsie	i
    2e46:	4770      	bx	lr
    2e48:	200008d4 	.word	0x200008d4
    2e4c:	200008d8 	.word	0x200008d8
    2e50:	20000008 	.word	0x20000008

00002e54 <system_clock_source_get_hz>:
    2e54:	b510      	push	{r4, lr}
    2e56:	2807      	cmp	r0, #7
    2e58:	d823      	bhi.n	2ea2 <system_clock_source_get_hz+0x4e>
    2e5a:	4b17      	ldr	r3, [pc, #92]	; (2eb8 <system_clock_source_get_hz+0x64>)
    2e5c:	0080      	lsls	r0, r0, #2
    2e5e:	581b      	ldr	r3, [r3, r0]
    2e60:	469f      	mov	pc, r3
    2e62:	2080      	movs	r0, #128	; 0x80
    2e64:	0200      	lsls	r0, r0, #8
    2e66:	bd10      	pop	{r4, pc}
    2e68:	4b14      	ldr	r3, [pc, #80]	; (2ebc <system_clock_source_get_hz+0x68>)
    2e6a:	6918      	ldr	r0, [r3, #16]
    2e6c:	e7fb      	b.n	2e66 <system_clock_source_get_hz+0x12>
    2e6e:	4b14      	ldr	r3, [pc, #80]	; (2ec0 <system_clock_source_get_hz+0x6c>)
    2e70:	6a18      	ldr	r0, [r3, #32]
    2e72:	4b14      	ldr	r3, [pc, #80]	; (2ec4 <system_clock_source_get_hz+0x70>)
    2e74:	0580      	lsls	r0, r0, #22
    2e76:	0f80      	lsrs	r0, r0, #30
    2e78:	40c3      	lsrs	r3, r0
    2e7a:	1c18      	adds	r0, r3, #0
    2e7c:	e7f3      	b.n	2e66 <system_clock_source_get_hz+0x12>
    2e7e:	4b0f      	ldr	r3, [pc, #60]	; (2ebc <system_clock_source_get_hz+0x68>)
    2e80:	68d8      	ldr	r0, [r3, #12]
    2e82:	e7f0      	b.n	2e66 <system_clock_source_get_hz+0x12>
    2e84:	2002      	movs	r0, #2
    2e86:	4c0d      	ldr	r4, [pc, #52]	; (2ebc <system_clock_source_get_hz+0x68>)
    2e88:	6823      	ldr	r3, [r4, #0]
    2e8a:	4018      	ands	r0, r3
    2e8c:	d0eb      	beq.n	2e66 <system_clock_source_get_hz+0x12>
    2e8e:	2210      	movs	r2, #16
    2e90:	490b      	ldr	r1, [pc, #44]	; (2ec0 <system_clock_source_get_hz+0x6c>)
    2e92:	68cb      	ldr	r3, [r1, #12]
    2e94:	421a      	tst	r2, r3
    2e96:	d0fc      	beq.n	2e92 <system_clock_source_get_hz+0x3e>
    2e98:	6823      	ldr	r3, [r4, #0]
    2e9a:	075b      	lsls	r3, r3, #29
    2e9c:	d403      	bmi.n	2ea6 <system_clock_source_get_hz+0x52>
    2e9e:	480a      	ldr	r0, [pc, #40]	; (2ec8 <system_clock_source_get_hz+0x74>)
    2ea0:	e7e1      	b.n	2e66 <system_clock_source_get_hz+0x12>
    2ea2:	2000      	movs	r0, #0
    2ea4:	e7df      	b.n	2e66 <system_clock_source_get_hz+0x12>
    2ea6:	4b09      	ldr	r3, [pc, #36]	; (2ecc <system_clock_source_get_hz+0x78>)
    2ea8:	2000      	movs	r0, #0
    2eaa:	4798      	blx	r3
    2eac:	68a3      	ldr	r3, [r4, #8]
    2eae:	041b      	lsls	r3, r3, #16
    2eb0:	0c1b      	lsrs	r3, r3, #16
    2eb2:	4358      	muls	r0, r3
    2eb4:	e7d7      	b.n	2e66 <system_clock_source_get_hz+0x12>
    2eb6:	46c0      	nop			; (mov r8, r8)
    2eb8:	00003e78 	.word	0x00003e78
    2ebc:	200008dc 	.word	0x200008dc
    2ec0:	40000800 	.word	0x40000800
    2ec4:	007a1200 	.word	0x007a1200
    2ec8:	02dc6c00 	.word	0x02dc6c00
    2ecc:	000032fd 	.word	0x000032fd

00002ed0 <system_clock_init>:
    2ed0:	22c2      	movs	r2, #194	; 0xc2
    2ed2:	b5f0      	push	{r4, r5, r6, r7, lr}
    2ed4:	4656      	mov	r6, sl
    2ed6:	464d      	mov	r5, r9
    2ed8:	4644      	mov	r4, r8
    2eda:	465f      	mov	r7, fp
    2edc:	4b5e      	ldr	r3, [pc, #376]	; (3058 <system_clock_init+0x188>)
    2ede:	00d2      	lsls	r2, r2, #3
    2ee0:	b4f0      	push	{r4, r5, r6, r7}
    2ee2:	609a      	str	r2, [r3, #8]
    2ee4:	221e      	movs	r2, #30
    2ee6:	495d      	ldr	r1, [pc, #372]	; (305c <system_clock_init+0x18c>)
    2ee8:	2600      	movs	r6, #0
    2eea:	684b      	ldr	r3, [r1, #4]
    2eec:	b085      	sub	sp, #20
    2eee:	4393      	bics	r3, r2
    2ef0:	3a1c      	subs	r2, #28
    2ef2:	4313      	orrs	r3, r2
    2ef4:	604b      	str	r3, [r1, #4]
    2ef6:	2303      	movs	r3, #3
    2ef8:	ac01      	add	r4, sp, #4
    2efa:	4d59      	ldr	r5, [pc, #356]	; (3060 <system_clock_init+0x190>)
    2efc:	7023      	strb	r3, [r4, #0]
    2efe:	b2f0      	uxtb	r0, r6
    2f00:	1c21      	adds	r1, r4, #0
    2f02:	3601      	adds	r6, #1
    2f04:	47a8      	blx	r5
    2f06:	2e1c      	cmp	r6, #28
    2f08:	d1f9      	bne.n	2efe <system_clock_init+0x2e>
    2f0a:	4b53      	ldr	r3, [pc, #332]	; (3058 <system_clock_init+0x188>)
    2f0c:	4a55      	ldr	r2, [pc, #340]	; (3064 <system_clock_init+0x194>)
    2f0e:	4f56      	ldr	r7, [pc, #344]	; (3068 <system_clock_init+0x198>)
    2f10:	8a19      	ldrh	r1, [r3, #16]
    2f12:	60fa      	str	r2, [r7, #12]
    2f14:	4a55      	ldr	r2, [pc, #340]	; (306c <system_clock_init+0x19c>)
    2f16:	430a      	orrs	r2, r1
    2f18:	821a      	strh	r2, [r3, #16]
    2f1a:	2202      	movs	r2, #2
    2f1c:	8a19      	ldrh	r1, [r3, #16]
    2f1e:	430a      	orrs	r2, r1
    2f20:	821a      	strh	r2, [r3, #16]
    2f22:	4b53      	ldr	r3, [pc, #332]	; (3070 <system_clock_init+0x1a0>)
    2f24:	699a      	ldr	r2, [r3, #24]
    2f26:	2307      	movs	r3, #7
    2f28:	0512      	lsls	r2, r2, #20
    2f2a:	0f12      	lsrs	r2, r2, #28
    2f2c:	2a02      	cmp	r2, #2
    2f2e:	d905      	bls.n	2f3c <system_clock_init+0x6c>
    2f30:	4b50      	ldr	r3, [pc, #320]	; (3074 <system_clock_init+0x1a4>)
    2f32:	681b      	ldr	r3, [r3, #0]
    2f34:	0e9b      	lsrs	r3, r3, #26
    2f36:	2b3f      	cmp	r3, #63	; 0x3f
    2f38:	d100      	bne.n	2f3c <system_clock_init+0x6c>
    2f3a:	e08b      	b.n	3054 <system_clock_init+0x184>
    2f3c:	4a4c      	ldr	r2, [pc, #304]	; (3070 <system_clock_init+0x1a0>)
    2f3e:	6992      	ldr	r2, [r2, #24]
    2f40:	0512      	lsls	r2, r2, #20
    2f42:	0f12      	lsrs	r2, r2, #28
    2f44:	2a02      	cmp	r2, #2
    2f46:	d900      	bls.n	2f4a <system_clock_init+0x7a>
    2f48:	e07b      	b.n	3042 <system_clock_init+0x172>
    2f4a:	22f8      	movs	r2, #248	; 0xf8
    2f4c:	021b      	lsls	r3, r3, #8
    2f4e:	0152      	lsls	r2, r2, #5
    2f50:	4013      	ands	r3, r2
    2f52:	223f      	movs	r2, #63	; 0x3f
    2f54:	4313      	orrs	r3, r2
    2f56:	607b      	str	r3, [r7, #4]
    2f58:	2300      	movs	r3, #0
    2f5a:	603b      	str	r3, [r7, #0]
    2f5c:	4b46      	ldr	r3, [pc, #280]	; (3078 <system_clock_init+0x1a8>)
    2f5e:	60bb      	str	r3, [r7, #8]
    2f60:	2204      	movs	r2, #4
    2f62:	683b      	ldr	r3, [r7, #0]
    2f64:	4e3c      	ldr	r6, [pc, #240]	; (3058 <system_clock_init+0x188>)
    2f66:	4313      	orrs	r3, r2
    2f68:	603b      	str	r3, [r7, #0]
    2f6a:	6a33      	ldr	r3, [r6, #32]
    2f6c:	323c      	adds	r2, #60	; 0x3c
    2f6e:	4393      	bics	r3, r2
    2f70:	3240      	adds	r2, #64	; 0x40
    2f72:	4313      	orrs	r3, r2
    2f74:	4a41      	ldr	r2, [pc, #260]	; (307c <system_clock_init+0x1ac>)
    2f76:	4013      	ands	r3, r2
    2f78:	2202      	movs	r2, #2
    2f7a:	6233      	str	r3, [r6, #32]
    2f7c:	6a33      	ldr	r3, [r6, #32]
    2f7e:	4313      	orrs	r3, r2
    2f80:	6233      	str	r3, [r6, #32]
    2f82:	4b3f      	ldr	r3, [pc, #252]	; (3080 <system_clock_init+0x1b0>)
    2f84:	4798      	blx	r3
    2f86:	2300      	movs	r3, #0
    2f88:	4698      	mov	r8, r3
    2f8a:	7063      	strb	r3, [r4, #1]
    2f8c:	7263      	strb	r3, [r4, #9]
    2f8e:	7023      	strb	r3, [r4, #0]
    2f90:	2380      	movs	r3, #128	; 0x80
    2f92:	005b      	lsls	r3, r3, #1
    2f94:	6063      	str	r3, [r4, #4]
    2f96:	3bff      	subs	r3, #255	; 0xff
    2f98:	469b      	mov	fp, r3
    2f9a:	7223      	strb	r3, [r4, #8]
    2f9c:	4b39      	ldr	r3, [pc, #228]	; (3084 <system_clock_init+0x1b4>)
    2f9e:	1c21      	adds	r1, r4, #0
    2fa0:	2001      	movs	r0, #1
    2fa2:	469a      	mov	sl, r3
    2fa4:	4798      	blx	r3
    2fa6:	4b38      	ldr	r3, [pc, #224]	; (3088 <system_clock_init+0x1b8>)
    2fa8:	2001      	movs	r0, #1
    2faa:	4699      	mov	r9, r3
    2fac:	4798      	blx	r3
    2fae:	4643      	mov	r3, r8
    2fb0:	7063      	strb	r3, [r4, #1]
    2fb2:	7263      	strb	r3, [r4, #9]
    2fb4:	2304      	movs	r3, #4
    2fb6:	7023      	strb	r3, [r4, #0]
    2fb8:	2320      	movs	r3, #32
    2fba:	6063      	str	r3, [r4, #4]
    2fbc:	465b      	mov	r3, fp
    2fbe:	1c21      	adds	r1, r4, #0
    2fc0:	2002      	movs	r0, #2
    2fc2:	7223      	strb	r3, [r4, #8]
    2fc4:	47d0      	blx	sl
    2fc6:	2002      	movs	r0, #2
    2fc8:	47c8      	blx	r9
    2fca:	465b      	mov	r3, fp
    2fcc:	1c21      	adds	r1, r4, #0
    2fce:	2000      	movs	r0, #0
    2fd0:	7023      	strb	r3, [r4, #0]
    2fd2:	47a8      	blx	r5
    2fd4:	4b2d      	ldr	r3, [pc, #180]	; (308c <system_clock_init+0x1bc>)
    2fd6:	2000      	movs	r0, #0
    2fd8:	4798      	blx	r3
    2fda:	2202      	movs	r2, #2
    2fdc:	2110      	movs	r1, #16
    2fde:	683b      	ldr	r3, [r7, #0]
    2fe0:	4313      	orrs	r3, r2
    2fe2:	603b      	str	r3, [r7, #0]
    2fe4:	683b      	ldr	r3, [r7, #0]
    2fe6:	327e      	adds	r2, #126	; 0x7e
    2fe8:	4393      	bics	r3, r2
    2fea:	b29b      	uxth	r3, r3
    2fec:	84b3      	strh	r3, [r6, #36]	; 0x24
    2fee:	68f2      	ldr	r2, [r6, #12]
    2ff0:	4b19      	ldr	r3, [pc, #100]	; (3058 <system_clock_init+0x188>)
    2ff2:	4211      	tst	r1, r2
    2ff4:	d0fb      	beq.n	2fee <system_clock_init+0x11e>
    2ff6:	68ba      	ldr	r2, [r7, #8]
    2ff8:	21d0      	movs	r1, #208	; 0xd0
    2ffa:	62da      	str	r2, [r3, #44]	; 0x2c
    2ffc:	687a      	ldr	r2, [r7, #4]
    2ffe:	629a      	str	r2, [r3, #40]	; 0x28
    3000:	683a      	ldr	r2, [r7, #0]
    3002:	b292      	uxth	r2, r2
    3004:	849a      	strh	r2, [r3, #36]	; 0x24
    3006:	1c1a      	adds	r2, r3, #0
    3008:	68d3      	ldr	r3, [r2, #12]
    300a:	400b      	ands	r3, r1
    300c:	2bd0      	cmp	r3, #208	; 0xd0
    300e:	d1fb      	bne.n	3008 <system_clock_init+0x138>
    3010:	2300      	movs	r3, #0
    3012:	4a1f      	ldr	r2, [pc, #124]	; (3090 <system_clock_init+0x1c0>)
    3014:	1c21      	adds	r1, r4, #0
    3016:	7213      	strb	r3, [r2, #8]
    3018:	7253      	strb	r3, [r2, #9]
    301a:	7293      	strb	r3, [r2, #10]
    301c:	72d3      	strb	r3, [r2, #11]
    301e:	2201      	movs	r2, #1
    3020:	7063      	strb	r3, [r4, #1]
    3022:	7223      	strb	r3, [r4, #8]
    3024:	7263      	strb	r3, [r4, #9]
    3026:	2000      	movs	r0, #0
    3028:	3307      	adds	r3, #7
    302a:	6062      	str	r2, [r4, #4]
    302c:	7023      	strb	r3, [r4, #0]
    302e:	47d0      	blx	sl
    3030:	2000      	movs	r0, #0
    3032:	47c8      	blx	r9
    3034:	b005      	add	sp, #20
    3036:	bc3c      	pop	{r2, r3, r4, r5}
    3038:	4690      	mov	r8, r2
    303a:	4699      	mov	r9, r3
    303c:	46a2      	mov	sl, r4
    303e:	46ab      	mov	fp, r5
    3040:	bdf0      	pop	{r4, r5, r6, r7, pc}
    3042:	223f      	movs	r2, #63	; 0x3f
    3044:	029b      	lsls	r3, r3, #10
    3046:	4313      	orrs	r3, r2
    3048:	607b      	str	r3, [r7, #4]
    304a:	2300      	movs	r3, #0
    304c:	603b      	str	r3, [r7, #0]
    304e:	4b11      	ldr	r3, [pc, #68]	; (3094 <system_clock_init+0x1c4>)
    3050:	60bb      	str	r3, [r7, #8]
    3052:	e785      	b.n	2f60 <system_clock_init+0x90>
    3054:	3b20      	subs	r3, #32
    3056:	e771      	b.n	2f3c <system_clock_init+0x6c>
    3058:	40000800 	.word	0x40000800
    305c:	41004000 	.word	0x41004000
    3060:	00003239 	.word	0x00003239
    3064:	007a1200 	.word	0x007a1200
    3068:	200008dc 	.word	0x200008dc
    306c:	fffff8c4 	.word	0xfffff8c4
    3070:	41002000 	.word	0x41002000
    3074:	00806024 	.word	0x00806024
    3078:	073f0600 	.word	0x073f0600
    307c:	fffffcff 	.word	0xfffffcff
    3080:	00003099 	.word	0x00003099
    3084:	000030bd 	.word	0x000030bd
    3088:	0000316d 	.word	0x0000316d
    308c:	0000329d 	.word	0x0000329d
    3090:	40000400 	.word	0x40000400
    3094:	1c3f0600 	.word	0x1c3f0600

00003098 <system_gclk_init>:
    3098:	2308      	movs	r3, #8
    309a:	4a06      	ldr	r2, [pc, #24]	; (30b4 <system_gclk_init+0x1c>)
    309c:	6991      	ldr	r1, [r2, #24]
    309e:	430b      	orrs	r3, r1
    30a0:	6193      	str	r3, [r2, #24]
    30a2:	2301      	movs	r3, #1
    30a4:	2101      	movs	r1, #1
    30a6:	4a04      	ldr	r2, [pc, #16]	; (30b8 <system_gclk_init+0x20>)
    30a8:	7013      	strb	r3, [r2, #0]
    30aa:	7813      	ldrb	r3, [r2, #0]
    30ac:	4219      	tst	r1, r3
    30ae:	d1fc      	bne.n	30aa <system_gclk_init+0x12>
    30b0:	4770      	bx	lr
    30b2:	46c0      	nop			; (mov r8, r8)
    30b4:	40000400 	.word	0x40000400
    30b8:	40000c00 	.word	0x40000c00

000030bc <system_gclk_gen_set_config>:
    30bc:	b570      	push	{r4, r5, r6, lr}
    30be:	780d      	ldrb	r5, [r1, #0]
    30c0:	784b      	ldrb	r3, [r1, #1]
    30c2:	022d      	lsls	r5, r5, #8
    30c4:	1c06      	adds	r6, r0, #0
    30c6:	1c04      	adds	r4, r0, #0
    30c8:	4305      	orrs	r5, r0
    30ca:	2b00      	cmp	r3, #0
    30cc:	d002      	beq.n	30d4 <system_gclk_gen_set_config+0x18>
    30ce:	2380      	movs	r3, #128	; 0x80
    30d0:	02db      	lsls	r3, r3, #11
    30d2:	431d      	orrs	r5, r3
    30d4:	7a4b      	ldrb	r3, [r1, #9]
    30d6:	2b00      	cmp	r3, #0
    30d8:	d002      	beq.n	30e0 <system_gclk_gen_set_config+0x24>
    30da:	2380      	movs	r3, #128	; 0x80
    30dc:	031b      	lsls	r3, r3, #12
    30de:	431d      	orrs	r5, r3
    30e0:	6848      	ldr	r0, [r1, #4]
    30e2:	2801      	cmp	r0, #1
    30e4:	d90f      	bls.n	3106 <system_gclk_gen_set_config+0x4a>
    30e6:	1e43      	subs	r3, r0, #1
    30e8:	4003      	ands	r3, r0
    30ea:	d131      	bne.n	3150 <system_gclk_gen_set_config+0x94>
    30ec:	2802      	cmp	r0, #2
    30ee:	d005      	beq.n	30fc <system_gclk_gen_set_config+0x40>
    30f0:	2202      	movs	r2, #2
    30f2:	3301      	adds	r3, #1
    30f4:	0052      	lsls	r2, r2, #1
    30f6:	4290      	cmp	r0, r2
    30f8:	d8fb      	bhi.n	30f2 <system_gclk_gen_set_config+0x36>
    30fa:	021b      	lsls	r3, r3, #8
    30fc:	4333      	orrs	r3, r6
    30fe:	1c1c      	adds	r4, r3, #0
    3100:	2380      	movs	r3, #128	; 0x80
    3102:	035b      	lsls	r3, r3, #13
    3104:	431d      	orrs	r5, r3
    3106:	7a0b      	ldrb	r3, [r1, #8]
    3108:	2b00      	cmp	r3, #0
    310a:	d002      	beq.n	3112 <system_gclk_gen_set_config+0x56>
    310c:	2380      	movs	r3, #128	; 0x80
    310e:	039b      	lsls	r3, r3, #14
    3110:	431d      	orrs	r5, r3
    3112:	4a12      	ldr	r2, [pc, #72]	; (315c <system_gclk_gen_set_config+0xa0>)
    3114:	7853      	ldrb	r3, [r2, #1]
    3116:	b25b      	sxtb	r3, r3
    3118:	2b00      	cmp	r3, #0
    311a:	dbfb      	blt.n	3114 <system_gclk_gen_set_config+0x58>
    311c:	4b10      	ldr	r3, [pc, #64]	; (3160 <system_gclk_gen_set_config+0xa4>)
    311e:	4798      	blx	r3
    3120:	4b10      	ldr	r3, [pc, #64]	; (3164 <system_gclk_gen_set_config+0xa8>)
    3122:	490e      	ldr	r1, [pc, #56]	; (315c <system_gclk_gen_set_config+0xa0>)
    3124:	701e      	strb	r6, [r3, #0]
    3126:	784a      	ldrb	r2, [r1, #1]
    3128:	4b0c      	ldr	r3, [pc, #48]	; (315c <system_gclk_gen_set_config+0xa0>)
    312a:	b252      	sxtb	r2, r2
    312c:	2a00      	cmp	r2, #0
    312e:	dbfa      	blt.n	3126 <system_gclk_gen_set_config+0x6a>
    3130:	1c1a      	adds	r2, r3, #0
    3132:	609c      	str	r4, [r3, #8]
    3134:	7853      	ldrb	r3, [r2, #1]
    3136:	4909      	ldr	r1, [pc, #36]	; (315c <system_gclk_gen_set_config+0xa0>)
    3138:	b25b      	sxtb	r3, r3
    313a:	2b00      	cmp	r3, #0
    313c:	dbfa      	blt.n	3134 <system_gclk_gen_set_config+0x78>
    313e:	2380      	movs	r3, #128	; 0x80
    3140:	684a      	ldr	r2, [r1, #4]
    3142:	025b      	lsls	r3, r3, #9
    3144:	4013      	ands	r3, r2
    3146:	431d      	orrs	r5, r3
    3148:	604d      	str	r5, [r1, #4]
    314a:	4b07      	ldr	r3, [pc, #28]	; (3168 <system_gclk_gen_set_config+0xac>)
    314c:	4798      	blx	r3
    314e:	bd70      	pop	{r4, r5, r6, pc}
    3150:	2380      	movs	r3, #128	; 0x80
    3152:	0204      	lsls	r4, r0, #8
    3154:	029b      	lsls	r3, r3, #10
    3156:	4334      	orrs	r4, r6
    3158:	431d      	orrs	r5, r3
    315a:	e7d4      	b.n	3106 <system_gclk_gen_set_config+0x4a>
    315c:	40000c00 	.word	0x40000c00
    3160:	00002de9 	.word	0x00002de9
    3164:	40000c08 	.word	0x40000c08
    3168:	00002e25 	.word	0x00002e25

0000316c <system_gclk_gen_enable>:
    316c:	b510      	push	{r4, lr}
    316e:	1c04      	adds	r4, r0, #0
    3170:	4a0b      	ldr	r2, [pc, #44]	; (31a0 <system_gclk_gen_enable+0x34>)
    3172:	7853      	ldrb	r3, [r2, #1]
    3174:	b25b      	sxtb	r3, r3
    3176:	2b00      	cmp	r3, #0
    3178:	dbfb      	blt.n	3172 <system_gclk_gen_enable+0x6>
    317a:	4b0a      	ldr	r3, [pc, #40]	; (31a4 <system_gclk_gen_enable+0x38>)
    317c:	4798      	blx	r3
    317e:	4b0a      	ldr	r3, [pc, #40]	; (31a8 <system_gclk_gen_enable+0x3c>)
    3180:	4907      	ldr	r1, [pc, #28]	; (31a0 <system_gclk_gen_enable+0x34>)
    3182:	701c      	strb	r4, [r3, #0]
    3184:	784b      	ldrb	r3, [r1, #1]
    3186:	4a06      	ldr	r2, [pc, #24]	; (31a0 <system_gclk_gen_enable+0x34>)
    3188:	b25b      	sxtb	r3, r3
    318a:	2b00      	cmp	r3, #0
    318c:	dbfa      	blt.n	3184 <system_gclk_gen_enable+0x18>
    318e:	2180      	movs	r1, #128	; 0x80
    3190:	6853      	ldr	r3, [r2, #4]
    3192:	0249      	lsls	r1, r1, #9
    3194:	430b      	orrs	r3, r1
    3196:	6053      	str	r3, [r2, #4]
    3198:	4b04      	ldr	r3, [pc, #16]	; (31ac <system_gclk_gen_enable+0x40>)
    319a:	4798      	blx	r3
    319c:	bd10      	pop	{r4, pc}
    319e:	46c0      	nop			; (mov r8, r8)
    31a0:	40000c00 	.word	0x40000c00
    31a4:	00002de9 	.word	0x00002de9
    31a8:	40000c04 	.word	0x40000c04
    31ac:	00002e25 	.word	0x00002e25

000031b0 <system_gclk_gen_get_hz>:
    31b0:	b5f8      	push	{r3, r4, r5, r6, r7, lr}
    31b2:	1c07      	adds	r7, r0, #0
    31b4:	4a19      	ldr	r2, [pc, #100]	; (321c <system_gclk_gen_get_hz+0x6c>)
    31b6:	7853      	ldrb	r3, [r2, #1]
    31b8:	b25b      	sxtb	r3, r3
    31ba:	2b00      	cmp	r3, #0
    31bc:	dbfb      	blt.n	31b6 <system_gclk_gen_get_hz+0x6>
    31be:	4b18      	ldr	r3, [pc, #96]	; (3220 <system_gclk_gen_get_hz+0x70>)
    31c0:	4798      	blx	r3
    31c2:	4b18      	ldr	r3, [pc, #96]	; (3224 <system_gclk_gen_get_hz+0x74>)
    31c4:	4a15      	ldr	r2, [pc, #84]	; (321c <system_gclk_gen_get_hz+0x6c>)
    31c6:	701f      	strb	r7, [r3, #0]
    31c8:	7853      	ldrb	r3, [r2, #1]
    31ca:	4c14      	ldr	r4, [pc, #80]	; (321c <system_gclk_gen_get_hz+0x6c>)
    31cc:	b25b      	sxtb	r3, r3
    31ce:	2b00      	cmp	r3, #0
    31d0:	dbfa      	blt.n	31c8 <system_gclk_gen_get_hz+0x18>
    31d2:	6860      	ldr	r0, [r4, #4]
    31d4:	4b14      	ldr	r3, [pc, #80]	; (3228 <system_gclk_gen_get_hz+0x78>)
    31d6:	04c0      	lsls	r0, r0, #19
    31d8:	0ec0      	lsrs	r0, r0, #27
    31da:	4798      	blx	r3
    31dc:	1c06      	adds	r6, r0, #0
    31de:	4b11      	ldr	r3, [pc, #68]	; (3224 <system_gclk_gen_get_hz+0x74>)
    31e0:	701f      	strb	r7, [r3, #0]
    31e2:	6865      	ldr	r5, [r4, #4]
    31e4:	4b11      	ldr	r3, [pc, #68]	; (322c <system_gclk_gen_get_hz+0x7c>)
    31e6:	02ed      	lsls	r5, r5, #11
    31e8:	0fed      	lsrs	r5, r5, #31
    31ea:	701f      	strb	r7, [r3, #0]
    31ec:	7863      	ldrb	r3, [r4, #1]
    31ee:	b25b      	sxtb	r3, r3
    31f0:	2b00      	cmp	r3, #0
    31f2:	dbfb      	blt.n	31ec <system_gclk_gen_get_hz+0x3c>
    31f4:	4b09      	ldr	r3, [pc, #36]	; (321c <system_gclk_gen_get_hz+0x6c>)
    31f6:	6899      	ldr	r1, [r3, #8]
    31f8:	4b0d      	ldr	r3, [pc, #52]	; (3230 <system_gclk_gen_get_hz+0x80>)
    31fa:	0a09      	lsrs	r1, r1, #8
    31fc:	b28c      	uxth	r4, r1
    31fe:	4798      	blx	r3
    3200:	2d00      	cmp	r5, #0
    3202:	d003      	beq.n	320c <system_gclk_gen_get_hz+0x5c>
    3204:	1c61      	adds	r1, r4, #1
    3206:	40ce      	lsrs	r6, r1
    3208:	1c30      	adds	r0, r6, #0
    320a:	bdf8      	pop	{r3, r4, r5, r6, r7, pc}
    320c:	2c01      	cmp	r4, #1
    320e:	d9fb      	bls.n	3208 <system_gclk_gen_get_hz+0x58>
    3210:	1c30      	adds	r0, r6, #0
    3212:	1c21      	adds	r1, r4, #0
    3214:	4b07      	ldr	r3, [pc, #28]	; (3234 <system_gclk_gen_get_hz+0x84>)
    3216:	4798      	blx	r3
    3218:	1c06      	adds	r6, r0, #0
    321a:	e7f5      	b.n	3208 <system_gclk_gen_get_hz+0x58>
    321c:	40000c00 	.word	0x40000c00
    3220:	00002de9 	.word	0x00002de9
    3224:	40000c04 	.word	0x40000c04
    3228:	00002e55 	.word	0x00002e55
    322c:	40000c08 	.word	0x40000c08
    3230:	00002e25 	.word	0x00002e25
    3234:	00003599 	.word	0x00003599

00003238 <system_gclk_chan_set_config>:
    3238:	b538      	push	{r3, r4, r5, lr}
    323a:	1c04      	adds	r4, r0, #0
    323c:	780d      	ldrb	r5, [r1, #0]
    323e:	4b11      	ldr	r3, [pc, #68]	; (3284 <system_gclk_chan_set_config+0x4c>)
    3240:	022d      	lsls	r5, r5, #8
    3242:	4305      	orrs	r5, r0
    3244:	4798      	blx	r3
    3246:	4b10      	ldr	r3, [pc, #64]	; (3288 <system_gclk_chan_set_config+0x50>)
    3248:	4a10      	ldr	r2, [pc, #64]	; (328c <system_gclk_chan_set_config+0x54>)
    324a:	701c      	strb	r4, [r3, #0]
    324c:	8850      	ldrh	r0, [r2, #2]
    324e:	4b10      	ldr	r3, [pc, #64]	; (3290 <system_gclk_chan_set_config+0x58>)
    3250:	8851      	ldrh	r1, [r2, #2]
    3252:	0500      	lsls	r0, r0, #20
    3254:	400b      	ands	r3, r1
    3256:	8053      	strh	r3, [r2, #2]
    3258:	8851      	ldrh	r1, [r2, #2]
    325a:	4b0e      	ldr	r3, [pc, #56]	; (3294 <system_gclk_chan_set_config+0x5c>)
    325c:	0f00      	lsrs	r0, r0, #28
    325e:	400b      	ands	r3, r1
    3260:	2180      	movs	r1, #128	; 0x80
    3262:	8053      	strh	r3, [r2, #2]
    3264:	01c9      	lsls	r1, r1, #7
    3266:	8853      	ldrh	r3, [r2, #2]
    3268:	4c08      	ldr	r4, [pc, #32]	; (328c <system_gclk_chan_set_config+0x54>)
    326a:	420b      	tst	r3, r1
    326c:	d1fb      	bne.n	3266 <system_gclk_chan_set_config+0x2e>
    326e:	8861      	ldrh	r1, [r4, #2]
    3270:	4b07      	ldr	r3, [pc, #28]	; (3290 <system_gclk_chan_set_config+0x58>)
    3272:	0202      	lsls	r2, r0, #8
    3274:	400b      	ands	r3, r1
    3276:	4313      	orrs	r3, r2
    3278:	8063      	strh	r3, [r4, #2]
    327a:	b2ad      	uxth	r5, r5
    327c:	4b06      	ldr	r3, [pc, #24]	; (3298 <system_gclk_chan_set_config+0x60>)
    327e:	4798      	blx	r3
    3280:	8065      	strh	r5, [r4, #2]
    3282:	bd38      	pop	{r3, r4, r5, pc}
    3284:	00002de9 	.word	0x00002de9
    3288:	40000c02 	.word	0x40000c02
    328c:	40000c00 	.word	0x40000c00
    3290:	fffff0ff 	.word	0xfffff0ff
    3294:	ffffbfff 	.word	0xffffbfff
    3298:	00002e25 	.word	0x00002e25

0000329c <system_gclk_chan_enable>:
    329c:	b510      	push	{r4, lr}
    329e:	1c04      	adds	r4, r0, #0
    32a0:	4b06      	ldr	r3, [pc, #24]	; (32bc <system_gclk_chan_enable+0x20>)
    32a2:	4798      	blx	r3
    32a4:	2180      	movs	r1, #128	; 0x80
    32a6:	4b06      	ldr	r3, [pc, #24]	; (32c0 <system_gclk_chan_enable+0x24>)
    32a8:	4a06      	ldr	r2, [pc, #24]	; (32c4 <system_gclk_chan_enable+0x28>)
    32aa:	701c      	strb	r4, [r3, #0]
    32ac:	8853      	ldrh	r3, [r2, #2]
    32ae:	01c9      	lsls	r1, r1, #7
    32b0:	430b      	orrs	r3, r1
    32b2:	8053      	strh	r3, [r2, #2]
    32b4:	4b04      	ldr	r3, [pc, #16]	; (32c8 <system_gclk_chan_enable+0x2c>)
    32b6:	4798      	blx	r3
    32b8:	bd10      	pop	{r4, pc}
    32ba:	46c0      	nop			; (mov r8, r8)
    32bc:	00002de9 	.word	0x00002de9
    32c0:	40000c02 	.word	0x40000c02
    32c4:	40000c00 	.word	0x40000c00
    32c8:	00002e25 	.word	0x00002e25

000032cc <system_gclk_chan_lock>:
    32cc:	b510      	push	{r4, lr}
    32ce:	1c04      	adds	r4, r0, #0
    32d0:	4b06      	ldr	r3, [pc, #24]	; (32ec <system_gclk_chan_lock+0x20>)
    32d2:	4798      	blx	r3
    32d4:	4b06      	ldr	r3, [pc, #24]	; (32f0 <system_gclk_chan_lock+0x24>)
    32d6:	4a07      	ldr	r2, [pc, #28]	; (32f4 <system_gclk_chan_lock+0x28>)
    32d8:	701c      	strb	r4, [r3, #0]
    32da:	23c0      	movs	r3, #192	; 0xc0
    32dc:	8851      	ldrh	r1, [r2, #2]
    32de:	021b      	lsls	r3, r3, #8
    32e0:	430b      	orrs	r3, r1
    32e2:	8053      	strh	r3, [r2, #2]
    32e4:	4b04      	ldr	r3, [pc, #16]	; (32f8 <system_gclk_chan_lock+0x2c>)
    32e6:	4798      	blx	r3
    32e8:	bd10      	pop	{r4, pc}
    32ea:	46c0      	nop			; (mov r8, r8)
    32ec:	00002de9 	.word	0x00002de9
    32f0:	40000c02 	.word	0x40000c02
    32f4:	40000c00 	.word	0x40000c00
    32f8:	00002e25 	.word	0x00002e25

000032fc <system_gclk_chan_get_hz>:
    32fc:	b5f0      	push	{r4, r5, r6, r7, lr}
    32fe:	4647      	mov	r7, r8
    3300:	1c04      	adds	r4, r0, #0
    3302:	b480      	push	{r7}
    3304:	4e1e      	ldr	r6, [pc, #120]	; (3380 <system_gclk_chan_get_hz+0x84>)
    3306:	47b0      	blx	r6
    3308:	4b1e      	ldr	r3, [pc, #120]	; (3384 <system_gclk_chan_get_hz+0x88>)
    330a:	701c      	strb	r4, [r3, #0]
    330c:	4c1e      	ldr	r4, [pc, #120]	; (3388 <system_gclk_chan_get_hz+0x8c>)
    330e:	4b1f      	ldr	r3, [pc, #124]	; (338c <system_gclk_chan_get_hz+0x90>)
    3310:	8865      	ldrh	r5, [r4, #2]
    3312:	4698      	mov	r8, r3
    3314:	052d      	lsls	r5, r5, #20
    3316:	0f2d      	lsrs	r5, r5, #28
    3318:	4798      	blx	r3
    331a:	7863      	ldrb	r3, [r4, #1]
    331c:	b25b      	sxtb	r3, r3
    331e:	2b00      	cmp	r3, #0
    3320:	dbfb      	blt.n	331a <system_gclk_chan_get_hz+0x1e>
    3322:	47b0      	blx	r6
    3324:	4b1a      	ldr	r3, [pc, #104]	; (3390 <system_gclk_chan_get_hz+0x94>)
    3326:	4a18      	ldr	r2, [pc, #96]	; (3388 <system_gclk_chan_get_hz+0x8c>)
    3328:	701d      	strb	r5, [r3, #0]
    332a:	7853      	ldrb	r3, [r2, #1]
    332c:	4c16      	ldr	r4, [pc, #88]	; (3388 <system_gclk_chan_get_hz+0x8c>)
    332e:	b25b      	sxtb	r3, r3
    3330:	2b00      	cmp	r3, #0
    3332:	dbfa      	blt.n	332a <system_gclk_chan_get_hz+0x2e>
    3334:	6860      	ldr	r0, [r4, #4]
    3336:	4b17      	ldr	r3, [pc, #92]	; (3394 <system_gclk_chan_get_hz+0x98>)
    3338:	04c0      	lsls	r0, r0, #19
    333a:	0ec0      	lsrs	r0, r0, #27
    333c:	4798      	blx	r3
    333e:	1c07      	adds	r7, r0, #0
    3340:	4b13      	ldr	r3, [pc, #76]	; (3390 <system_gclk_chan_get_hz+0x94>)
    3342:	701d      	strb	r5, [r3, #0]
    3344:	6866      	ldr	r6, [r4, #4]
    3346:	4b14      	ldr	r3, [pc, #80]	; (3398 <system_gclk_chan_get_hz+0x9c>)
    3348:	02f6      	lsls	r6, r6, #11
    334a:	0ff6      	lsrs	r6, r6, #31
    334c:	701d      	strb	r5, [r3, #0]
    334e:	7863      	ldrb	r3, [r4, #1]
    3350:	b25b      	sxtb	r3, r3
    3352:	2b00      	cmp	r3, #0
    3354:	dbfb      	blt.n	334e <system_gclk_chan_get_hz+0x52>
    3356:	4b0c      	ldr	r3, [pc, #48]	; (3388 <system_gclk_chan_get_hz+0x8c>)
    3358:	6899      	ldr	r1, [r3, #8]
    335a:	0a09      	lsrs	r1, r1, #8
    335c:	b28c      	uxth	r4, r1
    335e:	47c0      	blx	r8
    3360:	2e00      	cmp	r6, #0
    3362:	d005      	beq.n	3370 <system_gclk_chan_get_hz+0x74>
    3364:	1c61      	adds	r1, r4, #1
    3366:	40cf      	lsrs	r7, r1
    3368:	1c38      	adds	r0, r7, #0
    336a:	bc04      	pop	{r2}
    336c:	4690      	mov	r8, r2
    336e:	bdf0      	pop	{r4, r5, r6, r7, pc}
    3370:	2c01      	cmp	r4, #1
    3372:	d9f9      	bls.n	3368 <system_gclk_chan_get_hz+0x6c>
    3374:	1c38      	adds	r0, r7, #0
    3376:	1c21      	adds	r1, r4, #0
    3378:	4b08      	ldr	r3, [pc, #32]	; (339c <system_gclk_chan_get_hz+0xa0>)
    337a:	4798      	blx	r3
    337c:	1c07      	adds	r7, r0, #0
    337e:	e7f3      	b.n	3368 <system_gclk_chan_get_hz+0x6c>
    3380:	00002de9 	.word	0x00002de9
    3384:	40000c02 	.word	0x40000c02
    3388:	40000c00 	.word	0x40000c00
    338c:	00002e25 	.word	0x00002e25
    3390:	40000c04 	.word	0x40000c04
    3394:	00002e55 	.word	0x00002e55
    3398:	40000c08 	.word	0x40000c08
    339c:	00003599 	.word	0x00003599

000033a0 <system_pinmux_pin_set_config>:
    33a0:	b570      	push	{r4, r5, r6, lr}
    33a2:	09c2      	lsrs	r2, r0, #7
    33a4:	2300      	movs	r3, #0
    33a6:	2a00      	cmp	r2, #0
    33a8:	d104      	bne.n	33b4 <system_pinmux_pin_set_config+0x14>
    33aa:	4a2f      	ldr	r2, [pc, #188]	; (3468 <system_pinmux_pin_set_config+0xc8>)
    33ac:	0943      	lsrs	r3, r0, #5
    33ae:	4694      	mov	ip, r2
    33b0:	01db      	lsls	r3, r3, #7
    33b2:	4463      	add	r3, ip
    33b4:	221f      	movs	r2, #31
    33b6:	4010      	ands	r0, r2
    33b8:	3a1e      	subs	r2, #30
    33ba:	4082      	lsls	r2, r0
    33bc:	1c10      	adds	r0, r2, #0
    33be:	78ca      	ldrb	r2, [r1, #3]
    33c0:	2a00      	cmp	r2, #0
    33c2:	d131      	bne.n	3428 <system_pinmux_pin_set_config+0x88>
    33c4:	780c      	ldrb	r4, [r1, #0]
    33c6:	2c80      	cmp	r4, #128	; 0x80
    33c8:	d047      	beq.n	345a <system_pinmux_pin_set_config+0xba>
    33ca:	2280      	movs	r2, #128	; 0x80
    33cc:	0624      	lsls	r4, r4, #24
    33ce:	0252      	lsls	r2, r2, #9
    33d0:	4314      	orrs	r4, r2
    33d2:	784a      	ldrb	r2, [r1, #1]
    33d4:	2502      	movs	r5, #2
    33d6:	1c16      	adds	r6, r2, #0
    33d8:	43ae      	bics	r6, r5
    33da:	d107      	bne.n	33ec <system_pinmux_pin_set_config+0x4c>
    33dc:	788a      	ldrb	r2, [r1, #2]
    33de:	2a00      	cmp	r2, #0
    33e0:	d137      	bne.n	3452 <system_pinmux_pin_set_config+0xb2>
    33e2:	2280      	movs	r2, #128	; 0x80
    33e4:	0292      	lsls	r2, r2, #10
    33e6:	4314      	orrs	r4, r2
    33e8:	6058      	str	r0, [r3, #4]
    33ea:	784a      	ldrb	r2, [r1, #1]
    33ec:	3a01      	subs	r2, #1
    33ee:	2a01      	cmp	r2, #1
    33f0:	d935      	bls.n	345e <system_pinmux_pin_set_config+0xbe>
    33f2:	25a0      	movs	r5, #160	; 0xa0
    33f4:	0402      	lsls	r2, r0, #16
    33f6:	05ed      	lsls	r5, r5, #23
    33f8:	0c12      	lsrs	r2, r2, #16
    33fa:	432a      	orrs	r2, r5
    33fc:	25d0      	movs	r5, #208	; 0xd0
    33fe:	4322      	orrs	r2, r4
    3400:	629a      	str	r2, [r3, #40]	; 0x28
    3402:	062d      	lsls	r5, r5, #24
    3404:	0c02      	lsrs	r2, r0, #16
    3406:	432a      	orrs	r2, r5
    3408:	4322      	orrs	r2, r4
    340a:	629a      	str	r2, [r3, #40]	; 0x28
    340c:	78ca      	ldrb	r2, [r1, #3]
    340e:	2a00      	cmp	r2, #0
    3410:	d109      	bne.n	3426 <system_pinmux_pin_set_config+0x86>
    3412:	0362      	lsls	r2, r4, #13
    3414:	d503      	bpl.n	341e <system_pinmux_pin_set_config+0x7e>
    3416:	788a      	ldrb	r2, [r1, #2]
    3418:	2a01      	cmp	r2, #1
    341a:	d023      	beq.n	3464 <system_pinmux_pin_set_config+0xc4>
    341c:	6158      	str	r0, [r3, #20]
    341e:	784a      	ldrb	r2, [r1, #1]
    3420:	3a01      	subs	r2, #1
    3422:	2a01      	cmp	r2, #1
    3424:	d913      	bls.n	344e <system_pinmux_pin_set_config+0xae>
    3426:	bd70      	pop	{r4, r5, r6, pc}
    3428:	24a0      	movs	r4, #160	; 0xa0
    342a:	0402      	lsls	r2, r0, #16
    342c:	05e4      	lsls	r4, r4, #23
    342e:	0c12      	lsrs	r2, r2, #16
    3430:	4322      	orrs	r2, r4
    3432:	24d0      	movs	r4, #208	; 0xd0
    3434:	6058      	str	r0, [r3, #4]
    3436:	0624      	lsls	r4, r4, #24
    3438:	629a      	str	r2, [r3, #40]	; 0x28
    343a:	0c02      	lsrs	r2, r0, #16
    343c:	4322      	orrs	r2, r4
    343e:	629a      	str	r2, [r3, #40]	; 0x28
    3440:	78ca      	ldrb	r2, [r1, #3]
    3442:	2a00      	cmp	r2, #0
    3444:	d1ef      	bne.n	3426 <system_pinmux_pin_set_config+0x86>
    3446:	784a      	ldrb	r2, [r1, #1]
    3448:	3a01      	subs	r2, #1
    344a:	2a01      	cmp	r2, #1
    344c:	d8eb      	bhi.n	3426 <system_pinmux_pin_set_config+0x86>
    344e:	6098      	str	r0, [r3, #8]
    3450:	e7e9      	b.n	3426 <system_pinmux_pin_set_config+0x86>
    3452:	22c0      	movs	r2, #192	; 0xc0
    3454:	02d2      	lsls	r2, r2, #11
    3456:	4314      	orrs	r4, r2
    3458:	e7c6      	b.n	33e8 <system_pinmux_pin_set_config+0x48>
    345a:	2400      	movs	r4, #0
    345c:	e7b9      	b.n	33d2 <system_pinmux_pin_set_config+0x32>
    345e:	4a03      	ldr	r2, [pc, #12]	; (346c <system_pinmux_pin_set_config+0xcc>)
    3460:	4014      	ands	r4, r2
    3462:	e7c6      	b.n	33f2 <system_pinmux_pin_set_config+0x52>
    3464:	6198      	str	r0, [r3, #24]
    3466:	e7da      	b.n	341e <system_pinmux_pin_set_config+0x7e>
    3468:	41004400 	.word	0x41004400
    346c:	fffbffff 	.word	0xfffbffff

00003470 <_system_dummy_init>:
    3470:	4770      	bx	lr
    3472:	46c0      	nop			; (mov r8, r8)

00003474 <system_init>:
    3474:	b508      	push	{r3, lr}
    3476:	4b05      	ldr	r3, [pc, #20]	; (348c <system_init+0x18>)
    3478:	4798      	blx	r3
    347a:	4b05      	ldr	r3, [pc, #20]	; (3490 <system_init+0x1c>)
    347c:	4798      	blx	r3
    347e:	4b05      	ldr	r3, [pc, #20]	; (3494 <system_init+0x20>)
    3480:	4798      	blx	r3
    3482:	4b05      	ldr	r3, [pc, #20]	; (3498 <system_init+0x24>)
    3484:	4798      	blx	r3
    3486:	4b05      	ldr	r3, [pc, #20]	; (349c <system_init+0x28>)
    3488:	4798      	blx	r3
    348a:	bd08      	pop	{r3, pc}
    348c:	00002ed1 	.word	0x00002ed1
    3490:	00002de5 	.word	0x00002de5
    3494:	00003471 	.word	0x00003471
    3498:	00003471 	.word	0x00003471
    349c:	00003471 	.word	0x00003471

000034a0 <Dummy_Handler>:
    34a0:	e7fe      	b.n	34a0 <Dummy_Handler>
    34a2:	46c0      	nop			; (mov r8, r8)

000034a4 <Reset_Handler>:
    34a4:	4914      	ldr	r1, [pc, #80]	; (34f8 <Reset_Handler+0x54>)
    34a6:	4815      	ldr	r0, [pc, #84]	; (34fc <Reset_Handler+0x58>)
    34a8:	b508      	push	{r3, lr}
    34aa:	4281      	cmp	r1, r0
    34ac:	d009      	beq.n	34c2 <Reset_Handler+0x1e>
    34ae:	4b14      	ldr	r3, [pc, #80]	; (3500 <Reset_Handler+0x5c>)
    34b0:	4298      	cmp	r0, r3
    34b2:	d206      	bcs.n	34c2 <Reset_Handler+0x1e>
    34b4:	43c2      	mvns	r2, r0
    34b6:	18d2      	adds	r2, r2, r3
    34b8:	0892      	lsrs	r2, r2, #2
    34ba:	3201      	adds	r2, #1
    34bc:	0092      	lsls	r2, r2, #2
    34be:	4b11      	ldr	r3, [pc, #68]	; (3504 <Reset_Handler+0x60>)
    34c0:	4798      	blx	r3
    34c2:	4811      	ldr	r0, [pc, #68]	; (3508 <Reset_Handler+0x64>)
    34c4:	4b11      	ldr	r3, [pc, #68]	; (350c <Reset_Handler+0x68>)
    34c6:	4298      	cmp	r0, r3
    34c8:	d207      	bcs.n	34da <Reset_Handler+0x36>
    34ca:	43c2      	mvns	r2, r0
    34cc:	18d2      	adds	r2, r2, r3
    34ce:	0892      	lsrs	r2, r2, #2
    34d0:	3201      	adds	r2, #1
    34d2:	0092      	lsls	r2, r2, #2
    34d4:	2100      	movs	r1, #0
    34d6:	4b0e      	ldr	r3, [pc, #56]	; (3510 <Reset_Handler+0x6c>)
    34d8:	4798      	blx	r3
    34da:	21ff      	movs	r1, #255	; 0xff
    34dc:	4b0d      	ldr	r3, [pc, #52]	; (3514 <Reset_Handler+0x70>)
    34de:	4a0e      	ldr	r2, [pc, #56]	; (3518 <Reset_Handler+0x74>)
    34e0:	438b      	bics	r3, r1
    34e2:	6093      	str	r3, [r2, #8]
    34e4:	2380      	movs	r3, #128	; 0x80
    34e6:	4a0d      	ldr	r2, [pc, #52]	; (351c <Reset_Handler+0x78>)
    34e8:	6851      	ldr	r1, [r2, #4]
    34ea:	430b      	orrs	r3, r1
    34ec:	6053      	str	r3, [r2, #4]
    34ee:	4b0c      	ldr	r3, [pc, #48]	; (3520 <Reset_Handler+0x7c>)
    34f0:	4798      	blx	r3
    34f2:	4b0c      	ldr	r3, [pc, #48]	; (3524 <Reset_Handler+0x80>)
    34f4:	4798      	blx	r3
    34f6:	e7fe      	b.n	34f6 <Reset_Handler+0x52>
    34f8:	00003ec0 	.word	0x00003ec0
    34fc:	20000000 	.word	0x20000000
    3500:	2000000c 	.word	0x2000000c
    3504:	00003d85 	.word	0x00003d85
    3508:	2000000c 	.word	0x2000000c
    350c:	200009a0 	.word	0x200009a0
    3510:	00003d97 	.word	0x00003d97
    3514:	00000000 	.word	0x00000000
    3518:	e000ed00 	.word	0xe000ed00
    351c:	41004000 	.word	0x41004000
    3520:	00003d39 	.word	0x00003d39
    3524:	00003529 	.word	0x00003529

00003528 <main>:
    3528:	b508      	push	{r3, lr}
    352a:	4b10      	ldr	r3, [pc, #64]	; (356c <main+0x44>)
    352c:	4798      	blx	r3
    352e:	4b10      	ldr	r3, [pc, #64]	; (3570 <main+0x48>)
    3530:	4798      	blx	r3
    3532:	4b10      	ldr	r3, [pc, #64]	; (3574 <main+0x4c>)
    3534:	4798      	blx	r3
    3536:	4b10      	ldr	r3, [pc, #64]	; (3578 <main+0x50>)
    3538:	4798      	blx	r3
    353a:	2800      	cmp	r0, #0
    353c:	d00f      	beq.n	355e <main+0x36>
    353e:	2803      	cmp	r0, #3
    3540:	d105      	bne.n	354e <main+0x26>
    3542:	4b0e      	ldr	r3, [pc, #56]	; (357c <main+0x54>)
    3544:	4798      	blx	r3
    3546:	4b0e      	ldr	r3, [pc, #56]	; (3580 <main+0x58>)
    3548:	4798      	blx	r3
    354a:	4b0e      	ldr	r3, [pc, #56]	; (3584 <main+0x5c>)
    354c:	4798      	blx	r3
    354e:	f3bf 8f4f 	dsb	sy
    3552:	4a0d      	ldr	r2, [pc, #52]	; (3588 <main+0x60>)
    3554:	4b0d      	ldr	r3, [pc, #52]	; (358c <main+0x64>)
    3556:	60da      	str	r2, [r3, #12]
    3558:	f3bf 8f4f 	dsb	sy
    355c:	e7fe      	b.n	355c <main+0x34>
    355e:	4b0c      	ldr	r3, [pc, #48]	; (3590 <main+0x68>)
    3560:	4798      	blx	r3
    3562:	4b07      	ldr	r3, [pc, #28]	; (3580 <main+0x58>)
    3564:	4798      	blx	r3
    3566:	4b0b      	ldr	r3, [pc, #44]	; (3594 <main+0x6c>)
    3568:	4798      	blx	r3
    356a:	e7f0      	b.n	354e <main+0x26>
    356c:	00003475 	.word	0x00003475
    3570:	000012ed 	.word	0x000012ed
    3574:	00001745 	.word	0x00001745
    3578:	00001a01 	.word	0x00001a01
    357c:	00002b25 	.word	0x00002b25
    3580:	0000120d 	.word	0x0000120d
    3584:	00002bd1 	.word	0x00002bd1
    3588:	05fa0004 	.word	0x05fa0004
    358c:	e000ed00 	.word	0xe000ed00
    3590:	00002a51 	.word	0x00002a51
    3594:	000024e5 	.word	0x000024e5

00003598 <__aeabi_uidiv>:
    3598:	2200      	movs	r2, #0
    359a:	0843      	lsrs	r3, r0, #1
    359c:	428b      	cmp	r3, r1
    359e:	d374      	bcc.n	368a <__aeabi_uidiv+0xf2>
    35a0:	0903      	lsrs	r3, r0, #4
    35a2:	428b      	cmp	r3, r1
    35a4:	d35f      	bcc.n	3666 <__aeabi_uidiv+0xce>
    35a6:	0a03      	lsrs	r3, r0, #8
    35a8:	428b      	cmp	r3, r1
    35aa:	d344      	bcc.n	3636 <__aeabi_uidiv+0x9e>
    35ac:	0b03      	lsrs	r3, r0, #12
    35ae:	428b      	cmp	r3, r1
    35b0:	d328      	bcc.n	3604 <__aeabi_uidiv+0x6c>
    35b2:	0c03      	lsrs	r3, r0, #16
    35b4:	428b      	cmp	r3, r1
    35b6:	d30d      	bcc.n	35d4 <__aeabi_uidiv+0x3c>
    35b8:	22ff      	movs	r2, #255	; 0xff
    35ba:	0209      	lsls	r1, r1, #8
    35bc:	ba12      	rev	r2, r2
    35be:	0c03      	lsrs	r3, r0, #16
    35c0:	428b      	cmp	r3, r1
    35c2:	d302      	bcc.n	35ca <__aeabi_uidiv+0x32>
    35c4:	1212      	asrs	r2, r2, #8
    35c6:	0209      	lsls	r1, r1, #8
    35c8:	d065      	beq.n	3696 <__aeabi_uidiv+0xfe>
    35ca:	0b03      	lsrs	r3, r0, #12
    35cc:	428b      	cmp	r3, r1
    35ce:	d319      	bcc.n	3604 <__aeabi_uidiv+0x6c>
    35d0:	e000      	b.n	35d4 <__aeabi_uidiv+0x3c>
    35d2:	0a09      	lsrs	r1, r1, #8
    35d4:	0bc3      	lsrs	r3, r0, #15
    35d6:	428b      	cmp	r3, r1
    35d8:	d301      	bcc.n	35de <__aeabi_uidiv+0x46>
    35da:	03cb      	lsls	r3, r1, #15
    35dc:	1ac0      	subs	r0, r0, r3
    35de:	4152      	adcs	r2, r2
    35e0:	0b83      	lsrs	r3, r0, #14
    35e2:	428b      	cmp	r3, r1
    35e4:	d301      	bcc.n	35ea <__aeabi_uidiv+0x52>
    35e6:	038b      	lsls	r3, r1, #14
    35e8:	1ac0      	subs	r0, r0, r3
    35ea:	4152      	adcs	r2, r2
    35ec:	0b43      	lsrs	r3, r0, #13
    35ee:	428b      	cmp	r3, r1
    35f0:	d301      	bcc.n	35f6 <__aeabi_uidiv+0x5e>
    35f2:	034b      	lsls	r3, r1, #13
    35f4:	1ac0      	subs	r0, r0, r3
    35f6:	4152      	adcs	r2, r2
    35f8:	0b03      	lsrs	r3, r0, #12
    35fa:	428b      	cmp	r3, r1
    35fc:	d301      	bcc.n	3602 <__aeabi_uidiv+0x6a>
    35fe:	030b      	lsls	r3, r1, #12
    3600:	1ac0      	subs	r0, r0, r3
    3602:	4152      	adcs	r2, r2
    3604:	0ac3      	lsrs	r3, r0, #11
    3606:	428b      	cmp	r3, r1
    3608:	d301      	bcc.n	360e <__aeabi_uidiv+0x76>
    360a:	02cb      	lsls	r3, r1, #11
    360c:	1ac0      	subs	r0, r0, r3
    360e:	4152      	adcs	r2, r2
    3610:	0a83      	lsrs	r3, r0, #10
    3612:	428b      	cmp	r3, r1
    3614:	d301      	bcc.n	361a <__aeabi_uidiv+0x82>
    3616:	028b      	lsls	r3, r1, #10
    3618:	1ac0      	subs	r0, r0, r3
    361a:	4152      	adcs	r2, r2
    361c:	0a43      	lsrs	r3, r0, #9
    361e:	428b      	cmp	r3, r1
    3620:	d301      	bcc.n	3626 <__aeabi_uidiv+0x8e>
    3622:	024b      	lsls	r3, r1, #9
    3624:	1ac0      	subs	r0, r0, r3
    3626:	4152      	adcs	r2, r2
    3628:	0a03      	lsrs	r3, r0, #8
    362a:	428b      	cmp	r3, r1
    362c:	d301      	bcc.n	3632 <__aeabi_uidiv+0x9a>
    362e:	020b      	lsls	r3, r1, #8
    3630:	1ac0      	subs	r0, r0, r3
    3632:	4152      	adcs	r2, r2
    3634:	d2cd      	bcs.n	35d2 <__aeabi_uidiv+0x3a>
    3636:	09c3      	lsrs	r3, r0, #7
    3638:	428b      	cmp	r3, r1
    363a:	d301      	bcc.n	3640 <__aeabi_uidiv+0xa8>
    363c:	01cb      	lsls	r3, r1, #7
    363e:	1ac0      	subs	r0, r0, r3
    3640:	4152      	adcs	r2, r2
    3642:	0983      	lsrs	r3, r0, #6
    3644:	428b      	cmp	r3, r1
    3646:	d301      	bcc.n	364c <__aeabi_uidiv+0xb4>
    3648:	018b      	lsls	r3, r1, #6
    364a:	1ac0      	subs	r0, r0, r3
    364c:	4152      	adcs	r2, r2
    364e:	0943      	lsrs	r3, r0, #5
    3650:	428b      	cmp	r3, r1
    3652:	d301      	bcc.n	3658 <__aeabi_uidiv+0xc0>
    3654:	014b      	lsls	r3, r1, #5
    3656:	1ac0      	subs	r0, r0, r3
    3658:	4152      	adcs	r2, r2
    365a:	0903      	lsrs	r3, r0, #4
    365c:	428b      	cmp	r3, r1
    365e:	d301      	bcc.n	3664 <__aeabi_uidiv+0xcc>
    3660:	010b      	lsls	r3, r1, #4
    3662:	1ac0      	subs	r0, r0, r3
    3664:	4152      	adcs	r2, r2
    3666:	08c3      	lsrs	r3, r0, #3
    3668:	428b      	cmp	r3, r1
    366a:	d301      	bcc.n	3670 <__aeabi_uidiv+0xd8>
    366c:	00cb      	lsls	r3, r1, #3
    366e:	1ac0      	subs	r0, r0, r3
    3670:	4152      	adcs	r2, r2
    3672:	0883      	lsrs	r3, r0, #2
    3674:	428b      	cmp	r3, r1
    3676:	d301      	bcc.n	367c <__aeabi_uidiv+0xe4>
    3678:	008b      	lsls	r3, r1, #2
    367a:	1ac0      	subs	r0, r0, r3
    367c:	4152      	adcs	r2, r2
    367e:	0843      	lsrs	r3, r0, #1
    3680:	428b      	cmp	r3, r1
    3682:	d301      	bcc.n	3688 <__aeabi_uidiv+0xf0>
    3684:	004b      	lsls	r3, r1, #1
    3686:	1ac0      	subs	r0, r0, r3
    3688:	4152      	adcs	r2, r2
    368a:	1a41      	subs	r1, r0, r1
    368c:	d200      	bcs.n	3690 <__aeabi_uidiv+0xf8>
    368e:	4601      	mov	r1, r0
    3690:	4152      	adcs	r2, r2
    3692:	4610      	mov	r0, r2
    3694:	4770      	bx	lr
    3696:	e7ff      	b.n	3698 <__aeabi_uidiv+0x100>
    3698:	b501      	push	{r0, lr}
    369a:	2000      	movs	r0, #0
    369c:	f000 f8fc 	bl	3898 <__aeabi_idiv0>
    36a0:	bd02      	pop	{r1, pc}
    36a2:	46c0      	nop			; (mov r8, r8)

000036a4 <__aeabi_uidivmod>:
    36a4:	2900      	cmp	r1, #0
    36a6:	d0f7      	beq.n	3698 <__aeabi_uidiv+0x100>
    36a8:	b503      	push	{r0, r1, lr}
    36aa:	f7ff ff75 	bl	3598 <__aeabi_uidiv>
    36ae:	bc0e      	pop	{r1, r2, r3}
    36b0:	4342      	muls	r2, r0
    36b2:	1a89      	subs	r1, r1, r2
    36b4:	4718      	bx	r3
    36b6:	46c0      	nop			; (mov r8, r8)

000036b8 <__aeabi_idiv>:
    36b8:	4603      	mov	r3, r0
    36ba:	430b      	orrs	r3, r1
    36bc:	d47f      	bmi.n	37be <__aeabi_idiv+0x106>
    36be:	2200      	movs	r2, #0
    36c0:	0843      	lsrs	r3, r0, #1
    36c2:	428b      	cmp	r3, r1
    36c4:	d374      	bcc.n	37b0 <__aeabi_idiv+0xf8>
    36c6:	0903      	lsrs	r3, r0, #4
    36c8:	428b      	cmp	r3, r1
    36ca:	d35f      	bcc.n	378c <__aeabi_idiv+0xd4>
    36cc:	0a03      	lsrs	r3, r0, #8
    36ce:	428b      	cmp	r3, r1
    36d0:	d344      	bcc.n	375c <__aeabi_idiv+0xa4>
    36d2:	0b03      	lsrs	r3, r0, #12
    36d4:	428b      	cmp	r3, r1
    36d6:	d328      	bcc.n	372a <__aeabi_idiv+0x72>
    36d8:	0c03      	lsrs	r3, r0, #16
    36da:	428b      	cmp	r3, r1
    36dc:	d30d      	bcc.n	36fa <__aeabi_idiv+0x42>
    36de:	22ff      	movs	r2, #255	; 0xff
    36e0:	0209      	lsls	r1, r1, #8
    36e2:	ba12      	rev	r2, r2
    36e4:	0c03      	lsrs	r3, r0, #16
    36e6:	428b      	cmp	r3, r1
    36e8:	d302      	bcc.n	36f0 <__aeabi_idiv+0x38>
    36ea:	1212      	asrs	r2, r2, #8
    36ec:	0209      	lsls	r1, r1, #8
    36ee:	d065      	beq.n	37bc <__aeabi_idiv+0x104>
    36f0:	0b03      	lsrs	r3, r0, #12
    36f2:	428b      	cmp	r3, r1
    36f4:	d319      	bcc.n	372a <__aeabi_idiv+0x72>
    36f6:	e000      	b.n	36fa <__aeabi_idiv+0x42>
    36f8:	0a09      	lsrs	r1, r1, #8
    36fa:	0bc3      	lsrs	r3, r0, #15
    36fc:	428b      	cmp	r3, r1
    36fe:	d301      	bcc.n	3704 <__aeabi_idiv+0x4c>
    3700:	03cb      	lsls	r3, r1, #15
    3702:	1ac0      	subs	r0, r0, r3
    3704:	4152      	adcs	r2, r2
    3706:	0b83      	lsrs	r3, r0, #14
    3708:	428b      	cmp	r3, r1
    370a:	d301      	bcc.n	3710 <__aeabi_idiv+0x58>
    370c:	038b      	lsls	r3, r1, #14
    370e:	1ac0      	subs	r0, r0, r3
    3710:	4152      	adcs	r2, r2
    3712:	0b43      	lsrs	r3, r0, #13
    3714:	428b      	cmp	r3, r1
    3716:	d301      	bcc.n	371c <__aeabi_idiv+0x64>
    3718:	034b      	lsls	r3, r1, #13
    371a:	1ac0      	subs	r0, r0, r3
    371c:	4152      	adcs	r2, r2
    371e:	0b03      	lsrs	r3, r0, #12
    3720:	428b      	cmp	r3, r1
    3722:	d301      	bcc.n	3728 <__aeabi_idiv+0x70>
    3724:	030b      	lsls	r3, r1, #12
    3726:	1ac0      	subs	r0, r0, r3
    3728:	4152      	adcs	r2, r2
    372a:	0ac3      	lsrs	r3, r0, #11
    372c:	428b      	cmp	r3, r1
    372e:	d301      	bcc.n	3734 <__aeabi_idiv+0x7c>
    3730:	02cb      	lsls	r3, r1, #11
    3732:	1ac0      	subs	r0, r0, r3
    3734:	4152      	adcs	r2, r2
    3736:	0a83      	lsrs	r3, r0, #10
    3738:	428b      	cmp	r3, r1
    373a:	d301      	bcc.n	3740 <__aeabi_idiv+0x88>
    373c:	028b      	lsls	r3, r1, #10
    373e:	1ac0      	subs	r0, r0, r3
    3740:	4152      	adcs	r2, r2
    3742:	0a43      	lsrs	r3, r0, #9
    3744:	428b      	cmp	r3, r1
    3746:	d301      	bcc.n	374c <__aeabi_idiv+0x94>
    3748:	024b      	lsls	r3, r1, #9
    374a:	1ac0      	subs	r0, r0, r3
    374c:	4152      	adcs	r2, r2
    374e:	0a03      	lsrs	r3, r0, #8
    3750:	428b      	cmp	r3, r1
    3752:	d301      	bcc.n	3758 <__aeabi_idiv+0xa0>
    3754:	020b      	lsls	r3, r1, #8
    3756:	1ac0      	subs	r0, r0, r3
    3758:	4152      	adcs	r2, r2
    375a:	d2cd      	bcs.n	36f8 <__aeabi_idiv+0x40>
    375c:	09c3      	lsrs	r3, r0, #7
    375e:	428b      	cmp	r3, r1
    3760:	d301      	bcc.n	3766 <__aeabi_idiv+0xae>
    3762:	01cb      	lsls	r3, r1, #7
    3764:	1ac0      	subs	r0, r0, r3
    3766:	4152      	adcs	r2, r2
    3768:	0983      	lsrs	r3, r0, #6
    376a:	428b      	cmp	r3, r1
    376c:	d301      	bcc.n	3772 <__aeabi_idiv+0xba>
    376e:	018b      	lsls	r3, r1, #6
    3770:	1ac0      	subs	r0, r0, r3
    3772:	4152      	adcs	r2, r2
    3774:	0943      	lsrs	r3, r0, #5
    3776:	428b      	cmp	r3, r1
    3778:	d301      	bcc.n	377e <__aeabi_idiv+0xc6>
    377a:	014b      	lsls	r3, r1, #5
    377c:	1ac0      	subs	r0, r0, r3
    377e:	4152      	adcs	r2, r2
    3780:	0903      	lsrs	r3, r0, #4
    3782:	428b      	cmp	r3, r1
    3784:	d301      	bcc.n	378a <__aeabi_idiv+0xd2>
    3786:	010b      	lsls	r3, r1, #4
    3788:	1ac0      	subs	r0, r0, r3
    378a:	4152      	adcs	r2, r2
    378c:	08c3      	lsrs	r3, r0, #3
    378e:	428b      	cmp	r3, r1
    3790:	d301      	bcc.n	3796 <__aeabi_idiv+0xde>
    3792:	00cb      	lsls	r3, r1, #3
    3794:	1ac0      	subs	r0, r0, r3
    3796:	4152      	adcs	r2, r2
    3798:	0883      	lsrs	r3, r0, #2
    379a:	428b      	cmp	r3, r1
    379c:	d301      	bcc.n	37a2 <__aeabi_idiv+0xea>
    379e:	008b      	lsls	r3, r1, #2
    37a0:	1ac0      	subs	r0, r0, r3
    37a2:	4152      	adcs	r2, r2
    37a4:	0843      	lsrs	r3, r0, #1
    37a6:	428b      	cmp	r3, r1
    37a8:	d301      	bcc.n	37ae <__aeabi_idiv+0xf6>
    37aa:	004b      	lsls	r3, r1, #1
    37ac:	1ac0      	subs	r0, r0, r3
    37ae:	4152      	adcs	r2, r2
    37b0:	1a41      	subs	r1, r0, r1
    37b2:	d200      	bcs.n	37b6 <__aeabi_idiv+0xfe>
    37b4:	4601      	mov	r1, r0
    37b6:	4152      	adcs	r2, r2
    37b8:	4610      	mov	r0, r2
    37ba:	4770      	bx	lr
    37bc:	e05d      	b.n	387a <__aeabi_idiv+0x1c2>
    37be:	0fca      	lsrs	r2, r1, #31
    37c0:	d000      	beq.n	37c4 <__aeabi_idiv+0x10c>
    37c2:	4249      	negs	r1, r1
    37c4:	1003      	asrs	r3, r0, #32
    37c6:	d300      	bcc.n	37ca <__aeabi_idiv+0x112>
    37c8:	4240      	negs	r0, r0
    37ca:	4053      	eors	r3, r2
    37cc:	2200      	movs	r2, #0
    37ce:	469c      	mov	ip, r3
    37d0:	0903      	lsrs	r3, r0, #4
    37d2:	428b      	cmp	r3, r1
    37d4:	d32d      	bcc.n	3832 <__aeabi_idiv+0x17a>
    37d6:	0a03      	lsrs	r3, r0, #8
    37d8:	428b      	cmp	r3, r1
    37da:	d312      	bcc.n	3802 <__aeabi_idiv+0x14a>
    37dc:	22fc      	movs	r2, #252	; 0xfc
    37de:	0189      	lsls	r1, r1, #6
    37e0:	ba12      	rev	r2, r2
    37e2:	0a03      	lsrs	r3, r0, #8
    37e4:	428b      	cmp	r3, r1
    37e6:	d30c      	bcc.n	3802 <__aeabi_idiv+0x14a>
    37e8:	0189      	lsls	r1, r1, #6
    37ea:	1192      	asrs	r2, r2, #6
    37ec:	428b      	cmp	r3, r1
    37ee:	d308      	bcc.n	3802 <__aeabi_idiv+0x14a>
    37f0:	0189      	lsls	r1, r1, #6
    37f2:	1192      	asrs	r2, r2, #6
    37f4:	428b      	cmp	r3, r1
    37f6:	d304      	bcc.n	3802 <__aeabi_idiv+0x14a>
    37f8:	0189      	lsls	r1, r1, #6
    37fa:	d03a      	beq.n	3872 <__aeabi_idiv+0x1ba>
    37fc:	1192      	asrs	r2, r2, #6
    37fe:	e000      	b.n	3802 <__aeabi_idiv+0x14a>
    3800:	0989      	lsrs	r1, r1, #6
    3802:	09c3      	lsrs	r3, r0, #7
    3804:	428b      	cmp	r3, r1
    3806:	d301      	bcc.n	380c <__aeabi_idiv+0x154>
    3808:	01cb      	lsls	r3, r1, #7
    380a:	1ac0      	subs	r0, r0, r3
    380c:	4152      	adcs	r2, r2
    380e:	0983      	lsrs	r3, r0, #6
    3810:	428b      	cmp	r3, r1
    3812:	d301      	bcc.n	3818 <__aeabi_idiv+0x160>
    3814:	018b      	lsls	r3, r1, #6
    3816:	1ac0      	subs	r0, r0, r3
    3818:	4152      	adcs	r2, r2
    381a:	0943      	lsrs	r3, r0, #5
    381c:	428b      	cmp	r3, r1
    381e:	d301      	bcc.n	3824 <__aeabi_idiv+0x16c>
    3820:	014b      	lsls	r3, r1, #5
    3822:	1ac0      	subs	r0, r0, r3
    3824:	4152      	adcs	r2, r2
    3826:	0903      	lsrs	r3, r0, #4
    3828:	428b      	cmp	r3, r1
    382a:	d301      	bcc.n	3830 <__aeabi_idiv+0x178>
    382c:	010b      	lsls	r3, r1, #4
    382e:	1ac0      	subs	r0, r0, r3
    3830:	4152      	adcs	r2, r2
    3832:	08c3      	lsrs	r3, r0, #3
    3834:	428b      	cmp	r3, r1
    3836:	d301      	bcc.n	383c <__aeabi_idiv+0x184>
    3838:	00cb      	lsls	r3, r1, #3
    383a:	1ac0      	subs	r0, r0, r3
    383c:	4152      	adcs	r2, r2
    383e:	0883      	lsrs	r3, r0, #2
    3840:	428b      	cmp	r3, r1
    3842:	d301      	bcc.n	3848 <__aeabi_idiv+0x190>
    3844:	008b      	lsls	r3, r1, #2
    3846:	1ac0      	subs	r0, r0, r3
    3848:	4152      	adcs	r2, r2
    384a:	d2d9      	bcs.n	3800 <__aeabi_idiv+0x148>
    384c:	0843      	lsrs	r3, r0, #1
    384e:	428b      	cmp	r3, r1
    3850:	d301      	bcc.n	3856 <__aeabi_idiv+0x19e>
    3852:	004b      	lsls	r3, r1, #1
    3854:	1ac0      	subs	r0, r0, r3
    3856:	4152      	adcs	r2, r2
    3858:	1a41      	subs	r1, r0, r1
    385a:	d200      	bcs.n	385e <__aeabi_idiv+0x1a6>
    385c:	4601      	mov	r1, r0
    385e:	4663      	mov	r3, ip
    3860:	4152      	adcs	r2, r2
    3862:	105b      	asrs	r3, r3, #1
    3864:	4610      	mov	r0, r2
    3866:	d301      	bcc.n	386c <__aeabi_idiv+0x1b4>
    3868:	4240      	negs	r0, r0
    386a:	2b00      	cmp	r3, #0
    386c:	d500      	bpl.n	3870 <__aeabi_idiv+0x1b8>
    386e:	4249      	negs	r1, r1
    3870:	4770      	bx	lr
    3872:	4663      	mov	r3, ip
    3874:	105b      	asrs	r3, r3, #1
    3876:	d300      	bcc.n	387a <__aeabi_idiv+0x1c2>
    3878:	4240      	negs	r0, r0
    387a:	b501      	push	{r0, lr}
    387c:	2000      	movs	r0, #0
    387e:	f000 f80b 	bl	3898 <__aeabi_idiv0>
    3882:	bd02      	pop	{r1, pc}

00003884 <__aeabi_idivmod>:
    3884:	2900      	cmp	r1, #0
    3886:	d0f8      	beq.n	387a <__aeabi_idiv+0x1c2>
    3888:	b503      	push	{r0, r1, lr}
    388a:	f7ff ff15 	bl	36b8 <__aeabi_idiv>
    388e:	bc0e      	pop	{r1, r2, r3}
    3890:	4342      	muls	r2, r0
    3892:	1a89      	subs	r1, r1, r2
    3894:	4718      	bx	r3
    3896:	46c0      	nop			; (mov r8, r8)

00003898 <__aeabi_idiv0>:
    3898:	4770      	bx	lr
    389a:	46c0      	nop			; (mov r8, r8)

0000389c <__aeabi_uldivmod>:
    389c:	2b00      	cmp	r3, #0
    389e:	d111      	bne.n	38c4 <__aeabi_uldivmod+0x28>
    38a0:	2a00      	cmp	r2, #0
    38a2:	d10f      	bne.n	38c4 <__aeabi_uldivmod+0x28>
    38a4:	2900      	cmp	r1, #0
    38a6:	d100      	bne.n	38aa <__aeabi_uldivmod+0xe>
    38a8:	2800      	cmp	r0, #0
    38aa:	d002      	beq.n	38b2 <__aeabi_uldivmod+0x16>
    38ac:	2100      	movs	r1, #0
    38ae:	43c9      	mvns	r1, r1
    38b0:	1c08      	adds	r0, r1, #0
    38b2:	b407      	push	{r0, r1, r2}
    38b4:	4802      	ldr	r0, [pc, #8]	; (38c0 <__aeabi_uldivmod+0x24>)
    38b6:	a102      	add	r1, pc, #8	; (adr r1, 38c0 <__aeabi_uldivmod+0x24>)
    38b8:	1840      	adds	r0, r0, r1
    38ba:	9002      	str	r0, [sp, #8]
    38bc:	bd03      	pop	{r0, r1, pc}
    38be:	46c0      	nop			; (mov r8, r8)
    38c0:	ffffffd9 	.word	0xffffffd9
    38c4:	b403      	push	{r0, r1}
    38c6:	4668      	mov	r0, sp
    38c8:	b501      	push	{r0, lr}
    38ca:	9802      	ldr	r0, [sp, #8]
    38cc:	f000 f84c 	bl	3968 <__gnu_uldivmod_helper>
    38d0:	9b01      	ldr	r3, [sp, #4]
    38d2:	469e      	mov	lr, r3
    38d4:	b002      	add	sp, #8
    38d6:	bc0c      	pop	{r2, r3}
    38d8:	4770      	bx	lr
    38da:	46c0      	nop			; (mov r8, r8)

000038dc <__aeabi_lmul>:
    38dc:	b5f0      	push	{r4, r5, r6, r7, lr}
    38de:	464f      	mov	r7, r9
    38e0:	4646      	mov	r6, r8
    38e2:	0405      	lsls	r5, r0, #16
    38e4:	0c2d      	lsrs	r5, r5, #16
    38e6:	1c2c      	adds	r4, r5, #0
    38e8:	b4c0      	push	{r6, r7}
    38ea:	0417      	lsls	r7, r2, #16
    38ec:	0c16      	lsrs	r6, r2, #16
    38ee:	0c3f      	lsrs	r7, r7, #16
    38f0:	4699      	mov	r9, r3
    38f2:	0c03      	lsrs	r3, r0, #16
    38f4:	437c      	muls	r4, r7
    38f6:	4375      	muls	r5, r6
    38f8:	435f      	muls	r7, r3
    38fa:	4373      	muls	r3, r6
    38fc:	197d      	adds	r5, r7, r5
    38fe:	0c26      	lsrs	r6, r4, #16
    3900:	19ad      	adds	r5, r5, r6
    3902:	469c      	mov	ip, r3
    3904:	42af      	cmp	r7, r5
    3906:	d903      	bls.n	3910 <__aeabi_lmul+0x34>
    3908:	2380      	movs	r3, #128	; 0x80
    390a:	025b      	lsls	r3, r3, #9
    390c:	4698      	mov	r8, r3
    390e:	44c4      	add	ip, r8
    3910:	464b      	mov	r3, r9
    3912:	4351      	muls	r1, r2
    3914:	4343      	muls	r3, r0
    3916:	0424      	lsls	r4, r4, #16
    3918:	0c2e      	lsrs	r6, r5, #16
    391a:	0c24      	lsrs	r4, r4, #16
    391c:	042d      	lsls	r5, r5, #16
    391e:	4466      	add	r6, ip
    3920:	192c      	adds	r4, r5, r4
    3922:	1859      	adds	r1, r3, r1
    3924:	1989      	adds	r1, r1, r6
    3926:	1c20      	adds	r0, r4, #0
    3928:	bc0c      	pop	{r2, r3}
    392a:	4690      	mov	r8, r2
    392c:	4699      	mov	r9, r3
    392e:	bdf0      	pop	{r4, r5, r6, r7, pc}

00003930 <__gnu_ldivmod_helper>:
    3930:	b5f0      	push	{r4, r5, r6, r7, lr}
    3932:	b083      	sub	sp, #12
    3934:	1c16      	adds	r6, r2, #0
    3936:	1c1f      	adds	r7, r3, #0
    3938:	9000      	str	r0, [sp, #0]
    393a:	9101      	str	r1, [sp, #4]
    393c:	f000 f82e 	bl	399c <__divdi3>
    3940:	1c04      	adds	r4, r0, #0
    3942:	1c0d      	adds	r5, r1, #0
    3944:	1c22      	adds	r2, r4, #0
    3946:	1c2b      	adds	r3, r5, #0
    3948:	1c30      	adds	r0, r6, #0
    394a:	1c39      	adds	r1, r7, #0
    394c:	f7ff ffc6 	bl	38dc <__aeabi_lmul>
    3950:	9a00      	ldr	r2, [sp, #0]
    3952:	9b01      	ldr	r3, [sp, #4]
    3954:	1a12      	subs	r2, r2, r0
    3956:	418b      	sbcs	r3, r1
    3958:	9908      	ldr	r1, [sp, #32]
    395a:	1c20      	adds	r0, r4, #0
    395c:	600a      	str	r2, [r1, #0]
    395e:	604b      	str	r3, [r1, #4]
    3960:	1c29      	adds	r1, r5, #0
    3962:	b003      	add	sp, #12
    3964:	bdf0      	pop	{r4, r5, r6, r7, pc}
    3966:	46c0      	nop			; (mov r8, r8)

00003968 <__gnu_uldivmod_helper>:
    3968:	b5f0      	push	{r4, r5, r6, r7, lr}
    396a:	1c14      	adds	r4, r2, #0
    396c:	b083      	sub	sp, #12
    396e:	1c1d      	adds	r5, r3, #0
    3970:	9000      	str	r0, [sp, #0]
    3972:	9101      	str	r1, [sp, #4]
    3974:	f000 f90a 	bl	3b8c <__udivdi3>
    3978:	1c22      	adds	r2, r4, #0
    397a:	1c2b      	adds	r3, r5, #0
    397c:	1c06      	adds	r6, r0, #0
    397e:	1c0f      	adds	r7, r1, #0
    3980:	f7ff ffac 	bl	38dc <__aeabi_lmul>
    3984:	9a00      	ldr	r2, [sp, #0]
    3986:	9b01      	ldr	r3, [sp, #4]
    3988:	1a12      	subs	r2, r2, r0
    398a:	418b      	sbcs	r3, r1
    398c:	9908      	ldr	r1, [sp, #32]
    398e:	1c30      	adds	r0, r6, #0
    3990:	600a      	str	r2, [r1, #0]
    3992:	604b      	str	r3, [r1, #4]
    3994:	1c39      	adds	r1, r7, #0
    3996:	b003      	add	sp, #12
    3998:	bdf0      	pop	{r4, r5, r6, r7, pc}
    399a:	46c0      	nop			; (mov r8, r8)

0000399c <__divdi3>:
    399c:	b5f0      	push	{r4, r5, r6, r7, lr}
    399e:	4644      	mov	r4, r8
    39a0:	465f      	mov	r7, fp
    39a2:	4656      	mov	r6, sl
    39a4:	464d      	mov	r5, r9
    39a6:	b4f0      	push	{r4, r5, r6, r7}
    39a8:	1c1c      	adds	r4, r3, #0
    39aa:	b085      	sub	sp, #20
    39ac:	2900      	cmp	r1, #0
    39ae:	da00      	bge.n	39b2 <__divdi3+0x16>
    39b0:	e0a9      	b.n	3b06 <__divdi3+0x16a>
    39b2:	1c0f      	adds	r7, r1, #0
    39b4:	2100      	movs	r1, #0
    39b6:	1c06      	adds	r6, r0, #0
    39b8:	4688      	mov	r8, r1
    39ba:	1c10      	adds	r0, r2, #0
    39bc:	1c19      	adds	r1, r3, #0
    39be:	2c00      	cmp	r4, #0
    39c0:	da00      	bge.n	39c4 <__divdi3+0x28>
    39c2:	e097      	b.n	3af4 <__divdi3+0x158>
    39c4:	1c34      	adds	r4, r6, #0
    39c6:	1c3d      	adds	r5, r7, #0
    39c8:	4682      	mov	sl, r0
    39ca:	4689      	mov	r9, r1
    39cc:	42b9      	cmp	r1, r7
    39ce:	d873      	bhi.n	3ab8 <__divdi3+0x11c>
    39d0:	d070      	beq.n	3ab4 <__divdi3+0x118>
    39d2:	4649      	mov	r1, r9
    39d4:	4650      	mov	r0, sl
    39d6:	f000 f985 	bl	3ce4 <__clzdi2>
    39da:	4683      	mov	fp, r0
    39dc:	1c39      	adds	r1, r7, #0
    39de:	1c30      	adds	r0, r6, #0
    39e0:	f000 f980 	bl	3ce4 <__clzdi2>
    39e4:	465b      	mov	r3, fp
    39e6:	1a18      	subs	r0, r3, r0
    39e8:	1c03      	adds	r3, r0, #0
    39ea:	4683      	mov	fp, r0
    39ec:	3b20      	subs	r3, #32
    39ee:	469c      	mov	ip, r3
    39f0:	d500      	bpl.n	39f4 <__divdi3+0x58>
    39f2:	e09c      	b.n	3b2e <__divdi3+0x192>
    39f4:	2300      	movs	r3, #0
    39f6:	2200      	movs	r2, #0
    39f8:	4651      	mov	r1, sl
    39fa:	9200      	str	r2, [sp, #0]
    39fc:	9301      	str	r3, [sp, #4]
    39fe:	4663      	mov	r3, ip
    3a00:	4099      	lsls	r1, r3
    3a02:	9101      	str	r1, [sp, #4]
    3a04:	4651      	mov	r1, sl
    3a06:	4081      	lsls	r1, r0
    3a08:	9b01      	ldr	r3, [sp, #4]
    3a0a:	9100      	str	r1, [sp, #0]
    3a0c:	42bb      	cmp	r3, r7
    3a0e:	d900      	bls.n	3a12 <__divdi3+0x76>
    3a10:	e083      	b.n	3b1a <__divdi3+0x17e>
    3a12:	d100      	bne.n	3a16 <__divdi3+0x7a>
    3a14:	e07e      	b.n	3b14 <__divdi3+0x178>
    3a16:	9a00      	ldr	r2, [sp, #0]
    3a18:	9b01      	ldr	r3, [sp, #4]
    3a1a:	1c34      	adds	r4, r6, #0
    3a1c:	1c3d      	adds	r5, r7, #0
    3a1e:	1aa4      	subs	r4, r4, r2
    3a20:	419d      	sbcs	r5, r3
    3a22:	4663      	mov	r3, ip
    3a24:	2b00      	cmp	r3, #0
    3a26:	da00      	bge.n	3a2a <__divdi3+0x8e>
    3a28:	e09a      	b.n	3b60 <__divdi3+0x1c4>
    3a2a:	2600      	movs	r6, #0
    3a2c:	2700      	movs	r7, #0
    3a2e:	9602      	str	r6, [sp, #8]
    3a30:	9703      	str	r7, [sp, #12]
    3a32:	3601      	adds	r6, #1
    3a34:	409e      	lsls	r6, r3
    3a36:	9603      	str	r6, [sp, #12]
    3a38:	2601      	movs	r6, #1
    3a3a:	4086      	lsls	r6, r0
    3a3c:	9602      	str	r6, [sp, #8]
    3a3e:	2800      	cmp	r0, #0
    3a40:	d100      	bne.n	3a44 <__divdi3+0xa8>
    3a42:	e071      	b.n	3b28 <__divdi3+0x18c>
    3a44:	9900      	ldr	r1, [sp, #0]
    3a46:	9a01      	ldr	r2, [sp, #4]
    3a48:	07d3      	lsls	r3, r2, #31
    3a4a:	4699      	mov	r9, r3
    3a4c:	464b      	mov	r3, r9
    3a4e:	084e      	lsrs	r6, r1, #1
    3a50:	431e      	orrs	r6, r3
    3a52:	0857      	lsrs	r7, r2, #1
    3a54:	2300      	movs	r3, #0
    3a56:	2201      	movs	r2, #1
    3a58:	e00c      	b.n	3a74 <__divdi3+0xd8>
    3a5a:	42af      	cmp	r7, r5
    3a5c:	d101      	bne.n	3a62 <__divdi3+0xc6>
    3a5e:	42a6      	cmp	r6, r4
    3a60:	d80a      	bhi.n	3a78 <__divdi3+0xdc>
    3a62:	1ba4      	subs	r4, r4, r6
    3a64:	41bd      	sbcs	r5, r7
    3a66:	1924      	adds	r4, r4, r4
    3a68:	416d      	adcs	r5, r5
    3a6a:	3801      	subs	r0, #1
    3a6c:	18a4      	adds	r4, r4, r2
    3a6e:	415d      	adcs	r5, r3
    3a70:	2800      	cmp	r0, #0
    3a72:	d006      	beq.n	3a82 <__divdi3+0xe6>
    3a74:	42af      	cmp	r7, r5
    3a76:	d9f0      	bls.n	3a5a <__divdi3+0xbe>
    3a78:	3801      	subs	r0, #1
    3a7a:	1924      	adds	r4, r4, r4
    3a7c:	416d      	adcs	r5, r5
    3a7e:	2800      	cmp	r0, #0
    3a80:	d1f8      	bne.n	3a74 <__divdi3+0xd8>
    3a82:	2220      	movs	r2, #32
    3a84:	9e02      	ldr	r6, [sp, #8]
    3a86:	9f03      	ldr	r7, [sp, #12]
    3a88:	465b      	mov	r3, fp
    3a8a:	4252      	negs	r2, r2
    3a8c:	1936      	adds	r6, r6, r4
    3a8e:	416f      	adcs	r7, r5
    3a90:	1899      	adds	r1, r3, r2
    3a92:	d45a      	bmi.n	3b4a <__divdi3+0x1ae>
    3a94:	1c28      	adds	r0, r5, #0
    3a96:	40c8      	lsrs	r0, r1
    3a98:	1c2c      	adds	r4, r5, #0
    3a9a:	465b      	mov	r3, fp
    3a9c:	40dc      	lsrs	r4, r3
    3a9e:	2900      	cmp	r1, #0
    3aa0:	db68      	blt.n	3b74 <__divdi3+0x1d8>
    3aa2:	1c04      	adds	r4, r0, #0
    3aa4:	408c      	lsls	r4, r1
    3aa6:	1c23      	adds	r3, r4, #0
    3aa8:	4659      	mov	r1, fp
    3aaa:	4088      	lsls	r0, r1
    3aac:	1c02      	adds	r2, r0, #0
    3aae:	1ab6      	subs	r6, r6, r2
    3ab0:	419f      	sbcs	r7, r3
    3ab2:	e003      	b.n	3abc <__divdi3+0x120>
    3ab4:	42b0      	cmp	r0, r6
    3ab6:	d98c      	bls.n	39d2 <__divdi3+0x36>
    3ab8:	2600      	movs	r6, #0
    3aba:	2700      	movs	r7, #0
    3abc:	4641      	mov	r1, r8
    3abe:	1e4b      	subs	r3, r1, #1
    3ac0:	4199      	sbcs	r1, r3
    3ac2:	2300      	movs	r3, #0
    3ac4:	9100      	str	r1, [sp, #0]
    3ac6:	9301      	str	r3, [sp, #4]
    3ac8:	9a00      	ldr	r2, [sp, #0]
    3aca:	9b01      	ldr	r3, [sp, #4]
    3acc:	2500      	movs	r5, #0
    3ace:	4254      	negs	r4, r2
    3ad0:	419d      	sbcs	r5, r3
    3ad2:	1c33      	adds	r3, r6, #0
    3ad4:	4063      	eors	r3, r4
    3ad6:	1c18      	adds	r0, r3, #0
    3ad8:	1c3b      	adds	r3, r7, #0
    3ada:	406b      	eors	r3, r5
    3adc:	1c19      	adds	r1, r3, #0
    3ade:	9b00      	ldr	r3, [sp, #0]
    3ae0:	9c01      	ldr	r4, [sp, #4]
    3ae2:	18c0      	adds	r0, r0, r3
    3ae4:	4161      	adcs	r1, r4
    3ae6:	b005      	add	sp, #20
    3ae8:	bc3c      	pop	{r2, r3, r4, r5}
    3aea:	4690      	mov	r8, r2
    3aec:	4699      	mov	r9, r3
    3aee:	46a2      	mov	sl, r4
    3af0:	46ab      	mov	fp, r5
    3af2:	bdf0      	pop	{r4, r5, r6, r7, pc}
    3af4:	4643      	mov	r3, r8
    3af6:	43db      	mvns	r3, r3
    3af8:	1c0c      	adds	r4, r1, #0
    3afa:	4698      	mov	r8, r3
    3afc:	1c13      	adds	r3, r2, #0
    3afe:	2100      	movs	r1, #0
    3b00:	4258      	negs	r0, r3
    3b02:	41a1      	sbcs	r1, r4
    3b04:	e75e      	b.n	39c4 <__divdi3+0x28>
    3b06:	2700      	movs	r7, #0
    3b08:	4246      	negs	r6, r0
    3b0a:	418f      	sbcs	r7, r1
    3b0c:	2101      	movs	r1, #1
    3b0e:	4249      	negs	r1, r1
    3b10:	4688      	mov	r8, r1
    3b12:	e752      	b.n	39ba <__divdi3+0x1e>
    3b14:	42b1      	cmp	r1, r6
    3b16:	d800      	bhi.n	3b1a <__divdi3+0x17e>
    3b18:	e77d      	b.n	3a16 <__divdi3+0x7a>
    3b1a:	2600      	movs	r6, #0
    3b1c:	2700      	movs	r7, #0
    3b1e:	9602      	str	r6, [sp, #8]
    3b20:	9703      	str	r7, [sp, #12]
    3b22:	2800      	cmp	r0, #0
    3b24:	d000      	beq.n	3b28 <__divdi3+0x18c>
    3b26:	e78d      	b.n	3a44 <__divdi3+0xa8>
    3b28:	9e02      	ldr	r6, [sp, #8]
    3b2a:	9f03      	ldr	r7, [sp, #12]
    3b2c:	e7c6      	b.n	3abc <__divdi3+0x120>
    3b2e:	2120      	movs	r1, #32
    3b30:	4653      	mov	r3, sl
    3b32:	1a09      	subs	r1, r1, r0
    3b34:	40cb      	lsrs	r3, r1
    3b36:	2200      	movs	r2, #0
    3b38:	1c19      	adds	r1, r3, #0
    3b3a:	2300      	movs	r3, #0
    3b3c:	9200      	str	r2, [sp, #0]
    3b3e:	9301      	str	r3, [sp, #4]
    3b40:	464b      	mov	r3, r9
    3b42:	4083      	lsls	r3, r0
    3b44:	430b      	orrs	r3, r1
    3b46:	9301      	str	r3, [sp, #4]
    3b48:	e75c      	b.n	3a04 <__divdi3+0x68>
    3b4a:	465a      	mov	r2, fp
    3b4c:	2320      	movs	r3, #32
    3b4e:	1a9b      	subs	r3, r3, r2
    3b50:	1c2a      	adds	r2, r5, #0
    3b52:	409a      	lsls	r2, r3
    3b54:	1c20      	adds	r0, r4, #0
    3b56:	1c13      	adds	r3, r2, #0
    3b58:	465a      	mov	r2, fp
    3b5a:	40d0      	lsrs	r0, r2
    3b5c:	4318      	orrs	r0, r3
    3b5e:	e79b      	b.n	3a98 <__divdi3+0xfc>
    3b60:	2620      	movs	r6, #32
    3b62:	2700      	movs	r7, #0
    3b64:	1a33      	subs	r3, r6, r0
    3b66:	2600      	movs	r6, #0
    3b68:	9602      	str	r6, [sp, #8]
    3b6a:	9703      	str	r7, [sp, #12]
    3b6c:	2701      	movs	r7, #1
    3b6e:	40df      	lsrs	r7, r3
    3b70:	9703      	str	r7, [sp, #12]
    3b72:	e761      	b.n	3a38 <__divdi3+0x9c>
    3b74:	465b      	mov	r3, fp
    3b76:	2120      	movs	r1, #32
    3b78:	465d      	mov	r5, fp
    3b7a:	1ac9      	subs	r1, r1, r3
    3b7c:	1c03      	adds	r3, r0, #0
    3b7e:	40ac      	lsls	r4, r5
    3b80:	40cb      	lsrs	r3, r1
    3b82:	1c19      	adds	r1, r3, #0
    3b84:	1c23      	adds	r3, r4, #0
    3b86:	430b      	orrs	r3, r1
    3b88:	e78e      	b.n	3aa8 <__divdi3+0x10c>
    3b8a:	46c0      	nop			; (mov r8, r8)

00003b8c <__udivdi3>:
    3b8c:	b5f0      	push	{r4, r5, r6, r7, lr}
    3b8e:	4645      	mov	r5, r8
    3b90:	464e      	mov	r6, r9
    3b92:	4657      	mov	r7, sl
    3b94:	b4e0      	push	{r5, r6, r7}
    3b96:	1c04      	adds	r4, r0, #0
    3b98:	b082      	sub	sp, #8
    3b9a:	1c0d      	adds	r5, r1, #0
    3b9c:	4691      	mov	r9, r2
    3b9e:	4698      	mov	r8, r3
    3ba0:	428b      	cmp	r3, r1
    3ba2:	d862      	bhi.n	3c6a <__udivdi3+0xde>
    3ba4:	d05f      	beq.n	3c66 <__udivdi3+0xda>
    3ba6:	4641      	mov	r1, r8
    3ba8:	4648      	mov	r0, r9
    3baa:	f000 f89b 	bl	3ce4 <__clzdi2>
    3bae:	1c29      	adds	r1, r5, #0
    3bb0:	1c06      	adds	r6, r0, #0
    3bb2:	1c20      	adds	r0, r4, #0
    3bb4:	f000 f896 	bl	3ce4 <__clzdi2>
    3bb8:	2320      	movs	r3, #32
    3bba:	1a31      	subs	r1, r6, r0
    3bbc:	425b      	negs	r3, r3
    3bbe:	468a      	mov	sl, r1
    3bc0:	18c8      	adds	r0, r1, r3
    3bc2:	d465      	bmi.n	3c90 <__udivdi3+0x104>
    3bc4:	464b      	mov	r3, r9
    3bc6:	4083      	lsls	r3, r0
    3bc8:	1c1f      	adds	r7, r3, #0
    3bca:	464b      	mov	r3, r9
    3bcc:	408b      	lsls	r3, r1
    3bce:	1c1e      	adds	r6, r3, #0
    3bd0:	42af      	cmp	r7, r5
    3bd2:	d858      	bhi.n	3c86 <__udivdi3+0xfa>
    3bd4:	d055      	beq.n	3c82 <__udivdi3+0xf6>
    3bd6:	1ba4      	subs	r4, r4, r6
    3bd8:	41bd      	sbcs	r5, r7
    3bda:	2800      	cmp	r0, #0
    3bdc:	da00      	bge.n	3be0 <__udivdi3+0x54>
    3bde:	e077      	b.n	3cd0 <__udivdi3+0x144>
    3be0:	2200      	movs	r2, #0
    3be2:	2300      	movs	r3, #0
    3be4:	9200      	str	r2, [sp, #0]
    3be6:	9301      	str	r3, [sp, #4]
    3be8:	3201      	adds	r2, #1
    3bea:	4082      	lsls	r2, r0
    3bec:	9201      	str	r2, [sp, #4]
    3bee:	2301      	movs	r3, #1
    3bf0:	408b      	lsls	r3, r1
    3bf2:	9300      	str	r3, [sp, #0]
    3bf4:	2900      	cmp	r1, #0
    3bf6:	d03c      	beq.n	3c72 <__udivdi3+0xe6>
    3bf8:	07fb      	lsls	r3, r7, #31
    3bfa:	4698      	mov	r8, r3
    3bfc:	4640      	mov	r0, r8
    3bfe:	0872      	lsrs	r2, r6, #1
    3c00:	087b      	lsrs	r3, r7, #1
    3c02:	4302      	orrs	r2, r0
    3c04:	2601      	movs	r6, #1
    3c06:	2700      	movs	r7, #0
    3c08:	e00c      	b.n	3c24 <__udivdi3+0x98>
    3c0a:	42ab      	cmp	r3, r5
    3c0c:	d101      	bne.n	3c12 <__udivdi3+0x86>
    3c0e:	42a2      	cmp	r2, r4
    3c10:	d80a      	bhi.n	3c28 <__udivdi3+0x9c>
    3c12:	1aa4      	subs	r4, r4, r2
    3c14:	419d      	sbcs	r5, r3
    3c16:	1924      	adds	r4, r4, r4
    3c18:	416d      	adcs	r5, r5
    3c1a:	3901      	subs	r1, #1
    3c1c:	19a4      	adds	r4, r4, r6
    3c1e:	417d      	adcs	r5, r7
    3c20:	2900      	cmp	r1, #0
    3c22:	d006      	beq.n	3c32 <__udivdi3+0xa6>
    3c24:	42ab      	cmp	r3, r5
    3c26:	d9f0      	bls.n	3c0a <__udivdi3+0x7e>
    3c28:	3901      	subs	r1, #1
    3c2a:	1924      	adds	r4, r4, r4
    3c2c:	416d      	adcs	r5, r5
    3c2e:	2900      	cmp	r1, #0
    3c30:	d1f8      	bne.n	3c24 <__udivdi3+0x98>
    3c32:	2220      	movs	r2, #32
    3c34:	9800      	ldr	r0, [sp, #0]
    3c36:	9901      	ldr	r1, [sp, #4]
    3c38:	4653      	mov	r3, sl
    3c3a:	4252      	negs	r2, r2
    3c3c:	1900      	adds	r0, r0, r4
    3c3e:	4169      	adcs	r1, r5
    3c40:	189e      	adds	r6, r3, r2
    3c42:	d43a      	bmi.n	3cba <__udivdi3+0x12e>
    3c44:	1c2f      	adds	r7, r5, #0
    3c46:	40f7      	lsrs	r7, r6
    3c48:	4653      	mov	r3, sl
    3c4a:	40dd      	lsrs	r5, r3
    3c4c:	2e00      	cmp	r6, #0
    3c4e:	db29      	blt.n	3ca4 <__udivdi3+0x118>
    3c50:	1c3c      	adds	r4, r7, #0
    3c52:	40b4      	lsls	r4, r6
    3c54:	1c23      	adds	r3, r4, #0
    3c56:	4654      	mov	r4, sl
    3c58:	40a7      	lsls	r7, r4
    3c5a:	1c3a      	adds	r2, r7, #0
    3c5c:	1a80      	subs	r0, r0, r2
    3c5e:	4199      	sbcs	r1, r3
    3c60:	9000      	str	r0, [sp, #0]
    3c62:	9101      	str	r1, [sp, #4]
    3c64:	e005      	b.n	3c72 <__udivdi3+0xe6>
    3c66:	4282      	cmp	r2, r0
    3c68:	d99d      	bls.n	3ba6 <__udivdi3+0x1a>
    3c6a:	2300      	movs	r3, #0
    3c6c:	2400      	movs	r4, #0
    3c6e:	9300      	str	r3, [sp, #0]
    3c70:	9401      	str	r4, [sp, #4]
    3c72:	9800      	ldr	r0, [sp, #0]
    3c74:	9901      	ldr	r1, [sp, #4]
    3c76:	b002      	add	sp, #8
    3c78:	bc1c      	pop	{r2, r3, r4}
    3c7a:	4690      	mov	r8, r2
    3c7c:	4699      	mov	r9, r3
    3c7e:	46a2      	mov	sl, r4
    3c80:	bdf0      	pop	{r4, r5, r6, r7, pc}
    3c82:	42a3      	cmp	r3, r4
    3c84:	d9a7      	bls.n	3bd6 <__udivdi3+0x4a>
    3c86:	2200      	movs	r2, #0
    3c88:	2300      	movs	r3, #0
    3c8a:	9200      	str	r2, [sp, #0]
    3c8c:	9301      	str	r3, [sp, #4]
    3c8e:	e7b1      	b.n	3bf4 <__udivdi3+0x68>
    3c90:	2220      	movs	r2, #32
    3c92:	464b      	mov	r3, r9
    3c94:	1a52      	subs	r2, r2, r1
    3c96:	40d3      	lsrs	r3, r2
    3c98:	1c1a      	adds	r2, r3, #0
    3c9a:	4643      	mov	r3, r8
    3c9c:	408b      	lsls	r3, r1
    3c9e:	1c1f      	adds	r7, r3, #0
    3ca0:	4317      	orrs	r7, r2
    3ca2:	e792      	b.n	3bca <__udivdi3+0x3e>
    3ca4:	4653      	mov	r3, sl
    3ca6:	2420      	movs	r4, #32
    3ca8:	4656      	mov	r6, sl
    3caa:	1ae4      	subs	r4, r4, r3
    3cac:	1c3b      	adds	r3, r7, #0
    3cae:	40b5      	lsls	r5, r6
    3cb0:	40e3      	lsrs	r3, r4
    3cb2:	1c1c      	adds	r4, r3, #0
    3cb4:	1c2b      	adds	r3, r5, #0
    3cb6:	4323      	orrs	r3, r4
    3cb8:	e7cd      	b.n	3c56 <__udivdi3+0xca>
    3cba:	4652      	mov	r2, sl
    3cbc:	2320      	movs	r3, #32
    3cbe:	1a9b      	subs	r3, r3, r2
    3cc0:	1c2a      	adds	r2, r5, #0
    3cc2:	409a      	lsls	r2, r3
    3cc4:	1c27      	adds	r7, r4, #0
    3cc6:	1c13      	adds	r3, r2, #0
    3cc8:	4652      	mov	r2, sl
    3cca:	40d7      	lsrs	r7, r2
    3ccc:	431f      	orrs	r7, r3
    3cce:	e7bb      	b.n	3c48 <__udivdi3+0xbc>
    3cd0:	2320      	movs	r3, #32
    3cd2:	2200      	movs	r2, #0
    3cd4:	1a58      	subs	r0, r3, r1
    3cd6:	2300      	movs	r3, #0
    3cd8:	9200      	str	r2, [sp, #0]
    3cda:	9301      	str	r3, [sp, #4]
    3cdc:	3201      	adds	r2, #1
    3cde:	40c2      	lsrs	r2, r0
    3ce0:	9201      	str	r2, [sp, #4]
    3ce2:	e784      	b.n	3bee <__udivdi3+0x62>

00003ce4 <__clzdi2>:
    3ce4:	b510      	push	{r4, lr}
    3ce6:	2900      	cmp	r1, #0
    3ce8:	d103      	bne.n	3cf2 <__clzdi2+0xe>
    3cea:	f000 f807 	bl	3cfc <__clzsi2>
    3cee:	3020      	adds	r0, #32
    3cf0:	e002      	b.n	3cf8 <__clzdi2+0x14>
    3cf2:	1c08      	adds	r0, r1, #0
    3cf4:	f000 f802 	bl	3cfc <__clzsi2>
    3cf8:	bd10      	pop	{r4, pc}
    3cfa:	46c0      	nop			; (mov r8, r8)

00003cfc <__clzsi2>:
    3cfc:	211c      	movs	r1, #28
    3cfe:	2301      	movs	r3, #1
    3d00:	041b      	lsls	r3, r3, #16
    3d02:	4298      	cmp	r0, r3
    3d04:	d301      	bcc.n	3d0a <__clzsi2+0xe>
    3d06:	0c00      	lsrs	r0, r0, #16
    3d08:	3910      	subs	r1, #16
    3d0a:	0a1b      	lsrs	r3, r3, #8
    3d0c:	4298      	cmp	r0, r3
    3d0e:	d301      	bcc.n	3d14 <__clzsi2+0x18>
    3d10:	0a00      	lsrs	r0, r0, #8
    3d12:	3908      	subs	r1, #8
    3d14:	091b      	lsrs	r3, r3, #4
    3d16:	4298      	cmp	r0, r3
    3d18:	d301      	bcc.n	3d1e <__clzsi2+0x22>
    3d1a:	0900      	lsrs	r0, r0, #4
    3d1c:	3904      	subs	r1, #4
    3d1e:	a202      	add	r2, pc, #8	; (adr r2, 3d28 <__clzsi2+0x2c>)
    3d20:	5c10      	ldrb	r0, [r2, r0]
    3d22:	1840      	adds	r0, r0, r1
    3d24:	4770      	bx	lr
    3d26:	46c0      	nop			; (mov r8, r8)
    3d28:	02020304 	.word	0x02020304
    3d2c:	01010101 	.word	0x01010101
	...

00003d38 <__libc_init_array>:
    3d38:	4b0e      	ldr	r3, [pc, #56]	; (3d74 <__libc_init_array+0x3c>)
    3d3a:	b570      	push	{r4, r5, r6, lr}
    3d3c:	2500      	movs	r5, #0
    3d3e:	1c1e      	adds	r6, r3, #0
    3d40:	4c0d      	ldr	r4, [pc, #52]	; (3d78 <__libc_init_array+0x40>)
    3d42:	1ae4      	subs	r4, r4, r3
    3d44:	10a4      	asrs	r4, r4, #2
    3d46:	42a5      	cmp	r5, r4
    3d48:	d004      	beq.n	3d54 <__libc_init_array+0x1c>
    3d4a:	00ab      	lsls	r3, r5, #2
    3d4c:	58f3      	ldr	r3, [r6, r3]
    3d4e:	4798      	blx	r3
    3d50:	3501      	adds	r5, #1
    3d52:	e7f8      	b.n	3d46 <__libc_init_array+0xe>
    3d54:	f000 f8a0 	bl	3e98 <_init>
    3d58:	4b08      	ldr	r3, [pc, #32]	; (3d7c <__libc_init_array+0x44>)
    3d5a:	2500      	movs	r5, #0
    3d5c:	1c1e      	adds	r6, r3, #0
    3d5e:	4c08      	ldr	r4, [pc, #32]	; (3d80 <__libc_init_array+0x48>)
    3d60:	1ae4      	subs	r4, r4, r3
    3d62:	10a4      	asrs	r4, r4, #2
    3d64:	42a5      	cmp	r5, r4
    3d66:	d004      	beq.n	3d72 <__libc_init_array+0x3a>
    3d68:	00ab      	lsls	r3, r5, #2
    3d6a:	58f3      	ldr	r3, [r6, r3]
    3d6c:	4798      	blx	r3
    3d6e:	3501      	adds	r5, #1
    3d70:	e7f8      	b.n	3d64 <__libc_init_array+0x2c>
    3d72:	bd70      	pop	{r4, r5, r6, pc}
    3d74:	00003ea4 	.word	0x00003ea4
    3d78:	00003ea4 	.word	0x00003ea4
    3d7c:	00003ea4 	.word	0x00003ea4
    3d80:	00003ea8 	.word	0x00003ea8

00003d84 <memcpy>:
    3d84:	2300      	movs	r3, #0
    3d86:	b510      	push	{r4, lr}
    3d88:	4293      	cmp	r3, r2
    3d8a:	d003      	beq.n	3d94 <memcpy+0x10>
    3d8c:	5ccc      	ldrb	r4, [r1, r3]
    3d8e:	54c4      	strb	r4, [r0, r3]
    3d90:	3301      	adds	r3, #1
    3d92:	e7f9      	b.n	3d88 <memcpy+0x4>
    3d94:	bd10      	pop	{r4, pc}

00003d96 <memset>:
    3d96:	1c03      	adds	r3, r0, #0
    3d98:	1882      	adds	r2, r0, r2
    3d9a:	4293      	cmp	r3, r2
    3d9c:	d002      	beq.n	3da4 <memset+0xe>
    3d9e:	7019      	strb	r1, [r3, #0]
    3da0:	3301      	adds	r3, #1
    3da2:	e7fa      	b.n	3d9a <memset+0x4>
    3da4:	4770      	bx	lr
    3da6:	0000      	movs	r0, r0
    3da8:	42000800 	.word	0x42000800
    3dac:	42000c00 	.word	0x42000c00
    3db0:	42001000 	.word	0x42001000
    3db4:	42001400 	.word	0x42001400
    3db8:	42002000 	.word	0x42002000
    3dbc:	42002400 	.word	0x42002400
    3dc0:	42002800 	.word	0x42002800
    3dc4:	42002c00 	.word	0x42002c00
    3dc8:	42003000 	.word	0x42003000
    3dcc:	42003400 	.word	0x42003400
    3dd0:	14141313 	.word	0x14141313
    3dd4:	00001515 	.word	0x00001515
    3dd8:	02000100 	.word	0x02000100
    3ddc:	08000400 	.word	0x08000400
    3de0:	20001000 	.word	0x20001000

00003de4 <CSWTCH.51>:
    3de4:	00000001 03000000 00020000              ............

00003df0 <_row_good>:
    3df0:	00000001 00000000 00000000 00000001     ................
    3e00:	00000000 00000001 00000001 00000000     ................
    3e10:	00000000 00000001 00000001 00000000     ................
    3e20:	00000001 00000000 00000000 00000001     ................
    3e30:	00000000 00000001 00000001 00000000     ................
    3e40:	00000001 00000000 00000000 00000001     ................
    3e50:	00000001 00000000 00000000 00000001     ................
    3e60:	00000000 00000001 00000001 00000000     ................

00003e70 <tc_interrupt_vectors.10428>:
    3e70:	100f0e0d 00001211 00002e7e 00002ea2     ........~.......
    3e80:	00002ea2 00002e62 00002e62 00002e68     ....b...b...h...
    3e90:	00002e6e 00002e84                       n.......

00003e98 <_init>:
    3e98:	b5f8      	push	{r3, r4, r5, r6, r7, lr}
    3e9a:	46c0      	nop			; (mov r8, r8)
    3e9c:	bcf8      	pop	{r3, r4, r5, r6, r7}
    3e9e:	bc08      	pop	{r3}
    3ea0:	469e      	mov	lr, r3
    3ea2:	4770      	bx	lr

00003ea4 <__init_array_start>:
    3ea4:	000000cd 	.word	0x000000cd

00003ea8 <_fini>:
    3ea8:	b5f8      	push	{r3, r4, r5, r6, r7, lr}
    3eaa:	46c0      	nop			; (mov r8, r8)
    3eac:	bcf8      	pop	{r3, r4, r5, r6, r7}
    3eae:	bc08      	pop	{r3}
    3eb0:	469e      	mov	lr, r3
    3eb2:	4770      	bx	lr

00003eb4 <__fini_array_start>:
    3eb4:	000000a5 	.word	0x000000a5
