
FirmwareV3.elf:     file format elf32-littlearm

Sections:
Idx Name          Size      VMA       LMA       File off  Algn
  0 .text         00003604  00000000  00000000  00008000  2**2
                  CONTENTS, ALLOC, LOAD, READONLY, CODE
  1 .ARM.exidx    00000008  00003604  00003604  0000b604  2**2
                  CONTENTS, ALLOC, LOAD, READONLY, DATA
  2 .relocate     0000000c  20000000  0000360c  00010000  2**2
                  CONTENTS, ALLOC, LOAD, DATA
  3 .bss          00000988  2000000c  00003618  0001000c  2**2
                  ALLOC
  4 .stack        00001004  20000994  00003fa0  0001000c  2**0
                  ALLOC
  5 .ARM.attributes 00000028  00000000  00000000  0001000c  2**0
                  CONTENTS, READONLY
  6 .comment      0000005b  00000000  00000000  00010034  2**0
                  CONTENTS, READONLY
  7 .debug_frame  00000190  00000000  00000000  00010090  2**2
                  CONTENTS, READONLY, DEBUGGING

Disassembly of section .text:

00000000 <_sfixed>:
       0:	20001998 	.word	0x20001998
       4:	00002bb5 	.word	0x00002bb5
       8:	00002bb1 	.word	0x00002bb1
       c:	00002bb1 	.word	0x00002bb1
	...
      2c:	00002bb1 	.word	0x00002bb1
	...
      38:	00002bb1 	.word	0x00002bb1
      3c:	00002bb1 	.word	0x00002bb1
      40:	00002bb1 	.word	0x00002bb1
      44:	00002bb1 	.word	0x00002bb1
      48:	00002bb1 	.word	0x00002bb1
      4c:	00002bb1 	.word	0x00002bb1
      50:	00002bb1 	.word	0x00002bb1
      54:	00002bb1 	.word	0x00002bb1
      58:	00002bb1 	.word	0x00002bb1
      5c:	00002bb1 	.word	0x00002bb1
      60:	00002bb1 	.word	0x00002bb1
      64:	00002bb1 	.word	0x00002bb1
      68:	00002bb1 	.word	0x00002bb1
	...
      74:	00000aa1 	.word	0x00000aa1
      78:	00000ab1 	.word	0x00000ab1
      7c:	00000ac1 	.word	0x00000ac1
      80:	00000ad1 	.word	0x00000ad1
      84:	00000ae1 	.word	0x00000ae1
      88:	00000af1 	.word	0x00000af1
	...
      94:	00002bb1 	.word	0x00002bb1
      98:	00002bb1 	.word	0x00002bb1
      9c:	00002bb1 	.word	0x00002bb1
      a0:	00002bb1 	.word	0x00002bb1

000000a4 <__do_global_dtors_aux>:
      a4:	b510      	push	{r4, lr}
      a6:	4c06      	ldr	r4, [pc, #24]	; (c0 <__do_global_dtors_aux+0x1c>)
      a8:	7823      	ldrb	r3, [r4, #0]
      aa:	2b00      	cmp	r3, #0
      ac:	d107      	bne.n	be <__do_global_dtors_aux+0x1a>
      ae:	4b05      	ldr	r3, [pc, #20]	; (c4 <__do_global_dtors_aux+0x20>)
      b0:	2b00      	cmp	r3, #0
      b2:	d002      	beq.n	ba <__do_global_dtors_aux+0x16>
      b4:	4804      	ldr	r0, [pc, #16]	; (c8 <__do_global_dtors_aux+0x24>)
      b6:	e000      	b.n	ba <__do_global_dtors_aux+0x16>
      b8:	bf00      	nop
      ba:	2301      	movs	r3, #1
      bc:	7023      	strb	r3, [r4, #0]
      be:	bd10      	pop	{r4, pc}
      c0:	2000000c 	.word	0x2000000c
      c4:	00000000 	.word	0x00000000
      c8:	0000360c 	.word	0x0000360c

000000cc <frame_dummy>:
      cc:	b508      	push	{r3, lr}
      ce:	4b08      	ldr	r3, [pc, #32]	; (f0 <frame_dummy+0x24>)
      d0:	2b00      	cmp	r3, #0
      d2:	d003      	beq.n	dc <frame_dummy+0x10>
      d4:	4807      	ldr	r0, [pc, #28]	; (f4 <frame_dummy+0x28>)
      d6:	4908      	ldr	r1, [pc, #32]	; (f8 <frame_dummy+0x2c>)
      d8:	e000      	b.n	dc <frame_dummy+0x10>
      da:	bf00      	nop
      dc:	4807      	ldr	r0, [pc, #28]	; (fc <frame_dummy+0x30>)
      de:	6803      	ldr	r3, [r0, #0]
      e0:	2b00      	cmp	r3, #0
      e2:	d100      	bne.n	e6 <frame_dummy+0x1a>
      e4:	bd08      	pop	{r3, pc}
      e6:	4b06      	ldr	r3, [pc, #24]	; (100 <frame_dummy+0x34>)
      e8:	2b00      	cmp	r3, #0
      ea:	d0fb      	beq.n	e4 <frame_dummy+0x18>
      ec:	4798      	blx	r3
      ee:	e7f9      	b.n	e4 <frame_dummy+0x18>
      f0:	00000000 	.word	0x00000000
      f4:	0000360c 	.word	0x0000360c
      f8:	20000010 	.word	0x20000010
      fc:	0000360c 	.word	0x0000360c
     100:	00000000 	.word	0x00000000

00000104 <Enviar_Caracter_ABA_TK2>:
     104:	b5f8      	push	{r3, r4, r5, r6, r7, lr}
     106:	1c06      	adds	r6, r0, #0
     108:	2405      	movs	r4, #5
     10a:	2380      	movs	r3, #128	; 0x80
     10c:	4d0b      	ldr	r5, [pc, #44]	; (13c <Enviar_Caracter_ABA_TK2+0x38>)
     10e:	009b      	lsls	r3, r3, #2
     110:	07f2      	lsls	r2, r6, #31
     112:	d401      	bmi.n	118 <Enviar_Caracter_ABA_TK2+0x14>
     114:	61ab      	str	r3, [r5, #24]
     116:	e000      	b.n	11a <Enviar_Caracter_ABA_TK2+0x16>
     118:	616b      	str	r3, [r5, #20]
     11a:	2078      	movs	r0, #120	; 0x78
     11c:	4f08      	ldr	r7, [pc, #32]	; (140 <Enviar_Caracter_ABA_TK2+0x3c>)
     11e:	47b8      	blx	r7
     120:	2380      	movs	r3, #128	; 0x80
     122:	005b      	lsls	r3, r3, #1
     124:	61ab      	str	r3, [r5, #24]
     126:	2078      	movs	r0, #120	; 0x78
     128:	47b8      	blx	r7
     12a:	2380      	movs	r3, #128	; 0x80
     12c:	3c01      	subs	r4, #1
     12e:	005b      	lsls	r3, r3, #1
     130:	b2e4      	uxtb	r4, r4
     132:	616b      	str	r3, [r5, #20]
     134:	0876      	lsrs	r6, r6, #1
     136:	2c00      	cmp	r4, #0
     138:	d1e7      	bne.n	10a <Enviar_Caracter_ABA_TK2+0x6>
     13a:	bdf8      	pop	{r3, r4, r5, r6, r7, pc}
     13c:	41004400 	.word	0x41004400
     140:	00000275 	.word	0x00000275

00000144 <Enviar_ABA_TK2>:
     144:	b5f7      	push	{r0, r1, r2, r4, r5, r6, r7, lr}
     146:	220b      	movs	r2, #11
     148:	4b30      	ldr	r3, [pc, #192]	; (20c <Enviar_ABA_TK2+0xc8>)
     14a:	1c06      	adds	r6, r0, #0
     14c:	701a      	strb	r2, [r3, #0]
     14e:	3214      	adds	r2, #20
     150:	73da      	strb	r2, [r3, #15]
     152:	2200      	movs	r2, #0
     154:	1c0f      	adds	r7, r1, #0
     156:	9200      	str	r2, [sp, #0]
     158:	9301      	str	r3, [sp, #4]
     15a:	4d2d      	ldr	r5, [pc, #180]	; (210 <Enviar_ABA_TK2+0xcc>)
     15c:	1c30      	adds	r0, r6, #0
     15e:	1c39      	adds	r1, r7, #0
     160:	220a      	movs	r2, #10
     162:	2300      	movs	r3, #0
     164:	47a8      	blx	r5
     166:	2300      	movs	r3, #0
     168:	b2d4      	uxtb	r4, r2
     16a:	2c00      	cmp	r4, #0
     16c:	d004      	beq.n	178 <Enviar_ABA_TK2+0x34>
     16e:	2101      	movs	r1, #1
     170:	4021      	ands	r1, r4
     172:	404b      	eors	r3, r1
     174:	0864      	lsrs	r4, r4, #1
     176:	e7f8      	b.n	16a <Enviar_ABA_TK2+0x26>
     178:	4259      	negs	r1, r3
     17a:	414b      	adcs	r3, r1
     17c:	9800      	ldr	r0, [sp, #0]
     17e:	9901      	ldr	r1, [sp, #4]
     180:	011b      	lsls	r3, r3, #4
     182:	1809      	adds	r1, r1, r0
     184:	4313      	orrs	r3, r2
     186:	738b      	strb	r3, [r1, #14]
     188:	1c30      	adds	r0, r6, #0
     18a:	1c39      	adds	r1, r7, #0
     18c:	2300      	movs	r3, #0
     18e:	220a      	movs	r2, #10
     190:	47a8      	blx	r5
     192:	9b00      	ldr	r3, [sp, #0]
     194:	1c06      	adds	r6, r0, #0
     196:	3b01      	subs	r3, #1
     198:	1c0f      	adds	r7, r1, #0
     19a:	9300      	str	r3, [sp, #0]
     19c:	330e      	adds	r3, #14
     19e:	d1dc      	bne.n	15a <Enviar_ABA_TK2+0x16>
     1a0:	1c25      	adds	r5, r4, #0
     1a2:	9b01      	ldr	r3, [sp, #4]
     1a4:	191b      	adds	r3, r3, r4
     1a6:	7bdb      	ldrb	r3, [r3, #15]
     1a8:	3c01      	subs	r4, #1
     1aa:	405d      	eors	r5, r3
     1ac:	1c23      	adds	r3, r4, #0
     1ae:	b2ed      	uxtb	r5, r5
     1b0:	3310      	adds	r3, #16
     1b2:	d1f6      	bne.n	1a2 <Enviar_ABA_TK2+0x5e>
     1b4:	1c28      	adds	r0, r5, #0
     1b6:	2300      	movs	r3, #0
     1b8:	2d00      	cmp	r5, #0
     1ba:	d005      	beq.n	1c8 <Enviar_ABA_TK2+0x84>
     1bc:	2101      	movs	r1, #1
     1be:	4029      	ands	r1, r5
     1c0:	086d      	lsrs	r5, r5, #1
     1c2:	404b      	eors	r3, r1
     1c4:	b2ed      	uxtb	r5, r5
     1c6:	e7f7      	b.n	1b8 <Enviar_ABA_TK2+0x74>
     1c8:	220f      	movs	r2, #15
     1ca:	4259      	negs	r1, r3
     1cc:	414b      	adcs	r3, r1
     1ce:	4002      	ands	r2, r0
     1d0:	011b      	lsls	r3, r3, #4
     1d2:	4313      	orrs	r3, r2
     1d4:	9a01      	ldr	r2, [sp, #4]
     1d6:	4e0f      	ldr	r6, [pc, #60]	; (214 <Enviar_ABA_TK2+0xd0>)
     1d8:	7413      	strb	r3, [r2, #16]
     1da:	2380      	movs	r3, #128	; 0x80
     1dc:	00db      	lsls	r3, r3, #3
     1de:	61b3      	str	r3, [r6, #24]
     1e0:	2014      	movs	r0, #20
     1e2:	4b0d      	ldr	r3, [pc, #52]	; (218 <Enviar_ABA_TK2+0xd4>)
     1e4:	4798      	blx	r3
     1e6:	1c28      	adds	r0, r5, #0
     1e8:	4c0c      	ldr	r4, [pc, #48]	; (21c <Enviar_ABA_TK2+0xd8>)
     1ea:	47a0      	blx	r4
     1ec:	1c28      	adds	r0, r5, #0
     1ee:	47a0      	blx	r4
     1f0:	9b01      	ldr	r3, [sp, #4]
     1f2:	5d58      	ldrb	r0, [r3, r5]
     1f4:	3501      	adds	r5, #1
     1f6:	47a0      	blx	r4
     1f8:	2d11      	cmp	r5, #17
     1fa:	d1f9      	bne.n	1f0 <Enviar_ABA_TK2+0xac>
     1fc:	2000      	movs	r0, #0
     1fe:	47a0      	blx	r4
     200:	2000      	movs	r0, #0
     202:	47a0      	blx	r4
     204:	2380      	movs	r3, #128	; 0x80
     206:	00db      	lsls	r3, r3, #3
     208:	6173      	str	r3, [r6, #20]
     20a:	bdf7      	pop	{r0, r1, r2, r4, r5, r6, r7, pc}
     20c:	20000028 	.word	0x20000028
     210:	00002fc9 	.word	0x00002fc9
     214:	41004400 	.word	0x41004400
     218:	00000275 	.word	0x00000275
     21c:	00000105 	.word	0x00000105

00000220 <delay_cycles>:
     220:	2800      	cmp	r0, #0
     222:	d006      	beq.n	232 <delay_cycles+0x12>
     224:	2200      	movs	r2, #0
     226:	4b03      	ldr	r3, [pc, #12]	; (234 <delay_cycles+0x14>)
     228:	6058      	str	r0, [r3, #4]
     22a:	609a      	str	r2, [r3, #8]
     22c:	681a      	ldr	r2, [r3, #0]
     22e:	03d2      	lsls	r2, r2, #15
     230:	d5fc      	bpl.n	22c <delay_cycles+0xc>
     232:	4770      	bx	lr
     234:	e000e010 	.word	0xe000e010

00000238 <delay_init>:
     238:	b510      	push	{r4, lr}
     23a:	4b09      	ldr	r3, [pc, #36]	; (260 <delay_init+0x28>)
     23c:	2000      	movs	r0, #0
     23e:	4798      	blx	r3
     240:	21fa      	movs	r1, #250	; 0xfa
     242:	4c08      	ldr	r4, [pc, #32]	; (264 <delay_init+0x2c>)
     244:	0089      	lsls	r1, r1, #2
     246:	47a0      	blx	r4
     248:	21fa      	movs	r1, #250	; 0xfa
     24a:	4b07      	ldr	r3, [pc, #28]	; (268 <delay_init+0x30>)
     24c:	0089      	lsls	r1, r1, #2
     24e:	6018      	str	r0, [r3, #0]
     250:	47a0      	blx	r4
     252:	2205      	movs	r2, #5
     254:	4b05      	ldr	r3, [pc, #20]	; (26c <delay_init+0x34>)
     256:	6018      	str	r0, [r3, #0]
     258:	4b05      	ldr	r3, [pc, #20]	; (270 <delay_init+0x38>)
     25a:	601a      	str	r2, [r3, #0]
     25c:	bd10      	pop	{r4, pc}
     25e:	46c0      	nop			; (mov r8, r8)
     260:	00002941 	.word	0x00002941
     264:	00002cad 	.word	0x00002cad
     268:	20000004 	.word	0x20000004
     26c:	20000000 	.word	0x20000000
     270:	e000e010 	.word	0xe000e010

00000274 <delay_cycles_us>:
     274:	b510      	push	{r4, lr}
     276:	1c04      	adds	r4, r0, #0
     278:	2c00      	cmp	r4, #0
     27a:	d005      	beq.n	288 <delay_cycles_us+0x14>
     27c:	4b03      	ldr	r3, [pc, #12]	; (28c <delay_cycles_us+0x18>)
     27e:	3c01      	subs	r4, #1
     280:	6818      	ldr	r0, [r3, #0]
     282:	4b03      	ldr	r3, [pc, #12]	; (290 <delay_cycles_us+0x1c>)
     284:	4798      	blx	r3
     286:	e7f7      	b.n	278 <delay_cycles_us+0x4>
     288:	bd10      	pop	{r4, pc}
     28a:	46c0      	nop			; (mov r8, r8)
     28c:	20000000 	.word	0x20000000
     290:	00000221 	.word	0x00000221

00000294 <delay_cycles_ms>:
     294:	b510      	push	{r4, lr}
     296:	1c04      	adds	r4, r0, #0
     298:	2c00      	cmp	r4, #0
     29a:	d005      	beq.n	2a8 <delay_cycles_ms+0x14>
     29c:	4b03      	ldr	r3, [pc, #12]	; (2ac <delay_cycles_ms+0x18>)
     29e:	3c01      	subs	r4, #1
     2a0:	6818      	ldr	r0, [r3, #0]
     2a2:	4b03      	ldr	r3, [pc, #12]	; (2b0 <delay_cycles_ms+0x1c>)
     2a4:	4798      	blx	r3
     2a6:	e7f7      	b.n	298 <delay_cycles_ms+0x4>
     2a8:	bd10      	pop	{r4, pc}
     2aa:	46c0      	nop			; (mov r8, r8)
     2ac:	20000004 	.word	0x20000004
     2b0:	00000221 	.word	0x00000221

000002b4 <_i2c_master_wait_for_sync>:
     2b4:	6802      	ldr	r2, [r0, #0]
     2b6:	8a13      	ldrh	r3, [r2, #16]
     2b8:	0bdb      	lsrs	r3, r3, #15
     2ba:	d1fc      	bne.n	2b6 <_i2c_master_wait_for_sync+0x2>
     2bc:	4770      	bx	lr

000002be <_i2c_master_address_response>:
     2be:	2302      	movs	r3, #2
     2c0:	6802      	ldr	r2, [r0, #0]
     2c2:	7b91      	ldrb	r1, [r2, #14]
     2c4:	4219      	tst	r1, r3
     2c6:	d008      	beq.n	2da <_i2c_master_address_response+0x1c>
     2c8:	7393      	strb	r3, [r2, #14]
     2ca:	8a12      	ldrh	r2, [r2, #16]
     2cc:	2041      	movs	r0, #65	; 0x41
     2ce:	4013      	ands	r3, r2
     2d0:	1e5a      	subs	r2, r3, #1
     2d2:	4193      	sbcs	r3, r2
     2d4:	425b      	negs	r3, r3
     2d6:	4018      	ands	r0, r3
     2d8:	e00a      	b.n	2f0 <_i2c_master_address_response+0x32>
     2da:	2304      	movs	r3, #4
     2dc:	8a11      	ldrh	r1, [r2, #16]
     2de:	400b      	ands	r3, r1
     2e0:	1e18      	subs	r0, r3, #0
     2e2:	d005      	beq.n	2f0 <_i2c_master_address_response+0x32>
     2e4:	21c0      	movs	r1, #192	; 0xc0
     2e6:	2018      	movs	r0, #24
     2e8:	6853      	ldr	r3, [r2, #4]
     2ea:	0289      	lsls	r1, r1, #10
     2ec:	430b      	orrs	r3, r1
     2ee:	6053      	str	r3, [r2, #4]
     2f0:	4770      	bx	lr

000002f2 <_i2c_master_wait_for_bus>:
     2f2:	2200      	movs	r2, #0
     2f4:	b510      	push	{r4, lr}
     2f6:	6801      	ldr	r1, [r0, #0]
     2f8:	2301      	movs	r3, #1
     2fa:	7b8c      	ldrb	r4, [r1, #14]
     2fc:	4023      	ands	r3, r4
     2fe:	d109      	bne.n	314 <_i2c_master_wait_for_bus+0x22>
     300:	7b8c      	ldrb	r4, [r1, #14]
     302:	07a4      	lsls	r4, r4, #30
     304:	d406      	bmi.n	314 <_i2c_master_wait_for_bus+0x22>
     306:	3201      	adds	r2, #1
     308:	8903      	ldrh	r3, [r0, #8]
     30a:	b292      	uxth	r2, r2
     30c:	4293      	cmp	r3, r2
     30e:	d8f3      	bhi.n	2f8 <_i2c_master_wait_for_bus+0x6>
     310:	2012      	movs	r0, #18
     312:	e000      	b.n	316 <_i2c_master_wait_for_bus+0x24>
     314:	2000      	movs	r0, #0
     316:	bd10      	pop	{r4, pc}

00000318 <_i2c_master_read_packet>:
     318:	2201      	movs	r2, #1
     31a:	b5f0      	push	{r4, r5, r6, r7, lr}
     31c:	884b      	ldrh	r3, [r1, #2]
     31e:	b085      	sub	sp, #20
     320:	9302      	str	r3, [sp, #8]
     322:	880b      	ldrh	r3, [r1, #0]
     324:	6804      	ldr	r4, [r0, #0]
     326:	005b      	lsls	r3, r3, #1
     328:	4313      	orrs	r3, r2
     32a:	b2db      	uxtb	r3, r3
     32c:	7523      	strb	r3, [r4, #20]
     32e:	4b2b      	ldr	r3, [pc, #172]	; (3dc <_i2c_master_read_packet+0xc4>)
     330:	1c05      	adds	r5, r0, #0
     332:	1c0f      	adds	r7, r1, #0
     334:	4798      	blx	r3
     336:	6862      	ldr	r2, [r4, #4]
     338:	4b29      	ldr	r3, [pc, #164]	; (3e0 <_i2c_master_read_packet+0xc8>)
     33a:	4013      	ands	r3, r2
     33c:	6063      	str	r3, [r4, #4]
     33e:	2800      	cmp	r0, #0
     340:	d14a      	bne.n	3d8 <_i2c_master_read_packet+0xc0>
     342:	1c28      	adds	r0, r5, #0
     344:	4b27      	ldr	r3, [pc, #156]	; (3e4 <_i2c_master_read_packet+0xcc>)
     346:	4798      	blx	r3
     348:	9001      	str	r0, [sp, #4]
     34a:	1e06      	subs	r6, r0, #0
     34c:	d144      	bne.n	3d8 <_i2c_master_read_packet+0xc0>
     34e:	9b02      	ldr	r3, [sp, #8]
     350:	3b01      	subs	r3, #1
     352:	b29b      	uxth	r3, r3
     354:	9303      	str	r3, [sp, #12]
     356:	9b02      	ldr	r3, [sp, #8]
     358:	2b00      	cmp	r3, #0
     35a:	d023      	beq.n	3a4 <_i2c_master_read_packet+0x8c>
     35c:	8a23      	ldrh	r3, [r4, #16]
     35e:	069b      	lsls	r3, r3, #26
     360:	d539      	bpl.n	3d6 <_i2c_master_read_packet+0xbe>
     362:	7aeb      	ldrb	r3, [r5, #11]
     364:	2b00      	cmp	r3, #0
     366:	d009      	beq.n	37c <_i2c_master_read_packet+0x64>
     368:	9b03      	ldr	r3, [sp, #12]
     36a:	2b00      	cmp	r3, #0
     36c:	d106      	bne.n	37c <_i2c_master_read_packet+0x64>
     36e:	2280      	movs	r2, #128	; 0x80
     370:	6863      	ldr	r3, [r4, #4]
     372:	02d2      	lsls	r2, r2, #11
     374:	4313      	orrs	r3, r2
     376:	6063      	str	r3, [r4, #4]
     378:	9602      	str	r6, [sp, #8]
     37a:	e00d      	b.n	398 <_i2c_master_read_packet+0x80>
     37c:	1c28      	adds	r0, r5, #0
     37e:	4b1a      	ldr	r3, [pc, #104]	; (3e8 <_i2c_master_read_packet+0xd0>)
     380:	4798      	blx	r3
     382:	1c73      	adds	r3, r6, #1
     384:	b29b      	uxth	r3, r3
     386:	9302      	str	r3, [sp, #8]
     388:	7e23      	ldrb	r3, [r4, #24]
     38a:	687a      	ldr	r2, [r7, #4]
     38c:	1c28      	adds	r0, r5, #0
     38e:	5593      	strb	r3, [r2, r6]
     390:	4b12      	ldr	r3, [pc, #72]	; (3dc <_i2c_master_read_packet+0xc4>)
     392:	4798      	blx	r3
     394:	2800      	cmp	r0, #0
     396:	d103      	bne.n	3a0 <_i2c_master_read_packet+0x88>
     398:	9b03      	ldr	r3, [sp, #12]
     39a:	9e02      	ldr	r6, [sp, #8]
     39c:	9302      	str	r3, [sp, #8]
     39e:	e7d6      	b.n	34e <_i2c_master_read_packet+0x36>
     3a0:	9e02      	ldr	r6, [sp, #8]
     3a2:	9001      	str	r0, [sp, #4]
     3a4:	7aab      	ldrb	r3, [r5, #10]
     3a6:	1c28      	adds	r0, r5, #0
     3a8:	2b00      	cmp	r3, #0
     3aa:	d005      	beq.n	3b8 <_i2c_master_read_packet+0xa0>
     3ac:	4b0e      	ldr	r3, [pc, #56]	; (3e8 <_i2c_master_read_packet+0xd0>)
     3ae:	4798      	blx	r3
     3b0:	22c0      	movs	r2, #192	; 0xc0
     3b2:	6863      	ldr	r3, [r4, #4]
     3b4:	0292      	lsls	r2, r2, #10
     3b6:	e004      	b.n	3c2 <_i2c_master_read_packet+0xaa>
     3b8:	4b0b      	ldr	r3, [pc, #44]	; (3e8 <_i2c_master_read_packet+0xd0>)
     3ba:	4798      	blx	r3
     3bc:	2280      	movs	r2, #128	; 0x80
     3be:	6863      	ldr	r3, [r4, #4]
     3c0:	0252      	lsls	r2, r2, #9
     3c2:	4313      	orrs	r3, r2
     3c4:	6063      	str	r3, [r4, #4]
     3c6:	1c28      	adds	r0, r5, #0
     3c8:	4b07      	ldr	r3, [pc, #28]	; (3e8 <_i2c_master_read_packet+0xd0>)
     3ca:	4798      	blx	r3
     3cc:	7e22      	ldrb	r2, [r4, #24]
     3ce:	687b      	ldr	r3, [r7, #4]
     3d0:	9801      	ldr	r0, [sp, #4]
     3d2:	559a      	strb	r2, [r3, r6]
     3d4:	e000      	b.n	3d8 <_i2c_master_read_packet+0xc0>
     3d6:	2041      	movs	r0, #65	; 0x41
     3d8:	b005      	add	sp, #20
     3da:	bdf0      	pop	{r4, r5, r6, r7, pc}
     3dc:	000002f3 	.word	0x000002f3
     3e0:	fffbffff 	.word	0xfffbffff
     3e4:	000002bf 	.word	0x000002bf
     3e8:	000002b5 	.word	0x000002b5

000003ec <_i2c_master_write_packet>:
     3ec:	b5f0      	push	{r4, r5, r6, r7, lr}
     3ee:	1c0f      	adds	r7, r1, #0
     3f0:	1c04      	adds	r4, r0, #0
     3f2:	884b      	ldrh	r3, [r1, #2]
     3f4:	b085      	sub	sp, #20
     3f6:	4e21      	ldr	r6, [pc, #132]	; (47c <_i2c_master_write_packet+0x90>)
     3f8:	6805      	ldr	r5, [r0, #0]
     3fa:	9303      	str	r3, [sp, #12]
     3fc:	47b0      	blx	r6
     3fe:	883b      	ldrh	r3, [r7, #0]
     400:	1c20      	adds	r0, r4, #0
     402:	005b      	lsls	r3, r3, #1
     404:	b2db      	uxtb	r3, r3
     406:	752b      	strb	r3, [r5, #20]
     408:	4b1d      	ldr	r3, [pc, #116]	; (480 <_i2c_master_write_packet+0x94>)
     40a:	4798      	blx	r3
     40c:	9602      	str	r6, [sp, #8]
     40e:	9001      	str	r0, [sp, #4]
     410:	2800      	cmp	r0, #0
     412:	d130      	bne.n	476 <_i2c_master_write_packet+0x8a>
     414:	1c20      	adds	r0, r4, #0
     416:	4b1b      	ldr	r3, [pc, #108]	; (484 <_i2c_master_write_packet+0x98>)
     418:	4798      	blx	r3
     41a:	1e06      	subs	r6, r0, #0
     41c:	9001      	str	r0, [sp, #4]
     41e:	d12a      	bne.n	476 <_i2c_master_write_packet+0x8a>
     420:	9b01      	ldr	r3, [sp, #4]
     422:	9a03      	ldr	r2, [sp, #12]
     424:	4293      	cmp	r3, r2
     426:	d017      	beq.n	458 <_i2c_master_write_packet+0x6c>
     428:	8a2b      	ldrh	r3, [r5, #16]
     42a:	069b      	lsls	r3, r3, #26
     42c:	d521      	bpl.n	472 <_i2c_master_write_packet+0x86>
     42e:	1c20      	adds	r0, r4, #0
     430:	9b02      	ldr	r3, [sp, #8]
     432:	4798      	blx	r3
     434:	687b      	ldr	r3, [r7, #4]
     436:	9a01      	ldr	r2, [sp, #4]
     438:	1c20      	adds	r0, r4, #0
     43a:	5c9b      	ldrb	r3, [r3, r2]
     43c:	762b      	strb	r3, [r5, #24]
     43e:	4b10      	ldr	r3, [pc, #64]	; (480 <_i2c_master_write_packet+0x94>)
     440:	4798      	blx	r3
     442:	2800      	cmp	r0, #0
     444:	d107      	bne.n	456 <_i2c_master_write_packet+0x6a>
     446:	9a01      	ldr	r2, [sp, #4]
     448:	8a2b      	ldrh	r3, [r5, #16]
     44a:	3201      	adds	r2, #1
     44c:	9201      	str	r2, [sp, #4]
     44e:	075b      	lsls	r3, r3, #29
     450:	d5e6      	bpl.n	420 <_i2c_master_write_packet+0x34>
     452:	261e      	movs	r6, #30
     454:	e000      	b.n	458 <_i2c_master_write_packet+0x6c>
     456:	1c06      	adds	r6, r0, #0
     458:	7aa3      	ldrb	r3, [r4, #10]
     45a:	9601      	str	r6, [sp, #4]
     45c:	2b00      	cmp	r3, #0
     45e:	d00a      	beq.n	476 <_i2c_master_write_packet+0x8a>
     460:	9b02      	ldr	r3, [sp, #8]
     462:	1c20      	adds	r0, r4, #0
     464:	4798      	blx	r3
     466:	22c0      	movs	r2, #192	; 0xc0
     468:	686b      	ldr	r3, [r5, #4]
     46a:	0292      	lsls	r2, r2, #10
     46c:	4313      	orrs	r3, r2
     46e:	606b      	str	r3, [r5, #4]
     470:	e001      	b.n	476 <_i2c_master_write_packet+0x8a>
     472:	2341      	movs	r3, #65	; 0x41
     474:	9301      	str	r3, [sp, #4]
     476:	9801      	ldr	r0, [sp, #4]
     478:	b005      	add	sp, #20
     47a:	bdf0      	pop	{r4, r5, r6, r7, pc}
     47c:	000002b5 	.word	0x000002b5
     480:	000002f3 	.word	0x000002f3
     484:	000002bf 	.word	0x000002bf

00000488 <i2c_master_init>:
     488:	b5f0      	push	{r4, r5, r6, r7, lr}
     48a:	1c07      	adds	r7, r0, #0
     48c:	b085      	sub	sp, #20
     48e:	6039      	str	r1, [r7, #0]
     490:	1c08      	adds	r0, r1, #0
     492:	4b4b      	ldr	r3, [pc, #300]	; (5c0 <i2c_master_init+0x138>)
     494:	1c14      	adds	r4, r2, #0
     496:	1c0e      	adds	r6, r1, #0
     498:	4798      	blx	r3
     49a:	2501      	movs	r5, #1
     49c:	1c83      	adds	r3, r0, #2
     49e:	409d      	lsls	r5, r3
     4a0:	1c2b      	adds	r3, r5, #0
     4a2:	4948      	ldr	r1, [pc, #288]	; (5c4 <i2c_master_init+0x13c>)
     4a4:	300d      	adds	r0, #13
     4a6:	6a0a      	ldr	r2, [r1, #32]
     4a8:	b2c5      	uxtb	r5, r0
     4aa:	4313      	orrs	r3, r2
     4ac:	620b      	str	r3, [r1, #32]
     4ae:	7923      	ldrb	r3, [r4, #4]
     4b0:	aa02      	add	r2, sp, #8
     4b2:	7013      	strb	r3, [r2, #0]
     4b4:	1c11      	adds	r1, r2, #0
     4b6:	1c28      	adds	r0, r5, #0
     4b8:	4b43      	ldr	r3, [pc, #268]	; (5c8 <i2c_master_init+0x140>)
     4ba:	4798      	blx	r3
     4bc:	1c28      	adds	r0, r5, #0
     4be:	4b43      	ldr	r3, [pc, #268]	; (5cc <i2c_master_init+0x144>)
     4c0:	4798      	blx	r3
     4c2:	4b43      	ldr	r3, [pc, #268]	; (5d0 <i2c_master_init+0x148>)
     4c4:	7920      	ldrb	r0, [r4, #4]
     4c6:	2100      	movs	r1, #0
     4c8:	4798      	blx	r3
     4ca:	6833      	ldr	r3, [r6, #0]
     4cc:	201c      	movs	r0, #28
     4ce:	079b      	lsls	r3, r3, #30
     4d0:	d473      	bmi.n	5ba <i2c_master_init+0x132>
     4d2:	2201      	movs	r2, #1
     4d4:	6833      	ldr	r3, [r6, #0]
     4d6:	3817      	subs	r0, #23
     4d8:	401a      	ands	r2, r3
     4da:	9200      	str	r2, [sp, #0]
     4dc:	1e13      	subs	r3, r2, #0
     4de:	d16c      	bne.n	5ba <i2c_master_init+0x132>
     4e0:	3314      	adds	r3, #20
     4e2:	6033      	str	r3, [r6, #0]
     4e4:	683e      	ldr	r6, [r7, #0]
     4e6:	4b36      	ldr	r3, [pc, #216]	; (5c0 <i2c_master_init+0x138>)
     4e8:	1c30      	adds	r0, r6, #0
     4ea:	4798      	blx	r3
     4ec:	2380      	movs	r3, #128	; 0x80
     4ee:	ad03      	add	r5, sp, #12
     4f0:	702b      	strb	r3, [r5, #0]
     4f2:	466b      	mov	r3, sp
     4f4:	781b      	ldrb	r3, [r3, #0]
     4f6:	6961      	ldr	r1, [r4, #20]
     4f8:	706b      	strb	r3, [r5, #1]
     4fa:	2301      	movs	r3, #1
     4fc:	70ab      	strb	r3, [r5, #2]
     4fe:	466b      	mov	r3, sp
     500:	781b      	ldrb	r3, [r3, #0]
     502:	9001      	str	r0, [sp, #4]
     504:	70eb      	strb	r3, [r5, #3]
     506:	69a3      	ldr	r3, [r4, #24]
     508:	9300      	str	r3, [sp, #0]
     50a:	2900      	cmp	r1, #0
     50c:	d103      	bne.n	516 <i2c_master_init+0x8e>
     50e:	1c30      	adds	r0, r6, #0
     510:	4b30      	ldr	r3, [pc, #192]	; (5d4 <i2c_master_init+0x14c>)
     512:	4798      	blx	r3
     514:	1c01      	adds	r1, r0, #0
     516:	2302      	movs	r3, #2
     518:	7029      	strb	r1, [r5, #0]
     51a:	0c09      	lsrs	r1, r1, #16
     51c:	706b      	strb	r3, [r5, #1]
     51e:	b2c8      	uxtb	r0, r1
     520:	4b2d      	ldr	r3, [pc, #180]	; (5d8 <i2c_master_init+0x150>)
     522:	1c29      	adds	r1, r5, #0
     524:	4798      	blx	r3
     526:	9b00      	ldr	r3, [sp, #0]
     528:	2b00      	cmp	r3, #0
     52a:	d104      	bne.n	536 <i2c_master_init+0xae>
     52c:	1c30      	adds	r0, r6, #0
     52e:	2101      	movs	r1, #1
     530:	4b28      	ldr	r3, [pc, #160]	; (5d4 <i2c_master_init+0x14c>)
     532:	4798      	blx	r3
     534:	9000      	str	r0, [sp, #0]
     536:	466b      	mov	r3, sp
     538:	781b      	ldrb	r3, [r3, #0]
     53a:	1c29      	adds	r1, r5, #0
     53c:	702b      	strb	r3, [r5, #0]
     53e:	2302      	movs	r3, #2
     540:	706b      	strb	r3, [r5, #1]
     542:	9b00      	ldr	r3, [sp, #0]
     544:	0c18      	lsrs	r0, r3, #16
     546:	b2c0      	uxtb	r0, r0
     548:	4b23      	ldr	r3, [pc, #140]	; (5d8 <i2c_master_init+0x150>)
     54a:	4798      	blx	r3
     54c:	89a3      	ldrh	r3, [r4, #12]
     54e:	80fb      	strh	r3, [r7, #6]
     550:	89e3      	ldrh	r3, [r4, #14]
     552:	813b      	strh	r3, [r7, #8]
     554:	7c22      	ldrb	r2, [r4, #16]
     556:	2380      	movs	r3, #128	; 0x80
     558:	2a00      	cmp	r2, #0
     55a:	d106      	bne.n	56a <i2c_master_init+0xe2>
     55c:	4b1f      	ldr	r3, [pc, #124]	; (5dc <i2c_master_init+0x154>)
     55e:	3202      	adds	r2, #2
     560:	789b      	ldrb	r3, [r3, #2]
     562:	4013      	ands	r3, r2
     564:	1e5a      	subs	r2, r3, #1
     566:	4193      	sbcs	r3, r2
     568:	01db      	lsls	r3, r3, #7
     56a:	68a2      	ldr	r2, [r4, #8]
     56c:	2a00      	cmp	r2, #0
     56e:	d000      	beq.n	572 <i2c_master_init+0xea>
     570:	4313      	orrs	r3, r2
     572:	7f22      	ldrb	r2, [r4, #28]
     574:	2a00      	cmp	r2, #0
     576:	d002      	beq.n	57e <i2c_master_init+0xf6>
     578:	2280      	movs	r2, #128	; 0x80
     57a:	05d2      	lsls	r2, r2, #23
     57c:	4313      	orrs	r3, r2
     57e:	6a22      	ldr	r2, [r4, #32]
     580:	2a00      	cmp	r2, #0
     582:	d000      	beq.n	586 <i2c_master_init+0xfe>
     584:	4313      	orrs	r3, r2
     586:	6832      	ldr	r2, [r6, #0]
     588:	9801      	ldr	r0, [sp, #4]
     58a:	4313      	orrs	r3, r2
     58c:	6033      	str	r3, [r6, #0]
     58e:	2380      	movs	r3, #128	; 0x80
     590:	300d      	adds	r0, #13
     592:	005b      	lsls	r3, r3, #1
     594:	6073      	str	r3, [r6, #4]
     596:	b2c0      	uxtb	r0, r0
     598:	4b11      	ldr	r3, [pc, #68]	; (5e0 <i2c_master_init+0x158>)
     59a:	4798      	blx	r3
     59c:	23fa      	movs	r3, #250	; 0xfa
     59e:	6821      	ldr	r1, [r4, #0]
     5a0:	00db      	lsls	r3, r3, #3
     5a2:	4359      	muls	r1, r3
     5a4:	1e4b      	subs	r3, r1, #1
     5a6:	1818      	adds	r0, r3, r0
     5a8:	4b0e      	ldr	r3, [pc, #56]	; (5e4 <i2c_master_init+0x15c>)
     5aa:	4798      	blx	r3
     5ac:	1f43      	subs	r3, r0, #5
     5ae:	2040      	movs	r0, #64	; 0x40
     5b0:	2bff      	cmp	r3, #255	; 0xff
     5b2:	d802      	bhi.n	5ba <i2c_master_init+0x132>
     5b4:	2000      	movs	r0, #0
     5b6:	b29b      	uxth	r3, r3
     5b8:	8173      	strh	r3, [r6, #10]
     5ba:	b005      	add	sp, #20
     5bc:	bdf0      	pop	{r4, r5, r6, r7, pc}
     5be:	46c0      	nop			; (mov r8, r8)
     5c0:	00000745 	.word	0x00000745
     5c4:	40000400 	.word	0x40000400
     5c8:	00002a4d 	.word	0x00002a4d
     5cc:	000029c9 	.word	0x000029c9
     5d0:	00000611 	.word	0x00000611
     5d4:	00000655 	.word	0x00000655
     5d8:	00002b51 	.word	0x00002b51
     5dc:	41002000 	.word	0x41002000
     5e0:	00002a99 	.word	0x00002a99
     5e4:	00002cad 	.word	0x00002cad

000005e8 <i2c_master_read_packet_wait>:
     5e8:	b508      	push	{r3, lr}
     5ea:	2301      	movs	r3, #1
     5ec:	7283      	strb	r3, [r0, #10]
     5ee:	72c3      	strb	r3, [r0, #11]
     5f0:	4b01      	ldr	r3, [pc, #4]	; (5f8 <i2c_master_read_packet_wait+0x10>)
     5f2:	4798      	blx	r3
     5f4:	bd08      	pop	{r3, pc}
     5f6:	46c0      	nop			; (mov r8, r8)
     5f8:	00000319 	.word	0x00000319

000005fc <i2c_master_write_packet_wait>:
     5fc:	b508      	push	{r3, lr}
     5fe:	2301      	movs	r3, #1
     600:	7283      	strb	r3, [r0, #10]
     602:	72c3      	strb	r3, [r0, #11]
     604:	4b01      	ldr	r3, [pc, #4]	; (60c <i2c_master_write_packet_wait+0x10>)
     606:	4798      	blx	r3
     608:	bd08      	pop	{r3, pc}
     60a:	46c0      	nop			; (mov r8, r8)
     60c:	000003ed 	.word	0x000003ed

00000610 <sercom_set_gclk_generator>:
     610:	b537      	push	{r0, r1, r2, r4, r5, lr}
     612:	4b0d      	ldr	r3, [pc, #52]	; (648 <sercom_set_gclk_generator+0x38>)
     614:	1c04      	adds	r4, r0, #0
     616:	781a      	ldrb	r2, [r3, #0]
     618:	1c1d      	adds	r5, r3, #0
     61a:	2a00      	cmp	r2, #0
     61c:	d001      	beq.n	622 <sercom_set_gclk_generator+0x12>
     61e:	2900      	cmp	r1, #0
     620:	d00c      	beq.n	63c <sercom_set_gclk_generator+0x2c>
     622:	a901      	add	r1, sp, #4
     624:	200c      	movs	r0, #12
     626:	4b09      	ldr	r3, [pc, #36]	; (64c <sercom_set_gclk_generator+0x3c>)
     628:	700c      	strb	r4, [r1, #0]
     62a:	4798      	blx	r3
     62c:	200c      	movs	r0, #12
     62e:	4b08      	ldr	r3, [pc, #32]	; (650 <sercom_set_gclk_generator+0x40>)
     630:	4798      	blx	r3
     632:	2301      	movs	r3, #1
     634:	706c      	strb	r4, [r5, #1]
     636:	702b      	strb	r3, [r5, #0]
     638:	2000      	movs	r0, #0
     63a:	e004      	b.n	646 <sercom_set_gclk_generator+0x36>
     63c:	785b      	ldrb	r3, [r3, #1]
     63e:	1c08      	adds	r0, r1, #0
     640:	42a3      	cmp	r3, r4
     642:	d000      	beq.n	646 <sercom_set_gclk_generator+0x36>
     644:	201d      	movs	r0, #29
     646:	bd3e      	pop	{r1, r2, r3, r4, r5, pc}
     648:	20000039 	.word	0x20000039
     64c:	00002a4d 	.word	0x00002a4d
     650:	000029c9 	.word	0x000029c9

00000654 <_sercom_get_default_pad>:
     654:	4a28      	ldr	r2, [pc, #160]	; (6f8 <_sercom_get_default_pad+0xa4>)
     656:	1c03      	adds	r3, r0, #0
     658:	b500      	push	{lr}
     65a:	1c08      	adds	r0, r1, #0
     65c:	4293      	cmp	r3, r2
     65e:	d018      	beq.n	692 <_sercom_get_default_pad+0x3e>
     660:	d803      	bhi.n	66a <_sercom_get_default_pad+0x16>
     662:	4a26      	ldr	r2, [pc, #152]	; (6fc <_sercom_get_default_pad+0xa8>)
     664:	4293      	cmp	r3, r2
     666:	d007      	beq.n	678 <_sercom_get_default_pad+0x24>
     668:	e03a      	b.n	6e0 <_sercom_get_default_pad+0x8c>
     66a:	4a25      	ldr	r2, [pc, #148]	; (700 <_sercom_get_default_pad+0xac>)
     66c:	4293      	cmp	r3, r2
     66e:	d01d      	beq.n	6ac <_sercom_get_default_pad+0x58>
     670:	4a24      	ldr	r2, [pc, #144]	; (704 <_sercom_get_default_pad+0xb0>)
     672:	4293      	cmp	r3, r2
     674:	d027      	beq.n	6c6 <_sercom_get_default_pad+0x72>
     676:	e033      	b.n	6e0 <_sercom_get_default_pad+0x8c>
     678:	2300      	movs	r3, #0
     67a:	2903      	cmp	r1, #3
     67c:	d839      	bhi.n	6f2 <_sercom_get_default_pad+0x9e>
     67e:	f002 fb0b 	bl	2c98 <__gnu_thumb1_case_uqi>
     682:	0231      	.short	0x0231
     684:	0604      	.short	0x0604
     686:	4b20      	ldr	r3, [pc, #128]	; (708 <_sercom_get_default_pad+0xb4>)
     688:	e033      	b.n	6f2 <_sercom_get_default_pad+0x9e>
     68a:	4b20      	ldr	r3, [pc, #128]	; (70c <_sercom_get_default_pad+0xb8>)
     68c:	e031      	b.n	6f2 <_sercom_get_default_pad+0x9e>
     68e:	4b20      	ldr	r3, [pc, #128]	; (710 <_sercom_get_default_pad+0xbc>)
     690:	e02f      	b.n	6f2 <_sercom_get_default_pad+0x9e>
     692:	2300      	movs	r3, #0
     694:	2903      	cmp	r1, #3
     696:	d82c      	bhi.n	6f2 <_sercom_get_default_pad+0x9e>
     698:	f002 fafe 	bl	2c98 <__gnu_thumb1_case_uqi>
     69c:	06040226 	.word	0x06040226
     6a0:	4b1c      	ldr	r3, [pc, #112]	; (714 <_sercom_get_default_pad+0xc0>)
     6a2:	e026      	b.n	6f2 <_sercom_get_default_pad+0x9e>
     6a4:	4b1c      	ldr	r3, [pc, #112]	; (718 <_sercom_get_default_pad+0xc4>)
     6a6:	e024      	b.n	6f2 <_sercom_get_default_pad+0x9e>
     6a8:	4b1c      	ldr	r3, [pc, #112]	; (71c <_sercom_get_default_pad+0xc8>)
     6aa:	e022      	b.n	6f2 <_sercom_get_default_pad+0x9e>
     6ac:	2300      	movs	r3, #0
     6ae:	2903      	cmp	r1, #3
     6b0:	d81f      	bhi.n	6f2 <_sercom_get_default_pad+0x9e>
     6b2:	f002 faf1 	bl	2c98 <__gnu_thumb1_case_uqi>
     6b6:	021b      	.short	0x021b
     6b8:	0604      	.short	0x0604
     6ba:	4b19      	ldr	r3, [pc, #100]	; (720 <_sercom_get_default_pad+0xcc>)
     6bc:	e019      	b.n	6f2 <_sercom_get_default_pad+0x9e>
     6be:	4b19      	ldr	r3, [pc, #100]	; (724 <_sercom_get_default_pad+0xd0>)
     6c0:	e017      	b.n	6f2 <_sercom_get_default_pad+0x9e>
     6c2:	4b19      	ldr	r3, [pc, #100]	; (728 <_sercom_get_default_pad+0xd4>)
     6c4:	e015      	b.n	6f2 <_sercom_get_default_pad+0x9e>
     6c6:	2300      	movs	r3, #0
     6c8:	2903      	cmp	r1, #3
     6ca:	d812      	bhi.n	6f2 <_sercom_get_default_pad+0x9e>
     6cc:	f002 fae4 	bl	2c98 <__gnu_thumb1_case_uqi>
     6d0:	06040210 	.word	0x06040210
     6d4:	4b15      	ldr	r3, [pc, #84]	; (72c <_sercom_get_default_pad+0xd8>)
     6d6:	e00c      	b.n	6f2 <_sercom_get_default_pad+0x9e>
     6d8:	4b15      	ldr	r3, [pc, #84]	; (730 <_sercom_get_default_pad+0xdc>)
     6da:	e00a      	b.n	6f2 <_sercom_get_default_pad+0x9e>
     6dc:	4b15      	ldr	r3, [pc, #84]	; (734 <_sercom_get_default_pad+0xe0>)
     6de:	e008      	b.n	6f2 <_sercom_get_default_pad+0x9e>
     6e0:	2300      	movs	r3, #0
     6e2:	e006      	b.n	6f2 <_sercom_get_default_pad+0x9e>
     6e4:	4b14      	ldr	r3, [pc, #80]	; (738 <_sercom_get_default_pad+0xe4>)
     6e6:	e004      	b.n	6f2 <_sercom_get_default_pad+0x9e>
     6e8:	2303      	movs	r3, #3
     6ea:	e002      	b.n	6f2 <_sercom_get_default_pad+0x9e>
     6ec:	4b13      	ldr	r3, [pc, #76]	; (73c <_sercom_get_default_pad+0xe8>)
     6ee:	e000      	b.n	6f2 <_sercom_get_default_pad+0x9e>
     6f0:	4b13      	ldr	r3, [pc, #76]	; (740 <_sercom_get_default_pad+0xec>)
     6f2:	1c18      	adds	r0, r3, #0
     6f4:	bd00      	pop	{pc}
     6f6:	46c0      	nop			; (mov r8, r8)
     6f8:	42000c00 	.word	0x42000c00
     6fc:	42000800 	.word	0x42000800
     700:	42001000 	.word	0x42001000
     704:	42001400 	.word	0x42001400
     708:	00050003 	.word	0x00050003
     70c:	00060003 	.word	0x00060003
     710:	00070003 	.word	0x00070003
     714:	00010003 	.word	0x00010003
     718:	001e0003 	.word	0x001e0003
     71c:	001f0003 	.word	0x001f0003
     720:	00090003 	.word	0x00090003
     724:	000a0003 	.word	0x000a0003
     728:	000b0003 	.word	0x000b0003
     72c:	00110003 	.word	0x00110003
     730:	00120003 	.word	0x00120003
     734:	00130003 	.word	0x00130003
     738:	00040003 	.word	0x00040003
     73c:	00080003 	.word	0x00080003
     740:	00100003 	.word	0x00100003

00000744 <_sercom_get_sercom_inst_index>:
     744:	b57f      	push	{r0, r1, r2, r3, r4, r5, r6, lr}
     746:	4669      	mov	r1, sp
     748:	4b09      	ldr	r3, [pc, #36]	; (770 <_sercom_get_sercom_inst_index+0x2c>)
     74a:	466a      	mov	r2, sp
     74c:	cb70      	ldmia	r3!, {r4, r5, r6}
     74e:	c170      	stmia	r1!, {r4, r5, r6}
     750:	681b      	ldr	r3, [r3, #0]
     752:	600b      	str	r3, [r1, #0]
     754:	2300      	movs	r3, #0
     756:	0099      	lsls	r1, r3, #2
     758:	5851      	ldr	r1, [r2, r1]
     75a:	4288      	cmp	r0, r1
     75c:	d101      	bne.n	762 <_sercom_get_sercom_inst_index+0x1e>
     75e:	b2d8      	uxtb	r0, r3
     760:	e003      	b.n	76a <_sercom_get_sercom_inst_index+0x26>
     762:	3301      	adds	r3, #1
     764:	2b04      	cmp	r3, #4
     766:	d1f6      	bne.n	756 <_sercom_get_sercom_inst_index+0x12>
     768:	2000      	movs	r0, #0
     76a:	b004      	add	sp, #16
     76c:	bd70      	pop	{r4, r5, r6, pc}
     76e:	46c0      	nop			; (mov r8, r8)
     770:	000034c4 	.word	0x000034c4

00000774 <nvm_is_ready>:
     774:	4b02      	ldr	r3, [pc, #8]	; (780 <nvm_is_ready+0xc>)
     776:	7d18      	ldrb	r0, [r3, #20]
     778:	2301      	movs	r3, #1
     77a:	4018      	ands	r0, r3
     77c:	4770      	bx	lr
     77e:	46c0      	nop			; (mov r8, r8)
     780:	41004000 	.word	0x41004000

00000784 <nvm_set_config>:
     784:	2104      	movs	r1, #4
     786:	b538      	push	{r3, r4, r5, lr}
     788:	4a1d      	ldr	r2, [pc, #116]	; (800 <nvm_set_config+0x7c>)
     78a:	4d1e      	ldr	r5, [pc, #120]	; (804 <nvm_set_config+0x80>)
     78c:	69d3      	ldr	r3, [r2, #28]
     78e:	1c04      	adds	r4, r0, #0
     790:	430b      	orrs	r3, r1
     792:	61d3      	str	r3, [r2, #28]
     794:	2320      	movs	r3, #32
     796:	33ff      	adds	r3, #255	; 0xff
     798:	832b      	strh	r3, [r5, #24]
     79a:	4b1b      	ldr	r3, [pc, #108]	; (808 <nvm_set_config+0x84>)
     79c:	4798      	blx	r3
     79e:	1c03      	adds	r3, r0, #0
     7a0:	2005      	movs	r0, #5
     7a2:	2b00      	cmp	r3, #0
     7a4:	d02b      	beq.n	7fe <nvm_set_config+0x7a>
     7a6:	21c0      	movs	r1, #192	; 0xc0
     7a8:	78e0      	ldrb	r0, [r4, #3]
     7aa:	7863      	ldrb	r3, [r4, #1]
     7ac:	0480      	lsls	r0, r0, #18
     7ae:	01db      	lsls	r3, r3, #7
     7b0:	4318      	orrs	r0, r3
     7b2:	7823      	ldrb	r3, [r4, #0]
     7b4:	0089      	lsls	r1, r1, #2
     7b6:	021b      	lsls	r3, r3, #8
     7b8:	400b      	ands	r3, r1
     7ba:	1c1a      	adds	r2, r3, #0
     7bc:	1c03      	adds	r3, r0, #0
     7be:	78a0      	ldrb	r0, [r4, #2]
     7c0:	4313      	orrs	r3, r2
     7c2:	0040      	lsls	r0, r0, #1
     7c4:	211e      	movs	r1, #30
     7c6:	1c02      	adds	r2, r0, #0
     7c8:	400a      	ands	r2, r1
     7ca:	21c0      	movs	r1, #192	; 0xc0
     7cc:	4313      	orrs	r3, r2
     7ce:	1c18      	adds	r0, r3, #0
     7d0:	7923      	ldrb	r3, [r4, #4]
     7d2:	0289      	lsls	r1, r1, #10
     7d4:	041b      	lsls	r3, r3, #16
     7d6:	400b      	ands	r3, r1
     7d8:	1c1a      	adds	r2, r3, #0
     7da:	1c03      	adds	r3, r0, #0
     7dc:	2108      	movs	r1, #8
     7de:	4313      	orrs	r3, r2
     7e0:	606b      	str	r3, [r5, #4]
     7e2:	68ab      	ldr	r3, [r5, #8]
     7e4:	4a09      	ldr	r2, [pc, #36]	; (80c <nvm_set_config+0x88>)
     7e6:	035b      	lsls	r3, r3, #13
     7e8:	0f5b      	lsrs	r3, r3, #29
     7ea:	4099      	lsls	r1, r3
     7ec:	8011      	strh	r1, [r2, #0]
     7ee:	68ab      	ldr	r3, [r5, #8]
     7f0:	8053      	strh	r3, [r2, #2]
     7f2:	7863      	ldrb	r3, [r4, #1]
     7f4:	7113      	strb	r3, [r2, #4]
     7f6:	8b28      	ldrh	r0, [r5, #24]
     7f8:	05c0      	lsls	r0, r0, #23
     7fa:	0fc0      	lsrs	r0, r0, #31
     7fc:	0100      	lsls	r0, r0, #4
     7fe:	bd38      	pop	{r3, r4, r5, pc}
     800:	40000400 	.word	0x40000400
     804:	41004000 	.word	0x41004000
     808:	00000775 	.word	0x00000775
     80c:	2000003c 	.word	0x2000003c

00000810 <nvm_execute_command>:
     810:	b5f7      	push	{r0, r1, r2, r4, r5, r6, r7, lr}
     812:	4a26      	ldr	r2, [pc, #152]	; (8ac <nvm_execute_command+0x9c>)
     814:	8854      	ldrh	r4, [r2, #2]
     816:	8813      	ldrh	r3, [r2, #0]
     818:	4363      	muls	r3, r4
     81a:	4299      	cmp	r1, r3
     81c:	d906      	bls.n	82c <nvm_execute_command+0x1c>
     81e:	2280      	movs	r2, #128	; 0x80
     820:	4b23      	ldr	r3, [pc, #140]	; (8b0 <nvm_execute_command+0xa0>)
     822:	0192      	lsls	r2, r2, #6
     824:	18cc      	adds	r4, r1, r3
     826:	2318      	movs	r3, #24
     828:	4294      	cmp	r4, r2
     82a:	d83c      	bhi.n	8a6 <nvm_execute_command+0x96>
     82c:	2380      	movs	r3, #128	; 0x80
     82e:	4d21      	ldr	r5, [pc, #132]	; (8b4 <nvm_execute_command+0xa4>)
     830:	9100      	str	r1, [sp, #0]
     832:	686f      	ldr	r7, [r5, #4]
     834:	02db      	lsls	r3, r3, #11
     836:	433b      	orrs	r3, r7
     838:	606b      	str	r3, [r5, #4]
     83a:	2320      	movs	r3, #32
     83c:	33ff      	adds	r3, #255	; 0xff
     83e:	832b      	strh	r3, [r5, #24]
     840:	4b1d      	ldr	r3, [pc, #116]	; (8b8 <nvm_execute_command+0xa8>)
     842:	1c04      	adds	r4, r0, #0
     844:	4798      	blx	r3
     846:	4b1c      	ldr	r3, [pc, #112]	; (8b8 <nvm_execute_command+0xa8>)
     848:	1c2e      	adds	r6, r5, #0
     84a:	9301      	str	r3, [sp, #4]
     84c:	2800      	cmp	r0, #0
     84e:	d102      	bne.n	856 <nvm_execute_command+0x46>
     850:	606f      	str	r7, [r5, #4]
     852:	2305      	movs	r3, #5
     854:	e027      	b.n	8a6 <nvm_execute_command+0x96>
     856:	2c06      	cmp	r4, #6
     858:	d806      	bhi.n	868 <nvm_execute_command+0x58>
     85a:	2c05      	cmp	r4, #5
     85c:	d20b      	bcs.n	876 <nvm_execute_command+0x66>
     85e:	2c02      	cmp	r4, #2
     860:	d00f      	beq.n	882 <nvm_execute_command+0x72>
     862:	2c04      	cmp	r4, #4
     864:	d112      	bne.n	88c <nvm_execute_command+0x7c>
     866:	e00c      	b.n	882 <nvm_execute_command+0x72>
     868:	2c40      	cmp	r4, #64	; 0x40
     86a:	d30f      	bcc.n	88c <nvm_execute_command+0x7c>
     86c:	2c41      	cmp	r4, #65	; 0x41
     86e:	d908      	bls.n	882 <nvm_execute_command+0x72>
     870:	2c45      	cmp	r4, #69	; 0x45
     872:	d90e      	bls.n	892 <nvm_execute_command+0x82>
     874:	e00a      	b.n	88c <nvm_execute_command+0x7c>
     876:	8b2b      	ldrh	r3, [r5, #24]
     878:	05db      	lsls	r3, r3, #23
     87a:	d502      	bpl.n	882 <nvm_execute_command+0x72>
     87c:	606f      	str	r7, [r5, #4]
     87e:	2310      	movs	r3, #16
     880:	e011      	b.n	8a6 <nvm_execute_command+0x96>
     882:	9b00      	ldr	r3, [sp, #0]
     884:	0899      	lsrs	r1, r3, #2
     886:	0049      	lsls	r1, r1, #1
     888:	61f1      	str	r1, [r6, #28]
     88a:	e002      	b.n	892 <nvm_execute_command+0x82>
     88c:	6077      	str	r7, [r6, #4]
     88e:	2317      	movs	r3, #23
     890:	e009      	b.n	8a6 <nvm_execute_command+0x96>
     892:	20a5      	movs	r0, #165	; 0xa5
     894:	0200      	lsls	r0, r0, #8
     896:	4304      	orrs	r4, r0
     898:	8034      	strh	r4, [r6, #0]
     89a:	9b01      	ldr	r3, [sp, #4]
     89c:	4798      	blx	r3
     89e:	2800      	cmp	r0, #0
     8a0:	d0fb      	beq.n	89a <nvm_execute_command+0x8a>
     8a2:	2300      	movs	r3, #0
     8a4:	6077      	str	r7, [r6, #4]
     8a6:	1c18      	adds	r0, r3, #0
     8a8:	bdfe      	pop	{r1, r2, r3, r4, r5, r6, r7, pc}
     8aa:	46c0      	nop			; (mov r8, r8)
     8ac:	2000003c 	.word	0x2000003c
     8b0:	ff7fc000 	.word	0xff7fc000
     8b4:	41004000 	.word	0x41004000
     8b8:	00000775 	.word	0x00000775

000008bc <nvm_write_buffer>:
     8bc:	b5f7      	push	{r0, r1, r2, r4, r5, r6, r7, lr}
     8be:	4b22      	ldr	r3, [pc, #136]	; (948 <nvm_write_buffer+0x8c>)
     8c0:	885f      	ldrh	r7, [r3, #2]
     8c2:	881c      	ldrh	r4, [r3, #0]
     8c4:	9300      	str	r3, [sp, #0]
     8c6:	4367      	muls	r7, r4
     8c8:	2318      	movs	r3, #24
     8ca:	42b8      	cmp	r0, r7
     8cc:	d83a      	bhi.n	944 <nvm_write_buffer+0x88>
     8ce:	1e65      	subs	r5, r4, #1
     8d0:	4205      	tst	r5, r0
     8d2:	d137      	bne.n	944 <nvm_write_buffer+0x88>
     8d4:	3b01      	subs	r3, #1
     8d6:	42a2      	cmp	r2, r4
     8d8:	d834      	bhi.n	944 <nvm_write_buffer+0x88>
     8da:	4f1c      	ldr	r7, [pc, #112]	; (94c <nvm_write_buffer+0x90>)
     8dc:	1c15      	adds	r5, r2, #0
     8de:	1c0e      	adds	r6, r1, #0
     8e0:	1c04      	adds	r4, r0, #0
     8e2:	47b8      	blx	r7
     8e4:	2305      	movs	r3, #5
     8e6:	2800      	cmp	r0, #0
     8e8:	d02c      	beq.n	944 <nvm_write_buffer+0x88>
     8ea:	4b19      	ldr	r3, [pc, #100]	; (950 <nvm_write_buffer+0x94>)
     8ec:	4a19      	ldr	r2, [pc, #100]	; (954 <nvm_write_buffer+0x98>)
     8ee:	801a      	strh	r2, [r3, #0]
     8f0:	9301      	str	r3, [sp, #4]
     8f2:	47b8      	blx	r7
     8f4:	2800      	cmp	r0, #0
     8f6:	d0fc      	beq.n	8f2 <nvm_write_buffer+0x36>
     8f8:	2320      	movs	r3, #32
     8fa:	9a01      	ldr	r2, [sp, #4]
     8fc:	33ff      	adds	r3, #255	; 0xff
     8fe:	8313      	strh	r3, [r2, #24]
     900:	2300      	movs	r3, #0
     902:	0860      	lsrs	r0, r4, #1
     904:	0040      	lsls	r0, r0, #1
     906:	b29a      	uxth	r2, r3
     908:	42aa      	cmp	r2, r5
     90a:	d20e      	bcs.n	92a <nvm_write_buffer+0x6e>
     90c:	b29a      	uxth	r2, r3
     90e:	1e6f      	subs	r7, r5, #1
     910:	5cb1      	ldrb	r1, [r6, r2]
     912:	42ba      	cmp	r2, r7
     914:	db01      	blt.n	91a <nvm_write_buffer+0x5e>
     916:	b28a      	uxth	r2, r1
     918:	e003      	b.n	922 <nvm_write_buffer+0x66>
     91a:	18b2      	adds	r2, r6, r2
     91c:	7852      	ldrb	r2, [r2, #1]
     91e:	0212      	lsls	r2, r2, #8
     920:	430a      	orrs	r2, r1
     922:	1819      	adds	r1, r3, r0
     924:	800a      	strh	r2, [r1, #0]
     926:	3302      	adds	r3, #2
     928:	e7ed      	b.n	906 <nvm_write_buffer+0x4a>
     92a:	9b00      	ldr	r3, [sp, #0]
     92c:	791a      	ldrb	r2, [r3, #4]
     92e:	2300      	movs	r3, #0
     930:	429a      	cmp	r2, r3
     932:	d107      	bne.n	944 <nvm_write_buffer+0x88>
     934:	2d3f      	cmp	r5, #63	; 0x3f
     936:	d805      	bhi.n	944 <nvm_write_buffer+0x88>
     938:	1c1a      	adds	r2, r3, #0
     93a:	2004      	movs	r0, #4
     93c:	4b06      	ldr	r3, [pc, #24]	; (958 <nvm_write_buffer+0x9c>)
     93e:	1c21      	adds	r1, r4, #0
     940:	4798      	blx	r3
     942:	1c03      	adds	r3, r0, #0
     944:	1c18      	adds	r0, r3, #0
     946:	bdfe      	pop	{r1, r2, r3, r4, r5, r6, r7, pc}
     948:	2000003c 	.word	0x2000003c
     94c:	00000775 	.word	0x00000775
     950:	41004000 	.word	0x41004000
     954:	ffffa544 	.word	0xffffa544
     958:	00000811 	.word	0x00000811

0000095c <nvm_read_buffer>:
     95c:	b5f8      	push	{r3, r4, r5, r6, r7, lr}
     95e:	4b17      	ldr	r3, [pc, #92]	; (9bc <nvm_read_buffer+0x60>)
     960:	881d      	ldrh	r5, [r3, #0]
     962:	885c      	ldrh	r4, [r3, #2]
     964:	2318      	movs	r3, #24
     966:	436c      	muls	r4, r5
     968:	42a0      	cmp	r0, r4
     96a:	d824      	bhi.n	9b6 <nvm_read_buffer+0x5a>
     96c:	1e6c      	subs	r4, r5, #1
     96e:	4004      	ands	r4, r0
     970:	d121      	bne.n	9b6 <nvm_read_buffer+0x5a>
     972:	3b01      	subs	r3, #1
     974:	42aa      	cmp	r2, r5
     976:	d81e      	bhi.n	9b6 <nvm_read_buffer+0x5a>
     978:	4b11      	ldr	r3, [pc, #68]	; (9c0 <nvm_read_buffer+0x64>)
     97a:	1c16      	adds	r6, r2, #0
     97c:	1c0f      	adds	r7, r1, #0
     97e:	1c05      	adds	r5, r0, #0
     980:	4798      	blx	r3
     982:	2305      	movs	r3, #5
     984:	2800      	cmp	r0, #0
     986:	d016      	beq.n	9b6 <nvm_read_buffer+0x5a>
     988:	2220      	movs	r2, #32
     98a:	4b0e      	ldr	r3, [pc, #56]	; (9c4 <nvm_read_buffer+0x68>)
     98c:	32ff      	adds	r2, #255	; 0xff
     98e:	086d      	lsrs	r5, r5, #1
     990:	831a      	strh	r2, [r3, #24]
     992:	006d      	lsls	r5, r5, #1
     994:	b2a3      	uxth	r3, r4
     996:	42b3      	cmp	r3, r6
     998:	d20c      	bcs.n	9b4 <nvm_read_buffer+0x58>
     99a:	1963      	adds	r3, r4, r5
     99c:	881b      	ldrh	r3, [r3, #0]
     99e:	b2a2      	uxth	r2, r4
     9a0:	b29b      	uxth	r3, r3
     9a2:	1e71      	subs	r1, r6, #1
     9a4:	54bb      	strb	r3, [r7, r2]
     9a6:	428a      	cmp	r2, r1
     9a8:	da02      	bge.n	9b0 <nvm_read_buffer+0x54>
     9aa:	18ba      	adds	r2, r7, r2
     9ac:	0a1b      	lsrs	r3, r3, #8
     9ae:	7053      	strb	r3, [r2, #1]
     9b0:	3402      	adds	r4, #2
     9b2:	e7ef      	b.n	994 <nvm_read_buffer+0x38>
     9b4:	2300      	movs	r3, #0
     9b6:	1c18      	adds	r0, r3, #0
     9b8:	bdf8      	pop	{r3, r4, r5, r6, r7, pc}
     9ba:	46c0      	nop			; (mov r8, r8)
     9bc:	2000003c 	.word	0x2000003c
     9c0:	00000775 	.word	0x00000775
     9c4:	41004000 	.word	0x41004000

000009c8 <nvm_erase_row>:
     9c8:	b538      	push	{r3, r4, r5, lr}
     9ca:	4a10      	ldr	r2, [pc, #64]	; (a0c <nvm_erase_row+0x44>)
     9cc:	8813      	ldrh	r3, [r2, #0]
     9ce:	8851      	ldrh	r1, [r2, #2]
     9d0:	2218      	movs	r2, #24
     9d2:	4359      	muls	r1, r3
     9d4:	4288      	cmp	r0, r1
     9d6:	d816      	bhi.n	a06 <nvm_erase_row+0x3e>
     9d8:	009b      	lsls	r3, r3, #2
     9da:	3b01      	subs	r3, #1
     9dc:	4218      	tst	r0, r3
     9de:	d112      	bne.n	a06 <nvm_erase_row+0x3e>
     9e0:	4c0b      	ldr	r4, [pc, #44]	; (a10 <nvm_erase_row+0x48>)
     9e2:	1c05      	adds	r5, r0, #0
     9e4:	47a0      	blx	r4
     9e6:	2205      	movs	r2, #5
     9e8:	2800      	cmp	r0, #0
     9ea:	d00c      	beq.n	a06 <nvm_erase_row+0x3e>
     9ec:	2220      	movs	r2, #32
     9ee:	4b09      	ldr	r3, [pc, #36]	; (a14 <nvm_erase_row+0x4c>)
     9f0:	32ff      	adds	r2, #255	; 0xff
     9f2:	831a      	strh	r2, [r3, #24]
     9f4:	08a8      	lsrs	r0, r5, #2
     9f6:	4a08      	ldr	r2, [pc, #32]	; (a18 <nvm_erase_row+0x50>)
     9f8:	0040      	lsls	r0, r0, #1
     9fa:	61d8      	str	r0, [r3, #28]
     9fc:	801a      	strh	r2, [r3, #0]
     9fe:	47a0      	blx	r4
     a00:	2800      	cmp	r0, #0
     a02:	d0fc      	beq.n	9fe <nvm_erase_row+0x36>
     a04:	2200      	movs	r2, #0
     a06:	1c10      	adds	r0, r2, #0
     a08:	bd38      	pop	{r3, r4, r5, pc}
     a0a:	46c0      	nop			; (mov r8, r8)
     a0c:	2000003c 	.word	0x2000003c
     a10:	00000775 	.word	0x00000775
     a14:	41004000 	.word	0x41004000
     a18:	ffffa502 	.word	0xffffa502

00000a1c <tc_register_callback>:
     a1c:	1c93      	adds	r3, r2, #2
     a1e:	009b      	lsls	r3, r3, #2
     a20:	5019      	str	r1, [r3, r0]
     a22:	7e03      	ldrb	r3, [r0, #24]
     a24:	2a02      	cmp	r2, #2
     a26:	d101      	bne.n	a2c <tc_register_callback+0x10>
     a28:	320e      	adds	r2, #14
     a2a:	e006      	b.n	a3a <tc_register_callback+0x1e>
     a2c:	2a03      	cmp	r2, #3
     a2e:	d101      	bne.n	a34 <tc_register_callback+0x18>
     a30:	321d      	adds	r2, #29
     a32:	e002      	b.n	a3a <tc_register_callback+0x1e>
     a34:	2101      	movs	r1, #1
     a36:	4091      	lsls	r1, r2
     a38:	1c0a      	adds	r2, r1, #0
     a3a:	4313      	orrs	r3, r2
     a3c:	7603      	strb	r3, [r0, #24]
     a3e:	2000      	movs	r0, #0
     a40:	4770      	bx	lr
	...

00000a44 <_tc_interrupt_handler>:
     a44:	b570      	push	{r4, r5, r6, lr}
     a46:	2601      	movs	r6, #1
     a48:	4b14      	ldr	r3, [pc, #80]	; (a9c <_tc_interrupt_handler+0x58>)
     a4a:	0080      	lsls	r0, r0, #2
     a4c:	58c4      	ldr	r4, [r0, r3]
     a4e:	6823      	ldr	r3, [r4, #0]
     a50:	7e25      	ldrb	r5, [r4, #24]
     a52:	7b9b      	ldrb	r3, [r3, #14]
     a54:	401d      	ands	r5, r3
     a56:	7e63      	ldrb	r3, [r4, #25]
     a58:	401d      	ands	r5, r3
     a5a:	4235      	tst	r5, r6
     a5c:	d004      	beq.n	a68 <_tc_interrupt_handler+0x24>
     a5e:	68a3      	ldr	r3, [r4, #8]
     a60:	1c20      	adds	r0, r4, #0
     a62:	4798      	blx	r3
     a64:	6823      	ldr	r3, [r4, #0]
     a66:	739e      	strb	r6, [r3, #14]
     a68:	2602      	movs	r6, #2
     a6a:	4235      	tst	r5, r6
     a6c:	d004      	beq.n	a78 <_tc_interrupt_handler+0x34>
     a6e:	68e3      	ldr	r3, [r4, #12]
     a70:	1c20      	adds	r0, r4, #0
     a72:	4798      	blx	r3
     a74:	6823      	ldr	r3, [r4, #0]
     a76:	739e      	strb	r6, [r3, #14]
     a78:	2610      	movs	r6, #16
     a7a:	4235      	tst	r5, r6
     a7c:	d004      	beq.n	a88 <_tc_interrupt_handler+0x44>
     a7e:	6923      	ldr	r3, [r4, #16]
     a80:	1c20      	adds	r0, r4, #0
     a82:	4798      	blx	r3
     a84:	6823      	ldr	r3, [r4, #0]
     a86:	739e      	strb	r6, [r3, #14]
     a88:	2620      	movs	r6, #32
     a8a:	4235      	tst	r5, r6
     a8c:	d004      	beq.n	a98 <_tc_interrupt_handler+0x54>
     a8e:	6963      	ldr	r3, [r4, #20]
     a90:	1c20      	adds	r0, r4, #0
     a92:	4798      	blx	r3
     a94:	6823      	ldr	r3, [r4, #0]
     a96:	739e      	strb	r6, [r3, #14]
     a98:	bd70      	pop	{r4, r5, r6, pc}
     a9a:	46c0      	nop			; (mov r8, r8)
     a9c:	200008e8 	.word	0x200008e8

00000aa0 <TC0_Handler>:
     aa0:	b508      	push	{r3, lr}
     aa2:	2000      	movs	r0, #0
     aa4:	4b01      	ldr	r3, [pc, #4]	; (aac <TC0_Handler+0xc>)
     aa6:	4798      	blx	r3
     aa8:	bd08      	pop	{r3, pc}
     aaa:	46c0      	nop			; (mov r8, r8)
     aac:	00000a45 	.word	0x00000a45

00000ab0 <TC1_Handler>:
     ab0:	b508      	push	{r3, lr}
     ab2:	2001      	movs	r0, #1
     ab4:	4b01      	ldr	r3, [pc, #4]	; (abc <TC1_Handler+0xc>)
     ab6:	4798      	blx	r3
     ab8:	bd08      	pop	{r3, pc}
     aba:	46c0      	nop			; (mov r8, r8)
     abc:	00000a45 	.word	0x00000a45

00000ac0 <TC2_Handler>:
     ac0:	b508      	push	{r3, lr}
     ac2:	2002      	movs	r0, #2
     ac4:	4b01      	ldr	r3, [pc, #4]	; (acc <TC2_Handler+0xc>)
     ac6:	4798      	blx	r3
     ac8:	bd08      	pop	{r3, pc}
     aca:	46c0      	nop			; (mov r8, r8)
     acc:	00000a45 	.word	0x00000a45

00000ad0 <TC3_Handler>:
     ad0:	b508      	push	{r3, lr}
     ad2:	2003      	movs	r0, #3
     ad4:	4b01      	ldr	r3, [pc, #4]	; (adc <TC3_Handler+0xc>)
     ad6:	4798      	blx	r3
     ad8:	bd08      	pop	{r3, pc}
     ada:	46c0      	nop			; (mov r8, r8)
     adc:	00000a45 	.word	0x00000a45

00000ae0 <TC4_Handler>:
     ae0:	b508      	push	{r3, lr}
     ae2:	2004      	movs	r0, #4
     ae4:	4b01      	ldr	r3, [pc, #4]	; (aec <TC4_Handler+0xc>)
     ae6:	4798      	blx	r3
     ae8:	bd08      	pop	{r3, pc}
     aea:	46c0      	nop			; (mov r8, r8)
     aec:	00000a45 	.word	0x00000a45

00000af0 <TC5_Handler>:
     af0:	b508      	push	{r3, lr}
     af2:	2005      	movs	r0, #5
     af4:	4b01      	ldr	r3, [pc, #4]	; (afc <TC5_Handler+0xc>)
     af6:	4798      	blx	r3
     af8:	bd08      	pop	{r3, pc}
     afa:	46c0      	nop			; (mov r8, r8)
     afc:	00000a45 	.word	0x00000a45

00000b00 <_tc_get_inst_index>:
     b00:	b570      	push	{r4, r5, r6, lr}
     b02:	b086      	sub	sp, #24
     b04:	4669      	mov	r1, sp
     b06:	4b09      	ldr	r3, [pc, #36]	; (b2c <_tc_get_inst_index+0x2c>)
     b08:	466a      	mov	r2, sp
     b0a:	cb70      	ldmia	r3!, {r4, r5, r6}
     b0c:	c170      	stmia	r1!, {r4, r5, r6}
     b0e:	cb70      	ldmia	r3!, {r4, r5, r6}
     b10:	c170      	stmia	r1!, {r4, r5, r6}
     b12:	2300      	movs	r3, #0
     b14:	0099      	lsls	r1, r3, #2
     b16:	5851      	ldr	r1, [r2, r1]
     b18:	4288      	cmp	r0, r1
     b1a:	d101      	bne.n	b20 <_tc_get_inst_index+0x20>
     b1c:	b2d8      	uxtb	r0, r3
     b1e:	e003      	b.n	b28 <_tc_get_inst_index+0x28>
     b20:	3301      	adds	r3, #1
     b22:	2b06      	cmp	r3, #6
     b24:	d1f6      	bne.n	b14 <_tc_get_inst_index+0x14>
     b26:	2000      	movs	r0, #0
     b28:	b006      	add	sp, #24
     b2a:	bd70      	pop	{r4, r5, r6, pc}
     b2c:	000034d4 	.word	0x000034d4

00000b30 <tc_init>:
     b30:	b5f0      	push	{r4, r5, r6, r7, lr}
     b32:	4b82      	ldr	r3, [pc, #520]	; (d3c <tc_init+0x20c>)
     b34:	1c05      	adds	r5, r0, #0
     b36:	b089      	sub	sp, #36	; 0x24
     b38:	1c08      	adds	r0, r1, #0
     b3a:	1c0e      	adds	r6, r1, #0
     b3c:	1c14      	adds	r4, r2, #0
     b3e:	4798      	blx	r3
     b40:	497f      	ldr	r1, [pc, #508]	; (d40 <tc_init+0x210>)
     b42:	1c07      	adds	r7, r0, #0
     b44:	3118      	adds	r1, #24
     b46:	2206      	movs	r2, #6
     b48:	4b7e      	ldr	r3, [pc, #504]	; (d44 <tc_init+0x214>)
     b4a:	a803      	add	r0, sp, #12
     b4c:	4798      	blx	r3
     b4e:	497c      	ldr	r1, [pc, #496]	; (d40 <tc_init+0x210>)
     b50:	220c      	movs	r2, #12
     b52:	4b7c      	ldr	r3, [pc, #496]	; (d44 <tc_init+0x214>)
     b54:	311e      	adds	r1, #30
     b56:	a805      	add	r0, sp, #20
     b58:	4798      	blx	r3
     b5a:	2300      	movs	r3, #0
     b5c:	60ab      	str	r3, [r5, #8]
     b5e:	60eb      	str	r3, [r5, #12]
     b60:	612b      	str	r3, [r5, #16]
     b62:	616b      	str	r3, [r5, #20]
     b64:	762b      	strb	r3, [r5, #24]
     b66:	766b      	strb	r3, [r5, #25]
     b68:	4b77      	ldr	r3, [pc, #476]	; (d48 <tc_init+0x218>)
     b6a:	00ba      	lsls	r2, r7, #2
     b6c:	50d5      	str	r5, [r2, r3]
     b6e:	602e      	str	r6, [r5, #0]
     b70:	78a3      	ldrb	r3, [r4, #2]
     b72:	2b08      	cmp	r3, #8
     b74:	d103      	bne.n	b7e <tc_init+0x4e>
     b76:	2017      	movs	r0, #23
     b78:	07fa      	lsls	r2, r7, #31
     b7a:	d500      	bpl.n	b7e <tc_init+0x4e>
     b7c:	e0db      	b.n	d36 <tc_init+0x206>
     b7e:	2201      	movs	r2, #1
     b80:	712b      	strb	r3, [r5, #4]
     b82:	8833      	ldrh	r3, [r6, #0]
     b84:	2005      	movs	r0, #5
     b86:	4213      	tst	r3, r2
     b88:	d000      	beq.n	b8c <tc_init+0x5c>
     b8a:	e0d4      	b.n	d36 <tc_init+0x206>
     b8c:	7bf3      	ldrb	r3, [r6, #15]
     b8e:	3017      	adds	r0, #23
     b90:	06db      	lsls	r3, r3, #27
     b92:	d500      	bpl.n	b96 <tc_init+0x66>
     b94:	e0cf      	b.n	d36 <tc_init+0x206>
     b96:	2302      	movs	r3, #2
     b98:	8831      	ldrh	r1, [r6, #0]
     b9a:	400b      	ands	r3, r1
     b9c:	d000      	beq.n	ba0 <tc_init+0x70>
     b9e:	e0ca      	b.n	d36 <tc_init+0x206>
     ba0:	7c21      	ldrb	r1, [r4, #16]
     ba2:	2900      	cmp	r1, #0
     ba4:	d008      	beq.n	bb8 <tc_init+0x88>
     ba6:	a902      	add	r1, sp, #8
     ba8:	70cb      	strb	r3, [r1, #3]
     baa:	7e23      	ldrb	r3, [r4, #24]
     bac:	7d20      	ldrb	r0, [r4, #20]
     bae:	700b      	strb	r3, [r1, #0]
     bb0:	4b66      	ldr	r3, [pc, #408]	; (d4c <tc_init+0x21c>)
     bb2:	708a      	strb	r2, [r1, #2]
     bb4:	704a      	strb	r2, [r1, #1]
     bb6:	4798      	blx	r3
     bb8:	7f23      	ldrb	r3, [r4, #28]
     bba:	2b00      	cmp	r3, #0
     bbc:	d00b      	beq.n	bd6 <tc_init+0xa6>
     bbe:	2301      	movs	r3, #1
     bc0:	2200      	movs	r2, #0
     bc2:	a902      	add	r1, sp, #8
     bc4:	708b      	strb	r3, [r1, #2]
     bc6:	704b      	strb	r3, [r1, #1]
     bc8:	6a23      	ldr	r3, [r4, #32]
     bca:	70ca      	strb	r2, [r1, #3]
     bcc:	6a62      	ldr	r2, [r4, #36]	; 0x24
     bce:	b2d8      	uxtb	r0, r3
     bd0:	4b5e      	ldr	r3, [pc, #376]	; (d4c <tc_init+0x21c>)
     bd2:	700a      	strb	r2, [r1, #0]
     bd4:	4798      	blx	r3
     bd6:	4b5e      	ldr	r3, [pc, #376]	; (d50 <tc_init+0x220>)
     bd8:	4668      	mov	r0, sp
     bda:	6a1a      	ldr	r2, [r3, #32]
     bdc:	0079      	lsls	r1, r7, #1
     bde:	4694      	mov	ip, r2
     be0:	2214      	movs	r2, #20
     be2:	1880      	adds	r0, r0, r2
     be4:	4662      	mov	r2, ip
     be6:	5a41      	ldrh	r1, [r0, r1]
     be8:	430a      	orrs	r2, r1
     bea:	621a      	str	r2, [r3, #32]
     bec:	78a2      	ldrb	r2, [r4, #2]
     bee:	2a08      	cmp	r2, #8
     bf0:	d10a      	bne.n	c08 <tc_init+0xd8>
     bf2:	6a1a      	ldr	r2, [r3, #32]
     bf4:	4668      	mov	r0, sp
     bf6:	4694      	mov	ip, r2
     bf8:	2214      	movs	r2, #20
     bfa:	1880      	adds	r0, r0, r2
     bfc:	4662      	mov	r2, ip
     bfe:	1c79      	adds	r1, r7, #1
     c00:	0049      	lsls	r1, r1, #1
     c02:	5a41      	ldrh	r1, [r0, r1]
     c04:	430a      	orrs	r2, r1
     c06:	621a      	str	r2, [r3, #32]
     c08:	7823      	ldrb	r3, [r4, #0]
     c0a:	a901      	add	r1, sp, #4
     c0c:	700b      	strb	r3, [r1, #0]
     c0e:	220c      	movs	r2, #12
     c10:	466b      	mov	r3, sp
     c12:	189b      	adds	r3, r3, r2
     c14:	5ddf      	ldrb	r7, [r3, r7]
     c16:	4b4f      	ldr	r3, [pc, #316]	; (d54 <tc_init+0x224>)
     c18:	1c38      	adds	r0, r7, #0
     c1a:	4798      	blx	r3
     c1c:	4b4e      	ldr	r3, [pc, #312]	; (d58 <tc_init+0x228>)
     c1e:	1c38      	adds	r0, r7, #0
     c20:	4798      	blx	r3
     c22:	8923      	ldrh	r3, [r4, #8]
     c24:	88a2      	ldrh	r2, [r4, #4]
     c26:	79a1      	ldrb	r1, [r4, #6]
     c28:	431a      	orrs	r2, r3
     c2a:	78a3      	ldrb	r3, [r4, #2]
     c2c:	430b      	orrs	r3, r1
     c2e:	4313      	orrs	r3, r2
     c30:	7862      	ldrb	r2, [r4, #1]
     c32:	2a00      	cmp	r2, #0
     c34:	d002      	beq.n	c3c <tc_init+0x10c>
     c36:	2280      	movs	r2, #128	; 0x80
     c38:	0112      	lsls	r2, r2, #4
     c3a:	4313      	orrs	r3, r2
     c3c:	6829      	ldr	r1, [r5, #0]
     c3e:	7bca      	ldrb	r2, [r1, #15]
     c40:	09d2      	lsrs	r2, r2, #7
     c42:	d1fc      	bne.n	c3e <tc_init+0x10e>
     c44:	8033      	strh	r3, [r6, #0]
     c46:	7b63      	ldrb	r3, [r4, #13]
     c48:	1e5a      	subs	r2, r3, #1
     c4a:	4193      	sbcs	r3, r2
     c4c:	7ba2      	ldrb	r2, [r4, #14]
     c4e:	009b      	lsls	r3, r3, #2
     c50:	2a00      	cmp	r2, #0
     c52:	d001      	beq.n	c58 <tc_init+0x128>
     c54:	2201      	movs	r2, #1
     c56:	4313      	orrs	r3, r2
     c58:	6829      	ldr	r1, [r5, #0]
     c5a:	7bca      	ldrb	r2, [r1, #15]
     c5c:	09d2      	lsrs	r2, r2, #7
     c5e:	d1fc      	bne.n	c5a <tc_init+0x12a>
     c60:	32ff      	adds	r2, #255	; 0xff
     c62:	7132      	strb	r2, [r6, #4]
     c64:	2b00      	cmp	r3, #0
     c66:	d004      	beq.n	c72 <tc_init+0x142>
     c68:	6829      	ldr	r1, [r5, #0]
     c6a:	7bca      	ldrb	r2, [r1, #15]
     c6c:	09d2      	lsrs	r2, r2, #7
     c6e:	d1fc      	bne.n	c6a <tc_init+0x13a>
     c70:	7173      	strb	r3, [r6, #5]
     c72:	7ae3      	ldrb	r3, [r4, #11]
     c74:	7aa2      	ldrb	r2, [r4, #10]
     c76:	2b00      	cmp	r3, #0
     c78:	d001      	beq.n	c7e <tc_init+0x14e>
     c7a:	2310      	movs	r3, #16
     c7c:	431a      	orrs	r2, r3
     c7e:	7b23      	ldrb	r3, [r4, #12]
     c80:	2b00      	cmp	r3, #0
     c82:	d001      	beq.n	c88 <tc_init+0x158>
     c84:	2320      	movs	r3, #32
     c86:	431a      	orrs	r2, r3
     c88:	6829      	ldr	r1, [r5, #0]
     c8a:	7bcb      	ldrb	r3, [r1, #15]
     c8c:	09db      	lsrs	r3, r3, #7
     c8e:	d1fc      	bne.n	c8a <tc_init+0x15a>
     c90:	71b2      	strb	r2, [r6, #6]
     c92:	682b      	ldr	r3, [r5, #0]
     c94:	7bda      	ldrb	r2, [r3, #15]
     c96:	09d2      	lsrs	r2, r2, #7
     c98:	d1fc      	bne.n	c94 <tc_init+0x164>
     c9a:	792a      	ldrb	r2, [r5, #4]
     c9c:	2a04      	cmp	r2, #4
     c9e:	d005      	beq.n	cac <tc_init+0x17c>
     ca0:	2a08      	cmp	r2, #8
     ca2:	d036      	beq.n	d12 <tc_init+0x1e2>
     ca4:	2017      	movs	r0, #23
     ca6:	2a00      	cmp	r2, #0
     ca8:	d145      	bne.n	d36 <tc_init+0x206>
     caa:	e01f      	b.n	cec <tc_init+0x1bc>
     cac:	7bda      	ldrb	r2, [r3, #15]
     cae:	09d2      	lsrs	r2, r2, #7
     cb0:	d1fc      	bne.n	cac <tc_init+0x17c>
     cb2:	1c23      	adds	r3, r4, #0
     cb4:	3328      	adds	r3, #40	; 0x28
     cb6:	781b      	ldrb	r3, [r3, #0]
     cb8:	7433      	strb	r3, [r6, #16]
     cba:	682a      	ldr	r2, [r5, #0]
     cbc:	7bd3      	ldrb	r3, [r2, #15]
     cbe:	09db      	lsrs	r3, r3, #7
     cc0:	d1fc      	bne.n	cbc <tc_init+0x18c>
     cc2:	1c23      	adds	r3, r4, #0
     cc4:	3329      	adds	r3, #41	; 0x29
     cc6:	781b      	ldrb	r3, [r3, #0]
     cc8:	7533      	strb	r3, [r6, #20]
     cca:	682a      	ldr	r2, [r5, #0]
     ccc:	7bd3      	ldrb	r3, [r2, #15]
     cce:	09db      	lsrs	r3, r3, #7
     cd0:	d1fc      	bne.n	ccc <tc_init+0x19c>
     cd2:	1c23      	adds	r3, r4, #0
     cd4:	332a      	adds	r3, #42	; 0x2a
     cd6:	781b      	ldrb	r3, [r3, #0]
     cd8:	7633      	strb	r3, [r6, #24]
     cda:	682a      	ldr	r2, [r5, #0]
     cdc:	237f      	movs	r3, #127	; 0x7f
     cde:	7bd0      	ldrb	r0, [r2, #15]
     ce0:	4398      	bics	r0, r3
     ce2:	d1fb      	bne.n	cdc <tc_init+0x1ac>
     ce4:	342b      	adds	r4, #43	; 0x2b
     ce6:	7823      	ldrb	r3, [r4, #0]
     ce8:	7673      	strb	r3, [r6, #25]
     cea:	e024      	b.n	d36 <tc_init+0x206>
     cec:	7bda      	ldrb	r2, [r3, #15]
     cee:	09d2      	lsrs	r2, r2, #7
     cf0:	d1fc      	bne.n	cec <tc_init+0x1bc>
     cf2:	8d23      	ldrh	r3, [r4, #40]	; 0x28
     cf4:	8233      	strh	r3, [r6, #16]
     cf6:	682a      	ldr	r2, [r5, #0]
     cf8:	7bd3      	ldrb	r3, [r2, #15]
     cfa:	09db      	lsrs	r3, r3, #7
     cfc:	d1fc      	bne.n	cf8 <tc_init+0x1c8>
     cfe:	8d63      	ldrh	r3, [r4, #42]	; 0x2a
     d00:	8333      	strh	r3, [r6, #24]
     d02:	682a      	ldr	r2, [r5, #0]
     d04:	237f      	movs	r3, #127	; 0x7f
     d06:	7bd0      	ldrb	r0, [r2, #15]
     d08:	4398      	bics	r0, r3
     d0a:	d1fb      	bne.n	d04 <tc_init+0x1d4>
     d0c:	8da3      	ldrh	r3, [r4, #44]	; 0x2c
     d0e:	8373      	strh	r3, [r6, #26]
     d10:	e011      	b.n	d36 <tc_init+0x206>
     d12:	7bda      	ldrb	r2, [r3, #15]
     d14:	09d2      	lsrs	r2, r2, #7
     d16:	d1fc      	bne.n	d12 <tc_init+0x1e2>
     d18:	6aa3      	ldr	r3, [r4, #40]	; 0x28
     d1a:	6133      	str	r3, [r6, #16]
     d1c:	682a      	ldr	r2, [r5, #0]
     d1e:	7bd3      	ldrb	r3, [r2, #15]
     d20:	09db      	lsrs	r3, r3, #7
     d22:	d1fc      	bne.n	d1e <tc_init+0x1ee>
     d24:	6ae3      	ldr	r3, [r4, #44]	; 0x2c
     d26:	61b3      	str	r3, [r6, #24]
     d28:	682a      	ldr	r2, [r5, #0]
     d2a:	237f      	movs	r3, #127	; 0x7f
     d2c:	7bd0      	ldrb	r0, [r2, #15]
     d2e:	4398      	bics	r0, r3
     d30:	d1fb      	bne.n	d2a <tc_init+0x1fa>
     d32:	6b23      	ldr	r3, [r4, #48]	; 0x30
     d34:	61f3      	str	r3, [r6, #28]
     d36:	b009      	add	sp, #36	; 0x24
     d38:	bdf0      	pop	{r4, r5, r6, r7, pc}
     d3a:	46c0      	nop			; (mov r8, r8)
     d3c:	00000b01 	.word	0x00000b01
     d40:	000034d4 	.word	0x000034d4
     d44:	000034b1 	.word	0x000034b1
     d48:	200008e8 	.word	0x200008e8
     d4c:	00002b51 	.word	0x00002b51
     d50:	40000400 	.word	0x40000400
     d54:	00002a4d 	.word	0x00002a4d
     d58:	000029c9 	.word	0x000029c9

00000d5c <tc_reset>:
     d5c:	6803      	ldr	r3, [r0, #0]
     d5e:	2215      	movs	r2, #21
     d60:	7bd9      	ldrb	r1, [r3, #15]
     d62:	06c9      	lsls	r1, r1, #27
     d64:	d414      	bmi.n	d90 <tc_reset+0x34>
     d66:	881a      	ldrh	r2, [r3, #0]
     d68:	0792      	lsls	r2, r2, #30
     d6a:	d405      	bmi.n	d78 <tc_reset+0x1c>
     d6c:	2101      	movs	r1, #1
     d6e:	881a      	ldrh	r2, [r3, #0]
     d70:	430a      	orrs	r2, r1
     d72:	801a      	strh	r2, [r3, #0]
     d74:	2200      	movs	r2, #0
     d76:	e00b      	b.n	d90 <tc_reset+0x34>
     d78:	7bda      	ldrb	r2, [r3, #15]
     d7a:	09d2      	lsrs	r2, r2, #7
     d7c:	d1fc      	bne.n	d78 <tc_reset+0x1c>
     d7e:	2102      	movs	r1, #2
     d80:	881a      	ldrh	r2, [r3, #0]
     d82:	438a      	bics	r2, r1
     d84:	801a      	strh	r2, [r3, #0]
     d86:	6801      	ldr	r1, [r0, #0]
     d88:	7bca      	ldrb	r2, [r1, #15]
     d8a:	09d2      	lsrs	r2, r2, #7
     d8c:	d1fc      	bne.n	d88 <tc_reset+0x2c>
     d8e:	e7ed      	b.n	d6c <tc_reset+0x10>
     d90:	1c10      	adds	r0, r2, #0
     d92:	4770      	bx	lr

00000d94 <wdt_set_config>:
     d94:	2310      	movs	r3, #16
     d96:	b537      	push	{r0, r1, r2, r4, r5, lr}
     d98:	4931      	ldr	r1, [pc, #196]	; (e60 <wdt_set_config+0xcc>)
     d9a:	4c32      	ldr	r4, [pc, #200]	; (e64 <wdt_set_config+0xd0>)
     d9c:	698a      	ldr	r2, [r1, #24]
     d9e:	431a      	orrs	r2, r3
     da0:	618a      	str	r2, [r1, #24]
     da2:	7822      	ldrb	r2, [r4, #0]
     da4:	09d2      	lsrs	r2, r2, #7
     da6:	d159      	bne.n	e5c <wdt_set_config+0xc8>
     da8:	78c2      	ldrb	r2, [r0, #3]
     daa:	3307      	adds	r3, #7
     dac:	2a00      	cmp	r2, #0
     dae:	d055      	beq.n	e5c <wdt_set_config+0xc8>
     db0:	7901      	ldrb	r1, [r0, #4]
     db2:	4291      	cmp	r1, r2
     db4:	d852      	bhi.n	e5c <wdt_set_config+0xc8>
     db6:	7941      	ldrb	r1, [r0, #5]
     db8:	4291      	cmp	r1, r2
     dba:	d84f      	bhi.n	e5c <wdt_set_config+0xc8>
     dbc:	2202      	movs	r2, #2
     dbe:	7823      	ldrb	r3, [r4, #0]
     dc0:	4393      	bics	r3, r2
     dc2:	7023      	strb	r3, [r4, #0]
     dc4:	79e3      	ldrb	r3, [r4, #7]
     dc6:	b25b      	sxtb	r3, r3
     dc8:	2b00      	cmp	r3, #0
     dca:	dbfb      	blt.n	dc4 <wdt_set_config+0x30>
     dcc:	7843      	ldrb	r3, [r0, #1]
     dce:	2b00      	cmp	r3, #0
     dd0:	d035      	beq.n	e3e <wdt_set_config+0xaa>
     dd2:	1c05      	adds	r5, r0, #0
     dd4:	7883      	ldrb	r3, [r0, #2]
     dd6:	a901      	add	r1, sp, #4
     dd8:	700b      	strb	r3, [r1, #0]
     dda:	2001      	movs	r0, #1
     ddc:	4b22      	ldr	r3, [pc, #136]	; (e68 <wdt_set_config+0xd4>)
     dde:	4798      	blx	r3
     de0:	4b22      	ldr	r3, [pc, #136]	; (e6c <wdt_set_config+0xd8>)
     de2:	2001      	movs	r0, #1
     de4:	4798      	blx	r3
     de6:	782b      	ldrb	r3, [r5, #0]
     de8:	2b00      	cmp	r3, #0
     dea:	d002      	beq.n	df2 <wdt_set_config+0x5e>
     dec:	2001      	movs	r0, #1
     dee:	4b20      	ldr	r3, [pc, #128]	; (e70 <wdt_set_config+0xdc>)
     df0:	4798      	blx	r3
     df2:	78eb      	ldrb	r3, [r5, #3]
     df4:	792a      	ldrb	r2, [r5, #4]
     df6:	3b01      	subs	r3, #1
     df8:	2104      	movs	r1, #4
     dfa:	2a00      	cmp	r2, #0
     dfc:	d007      	beq.n	e0e <wdt_set_config+0x7a>
     dfe:	7822      	ldrb	r2, [r4, #0]
     e00:	430a      	orrs	r2, r1
     e02:	7022      	strb	r2, [r4, #0]
     e04:	792a      	ldrb	r2, [r5, #4]
     e06:	3a01      	subs	r2, #1
     e08:	408a      	lsls	r2, r1
     e0a:	4313      	orrs	r3, r2
     e0c:	e002      	b.n	e14 <wdt_set_config+0x80>
     e0e:	7822      	ldrb	r2, [r4, #0]
     e10:	438a      	bics	r2, r1
     e12:	7022      	strb	r2, [r4, #0]
     e14:	79e2      	ldrb	r2, [r4, #7]
     e16:	b252      	sxtb	r2, r2
     e18:	2a00      	cmp	r2, #0
     e1a:	dbfb      	blt.n	e14 <wdt_set_config+0x80>
     e1c:	4a11      	ldr	r2, [pc, #68]	; (e64 <wdt_set_config+0xd0>)
     e1e:	b2db      	uxtb	r3, r3
     e20:	7053      	strb	r3, [r2, #1]
     e22:	796b      	ldrb	r3, [r5, #5]
     e24:	2b00      	cmp	r3, #0
     e26:	d10c      	bne.n	e42 <wdt_set_config+0xae>
     e28:	782b      	ldrb	r3, [r5, #0]
     e2a:	2b00      	cmp	r3, #0
     e2c:	d00e      	beq.n	e4c <wdt_set_config+0xb8>
     e2e:	2380      	movs	r3, #128	; 0x80
     e30:	7822      	ldrb	r2, [r4, #0]
     e32:	4313      	orrs	r3, r2
     e34:	7023      	strb	r3, [r4, #0]
     e36:	79e3      	ldrb	r3, [r4, #7]
     e38:	b25b      	sxtb	r3, r3
     e3a:	2b00      	cmp	r3, #0
     e3c:	dbfb      	blt.n	e36 <wdt_set_config+0xa2>
     e3e:	2300      	movs	r3, #0
     e40:	e00c      	b.n	e5c <wdt_set_config+0xc8>
     e42:	79e2      	ldrb	r2, [r4, #7]
     e44:	b252      	sxtb	r2, r2
     e46:	2a00      	cmp	r2, #0
     e48:	da03      	bge.n	e52 <wdt_set_config+0xbe>
     e4a:	e7fa      	b.n	e42 <wdt_set_config+0xae>
     e4c:	7823      	ldrb	r3, [r4, #0]
     e4e:	2202      	movs	r2, #2
     e50:	e7ef      	b.n	e32 <wdt_set_config+0x9e>
     e52:	3b01      	subs	r3, #1
     e54:	4a03      	ldr	r2, [pc, #12]	; (e64 <wdt_set_config+0xd0>)
     e56:	b2db      	uxtb	r3, r3
     e58:	7093      	strb	r3, [r2, #2]
     e5a:	e7e5      	b.n	e28 <wdt_set_config+0x94>
     e5c:	1c18      	adds	r0, r3, #0
     e5e:	bd3e      	pop	{r1, r2, r3, r4, r5, pc}
     e60:	40000400 	.word	0x40000400
     e64:	40001000 	.word	0x40001000
     e68:	00002a4d 	.word	0x00002a4d
     e6c:	000029c9 	.word	0x000029c9
     e70:	00002a69 	.word	0x00002a69

00000e74 <wdt_reset_count>:
     e74:	22a5      	movs	r2, #165	; 0xa5
     e76:	4b03      	ldr	r3, [pc, #12]	; (e84 <wdt_reset_count+0x10>)
     e78:	721a      	strb	r2, [r3, #8]
     e7a:	79da      	ldrb	r2, [r3, #7]
     e7c:	b252      	sxtb	r2, r2
     e7e:	2a00      	cmp	r2, #0
     e80:	dbfb      	blt.n	e7a <wdt_reset_count+0x6>
     e82:	4770      	bx	lr
     e84:	40001000 	.word	0x40001000

00000e88 <ReadUserPage>:
     e88:	b508      	push	{r3, lr}
     e8a:	20fc      	movs	r0, #252	; 0xfc
     e8c:	4904      	ldr	r1, [pc, #16]	; (ea0 <ReadUserPage+0x18>)
     e8e:	0180      	lsls	r0, r0, #6
     e90:	2240      	movs	r2, #64	; 0x40
     e92:	4b04      	ldr	r3, [pc, #16]	; (ea4 <ReadUserPage+0x1c>)
     e94:	4798      	blx	r3
     e96:	2805      	cmp	r0, #5
     e98:	d0f7      	beq.n	e8a <ReadUserPage+0x2>
     e9a:	4b03      	ldr	r3, [pc, #12]	; (ea8 <ReadUserPage+0x20>)
     e9c:	4798      	blx	r3
     e9e:	bd08      	pop	{r3, pc}
     ea0:	20000042 	.word	0x20000042
     ea4:	0000095d 	.word	0x0000095d
     ea8:	00000e75 	.word	0x00000e75

00000eac <WriteUserPage>:
     eac:	b510      	push	{r4, lr}
     eae:	20fc      	movs	r0, #252	; 0xfc
     eb0:	4b08      	ldr	r3, [pc, #32]	; (ed4 <WriteUserPage+0x28>)
     eb2:	0180      	lsls	r0, r0, #6
     eb4:	4798      	blx	r3
     eb6:	2805      	cmp	r0, #5
     eb8:	d0f9      	beq.n	eae <WriteUserPage+0x2>
     eba:	4c07      	ldr	r4, [pc, #28]	; (ed8 <WriteUserPage+0x2c>)
     ebc:	47a0      	blx	r4
     ebe:	20fc      	movs	r0, #252	; 0xfc
     ec0:	4906      	ldr	r1, [pc, #24]	; (edc <WriteUserPage+0x30>)
     ec2:	0180      	lsls	r0, r0, #6
     ec4:	2240      	movs	r2, #64	; 0x40
     ec6:	4b06      	ldr	r3, [pc, #24]	; (ee0 <WriteUserPage+0x34>)
     ec8:	4798      	blx	r3
     eca:	2805      	cmp	r0, #5
     ecc:	d0f7      	beq.n	ebe <WriteUserPage+0x12>
     ece:	47a0      	blx	r4
     ed0:	bd10      	pop	{r4, pc}
     ed2:	46c0      	nop			; (mov r8, r8)
     ed4:	000009c9 	.word	0x000009c9
     ed8:	00000e75 	.word	0x00000e75
     edc:	20000042 	.word	0x20000042
     ee0:	000008bd 	.word	0x000008bd

00000ee4 <WriteWIEGANDSIZE>:
     ee4:	b510      	push	{r4, lr}
     ee6:	1c04      	adds	r4, r0, #0
     ee8:	4b03      	ldr	r3, [pc, #12]	; (ef8 <WriteWIEGANDSIZE+0x14>)
     eea:	4798      	blx	r3
     eec:	4b03      	ldr	r3, [pc, #12]	; (efc <WriteWIEGANDSIZE+0x18>)
     eee:	709c      	strb	r4, [r3, #2]
     ef0:	4b03      	ldr	r3, [pc, #12]	; (f00 <WriteWIEGANDSIZE+0x1c>)
     ef2:	4798      	blx	r3
     ef4:	bd10      	pop	{r4, pc}
     ef6:	46c0      	nop			; (mov r8, r8)
     ef8:	00000e89 	.word	0x00000e89
     efc:	20000042 	.word	0x20000042
     f00:	00000ead 	.word	0x00000ead

00000f04 <tc_enable.isra.1>:
     f04:	7bc3      	ldrb	r3, [r0, #15]
     f06:	09db      	lsrs	r3, r3, #7
     f08:	d1fc      	bne.n	f04 <tc_enable.isra.1>
     f0a:	2202      	movs	r2, #2
     f0c:	8803      	ldrh	r3, [r0, #0]
     f0e:	4313      	orrs	r3, r2
     f10:	8003      	strh	r3, [r0, #0]
     f12:	4770      	bx	lr

00000f14 <arch_ioport_set_pin_mode.constprop.5>:
     f14:	231f      	movs	r3, #31
     f16:	4018      	ands	r0, r3
     f18:	3b1e      	subs	r3, #30
     f1a:	4083      	lsls	r3, r0
     f1c:	1c18      	adds	r0, r3, #0
     f1e:	4a05      	ldr	r2, [pc, #20]	; (f34 <arch_ioport_set_pin_mode.constprop.5+0x20>)
     f20:	b29b      	uxth	r3, r3
     f22:	4313      	orrs	r3, r2
     f24:	4a04      	ldr	r2, [pc, #16]	; (f38 <arch_ioport_set_pin_mode.constprop.5+0x24>)
     f26:	0c00      	lsrs	r0, r0, #16
     f28:	6293      	str	r3, [r2, #40]	; 0x28
     f2a:	4b04      	ldr	r3, [pc, #16]	; (f3c <arch_ioport_set_pin_mode.constprop.5+0x28>)
     f2c:	4318      	orrs	r0, r3
     f2e:	6290      	str	r0, [r2, #40]	; 0x28
     f30:	4770      	bx	lr
     f32:	46c0      	nop			; (mov r8, r8)
     f34:	50020000 	.word	0x50020000
     f38:	41004400 	.word	0x41004400
     f3c:	d0020000 	.word	0xd0020000

00000f40 <Init125khz>:
     f40:	b510      	push	{r4, lr}
     f42:	4c15      	ldr	r4, [pc, #84]	; (f98 <Init125khz+0x58>)
     f44:	b08e      	sub	sp, #56	; 0x38
     f46:	1c20      	adds	r0, r4, #0
     f48:	4b14      	ldr	r3, [pc, #80]	; (f9c <Init125khz+0x5c>)
     f4a:	4798      	blx	r3
     f4c:	2300      	movs	r3, #0
     f4e:	aa01      	add	r2, sp, #4
     f50:	7093      	strb	r3, [r2, #2]
     f52:	8093      	strh	r3, [r2, #4]
     f54:	8113      	strh	r3, [r2, #8]
     f56:	7053      	strb	r3, [r2, #1]
     f58:	7293      	strb	r3, [r2, #10]
     f5a:	72d3      	strb	r3, [r2, #11]
     f5c:	7313      	strb	r3, [r2, #12]
     f5e:	7393      	strb	r3, [r2, #14]
     f60:	7353      	strb	r3, [r2, #13]
     f62:	7713      	strb	r3, [r2, #28]
     f64:	6213      	str	r3, [r2, #32]
     f66:	6253      	str	r3, [r2, #36]	; 0x24
     f68:	8513      	strh	r3, [r2, #40]	; 0x28
     f6a:	8593      	strh	r3, [r2, #44]	; 0x2c
     f6c:	3303      	adds	r3, #3
     f6e:	7013      	strb	r3, [r2, #0]
     f70:	331d      	adds	r3, #29
     f72:	7193      	strb	r3, [r2, #6]
     f74:	3b01      	subs	r3, #1
     f76:	8553      	strh	r3, [r2, #42]	; 0x2a
     f78:	3b1e      	subs	r3, #30
     f7a:	7413      	strb	r3, [r2, #16]
     f7c:	3306      	adds	r3, #6
     f7e:	6153      	str	r3, [r2, #20]
     f80:	3b02      	subs	r3, #2
     f82:	6193      	str	r3, [r2, #24]
     f84:	4906      	ldr	r1, [pc, #24]	; (fa0 <Init125khz+0x60>)
     f86:	1c20      	adds	r0, r4, #0
     f88:	4b06      	ldr	r3, [pc, #24]	; (fa4 <Init125khz+0x64>)
     f8a:	4798      	blx	r3
     f8c:	6820      	ldr	r0, [r4, #0]
     f8e:	4b06      	ldr	r3, [pc, #24]	; (fa8 <Init125khz+0x68>)
     f90:	4798      	blx	r3
     f92:	b00e      	add	sp, #56	; 0x38
     f94:	bd10      	pop	{r4, pc}
     f96:	46c0      	nop			; (mov r8, r8)
     f98:	20000904 	.word	0x20000904
     f9c:	00000d5d 	.word	0x00000d5d
     fa0:	42002400 	.word	0x42002400
     fa4:	00000b31 	.word	0x00000b31
     fa8:	00000f05 	.word	0x00000f05

00000fac <buzzer_clock_init>:
     fac:	b510      	push	{r4, lr}
     fae:	4c13      	ldr	r4, [pc, #76]	; (ffc <buzzer_clock_init+0x50>)
     fb0:	b08e      	sub	sp, #56	; 0x38
     fb2:	1c20      	adds	r0, r4, #0
     fb4:	4b12      	ldr	r3, [pc, #72]	; (1000 <STACK_SIZE>)
     fb6:	4798      	blx	r3
     fb8:	2300      	movs	r3, #0
     fba:	aa01      	add	r2, sp, #4
     fbc:	7013      	strb	r3, [r2, #0]
     fbe:	7093      	strb	r3, [r2, #2]
     fc0:	8093      	strh	r3, [r2, #4]
     fc2:	8113      	strh	r3, [r2, #8]
     fc4:	7053      	strb	r3, [r2, #1]
     fc6:	7293      	strb	r3, [r2, #10]
     fc8:	72d3      	strb	r3, [r2, #11]
     fca:	7313      	strb	r3, [r2, #12]
     fcc:	7393      	strb	r3, [r2, #14]
     fce:	7353      	strb	r3, [r2, #13]
     fd0:	7413      	strb	r3, [r2, #16]
     fd2:	6153      	str	r3, [r2, #20]
     fd4:	6193      	str	r3, [r2, #24]
     fd6:	8513      	strh	r3, [r2, #40]	; 0x28
     fd8:	8593      	strh	r3, [r2, #44]	; 0x2c
     fda:	3320      	adds	r3, #32
     fdc:	7193      	strb	r3, [r2, #6]
     fde:	4b09      	ldr	r3, [pc, #36]	; (1004 <STACK_SIZE+0x4>)
     fe0:	1c20      	adds	r0, r4, #0
     fe2:	8553      	strh	r3, [r2, #42]	; 0x2a
     fe4:	2301      	movs	r3, #1
     fe6:	7713      	strb	r3, [r2, #28]
     fe8:	3318      	adds	r3, #24
     fea:	6213      	str	r3, [r2, #32]
     fec:	3b14      	subs	r3, #20
     fee:	6253      	str	r3, [r2, #36]	; 0x24
     ff0:	4905      	ldr	r1, [pc, #20]	; (1008 <STACK_SIZE+0x8>)
     ff2:	4b06      	ldr	r3, [pc, #24]	; (100c <STACK_SIZE+0xc>)
     ff4:	4798      	blx	r3
     ff6:	b00e      	add	sp, #56	; 0x38
     ff8:	bd10      	pop	{r4, pc}
     ffa:	46c0      	nop			; (mov r8, r8)
     ffc:	20000920 	.word	0x20000920
    1000:	00000d5d 	.word	0x00000d5d
    1004:	0000176f 	.word	0x0000176f
    1008:	42003400 	.word	0x42003400
    100c:	00000b31 	.word	0x00000b31

00001010 <buzz>:
    1010:	b538      	push	{r3, r4, r5, lr}
    1012:	1c05      	adds	r5, r0, #0
    1014:	4c07      	ldr	r4, [pc, #28]	; (1034 <buzz+0x24>)
    1016:	4b08      	ldr	r3, [pc, #32]	; (1038 <buzz+0x28>)
    1018:	6820      	ldr	r0, [r4, #0]
    101a:	4798      	blx	r3
    101c:	4b07      	ldr	r3, [pc, #28]	; (103c <buzz+0x2c>)
    101e:	1c28      	adds	r0, r5, #0
    1020:	4798      	blx	r3
    1022:	6823      	ldr	r3, [r4, #0]
    1024:	7bda      	ldrb	r2, [r3, #15]
    1026:	09d2      	lsrs	r2, r2, #7
    1028:	d1fc      	bne.n	1024 <buzz+0x14>
    102a:	2102      	movs	r1, #2
    102c:	881a      	ldrh	r2, [r3, #0]
    102e:	438a      	bics	r2, r1
    1030:	801a      	strh	r2, [r3, #0]
    1032:	bd38      	pop	{r3, r4, r5, pc}
    1034:	20000920 	.word	0x20000920
    1038:	00000f05 	.word	0x00000f05
    103c:	00000295 	.word	0x00000295

00001040 <buzz_on>:
    1040:	b508      	push	{r3, lr}
    1042:	4b02      	ldr	r3, [pc, #8]	; (104c <buzz_on+0xc>)
    1044:	6818      	ldr	r0, [r3, #0]
    1046:	4b02      	ldr	r3, [pc, #8]	; (1050 <buzz_on+0x10>)
    1048:	4798      	blx	r3
    104a:	bd08      	pop	{r3, pc}
    104c:	20000920 	.word	0x20000920
    1050:	00000f05 	.word	0x00000f05

00001054 <led_yellow>:
    1054:	2208      	movs	r2, #8
    1056:	4b02      	ldr	r3, [pc, #8]	; (1060 <led_yellow+0xc>)
    1058:	619a      	str	r2, [r3, #24]
    105a:	3a04      	subs	r2, #4
    105c:	619a      	str	r2, [r3, #24]
    105e:	4770      	bx	lr
    1060:	41004400 	.word	0x41004400

00001064 <led_green>:
    1064:	2208      	movs	r2, #8
    1066:	4b02      	ldr	r3, [pc, #8]	; (1070 <led_green+0xc>)
    1068:	615a      	str	r2, [r3, #20]
    106a:	3a04      	subs	r2, #4
    106c:	619a      	str	r2, [r3, #24]
    106e:	4770      	bx	lr
    1070:	41004400 	.word	0x41004400

00001074 <led_red>:
    1074:	2208      	movs	r2, #8
    1076:	4b02      	ldr	r3, [pc, #8]	; (1080 <led_red+0xc>)
    1078:	619a      	str	r2, [r3, #24]
    107a:	3a04      	subs	r2, #4
    107c:	615a      	str	r2, [r3, #20]
    107e:	4770      	bx	lr
    1080:	41004400 	.word	0x41004400

00001084 <led_idle>:
    1084:	b508      	push	{r3, lr}
    1086:	4b01      	ldr	r3, [pc, #4]	; (108c <led_idle+0x8>)
    1088:	4798      	blx	r3
    108a:	bd08      	pop	{r3, pc}
    108c:	00001075 	.word	0x00001075

00001090 <led_off>:
    1090:	2208      	movs	r2, #8
    1092:	4b02      	ldr	r3, [pc, #8]	; (109c <led_off+0xc>)
    1094:	615a      	str	r2, [r3, #20]
    1096:	3a04      	subs	r2, #4
    1098:	615a      	str	r2, [r3, #20]
    109a:	4770      	bx	lr
    109c:	41004400 	.word	0x41004400

000010a0 <user_init>:
    10a0:	b5f7      	push	{r0, r1, r2, r4, r5, r6, r7, lr}
    10a2:	4b61      	ldr	r3, [pc, #388]	; (1228 <user_init+0x188>)
    10a4:	4798      	blx	r3
    10a6:	466b      	mov	r3, sp
    10a8:	2200      	movs	r2, #0
    10aa:	701a      	strb	r2, [r3, #0]
    10ac:	2201      	movs	r2, #1
    10ae:	705a      	strb	r2, [r3, #1]
    10b0:	2200      	movs	r2, #0
    10b2:	711a      	strb	r2, [r3, #4]
    10b4:	2200      	movs	r2, #0
    10b6:	2502      	movs	r5, #2
    10b8:	715a      	strb	r2, [r3, #5]
    10ba:	220b      	movs	r2, #11
    10bc:	709d      	strb	r5, [r3, #2]
    10be:	70da      	strb	r2, [r3, #3]
    10c0:	4668      	mov	r0, sp
    10c2:	4b5a      	ldr	r3, [pc, #360]	; (122c <user_init+0x18c>)
    10c4:	4798      	blx	r3
    10c6:	4b5a      	ldr	r3, [pc, #360]	; (1230 <user_init+0x190>)
    10c8:	4798      	blx	r3
    10ca:	2301      	movs	r3, #1
    10cc:	4e59      	ldr	r6, [pc, #356]	; (1234 <user_init+0x194>)
    10ce:	4c5a      	ldr	r4, [pc, #360]	; (1238 <user_init+0x198>)
    10d0:	6073      	str	r3, [r6, #4]
    10d2:	7823      	ldrb	r3, [r4, #0]
    10d4:	4f59      	ldr	r7, [pc, #356]	; (123c <user_init+0x19c>)
    10d6:	432b      	orrs	r3, r5
    10d8:	7023      	strb	r3, [r4, #0]
    10da:	2000      	movs	r0, #0
    10dc:	47b8      	blx	r7
    10de:	6075      	str	r5, [r6, #4]
    10e0:	7823      	ldrb	r3, [r4, #0]
    10e2:	2001      	movs	r0, #1
    10e4:	432b      	orrs	r3, r5
    10e6:	7023      	strb	r3, [r4, #0]
    10e8:	47b8      	blx	r7
    10ea:	2004      	movs	r0, #4
    10ec:	60b0      	str	r0, [r6, #8]
    10ee:	7823      	ldrb	r3, [r4, #0]
    10f0:	432b      	orrs	r3, r5
    10f2:	7023      	strb	r3, [r4, #0]
    10f4:	2308      	movs	r3, #8
    10f6:	60b3      	str	r3, [r6, #8]
    10f8:	7823      	ldrb	r3, [r4, #0]
    10fa:	432b      	orrs	r3, r5
    10fc:	7023      	strb	r3, [r4, #0]
    10fe:	2310      	movs	r3, #16
    1100:	6073      	str	r3, [r6, #4]
    1102:	7823      	ldrb	r3, [r4, #0]
    1104:	432b      	orrs	r3, r5
    1106:	7023      	strb	r3, [r4, #0]
    1108:	47b8      	blx	r7
    110a:	2320      	movs	r3, #32
    110c:	6073      	str	r3, [r6, #4]
    110e:	7823      	ldrb	r3, [r4, #0]
    1110:	2005      	movs	r0, #5
    1112:	432b      	orrs	r3, r5
    1114:	7023      	strb	r3, [r4, #0]
    1116:	47b8      	blx	r7
    1118:	2380      	movs	r3, #128	; 0x80
    111a:	60b3      	str	r3, [r6, #8]
    111c:	7823      	ldrb	r3, [r4, #0]
    111e:	200b      	movs	r0, #11
    1120:	432b      	orrs	r3, r5
    1122:	7023      	strb	r3, [r4, #0]
    1124:	2380      	movs	r3, #128	; 0x80
    1126:	005b      	lsls	r3, r3, #1
    1128:	60b3      	str	r3, [r6, #8]
    112a:	7823      	ldrb	r3, [r4, #0]
    112c:	432b      	orrs	r3, r5
    112e:	7023      	strb	r3, [r4, #0]
    1130:	2380      	movs	r3, #128	; 0x80
    1132:	009b      	lsls	r3, r3, #2
    1134:	60b3      	str	r3, [r6, #8]
    1136:	7823      	ldrb	r3, [r4, #0]
    1138:	432b      	orrs	r3, r5
    113a:	7023      	strb	r3, [r4, #0]
    113c:	2380      	movs	r3, #128	; 0x80
    113e:	00db      	lsls	r3, r3, #3
    1140:	60b3      	str	r3, [r6, #8]
    1142:	7823      	ldrb	r3, [r4, #0]
    1144:	432b      	orrs	r3, r5
    1146:	7023      	strb	r3, [r4, #0]
    1148:	2380      	movs	r3, #128	; 0x80
    114a:	011b      	lsls	r3, r3, #4
    114c:	6073      	str	r3, [r6, #4]
    114e:	7823      	ldrb	r3, [r4, #0]
    1150:	432b      	orrs	r3, r5
    1152:	7023      	strb	r3, [r4, #0]
    1154:	47b8      	blx	r7
    1156:	2380      	movs	r3, #128	; 0x80
    1158:	029b      	lsls	r3, r3, #10
    115a:	6073      	str	r3, [r6, #4]
    115c:	7823      	ldrb	r3, [r4, #0]
    115e:	2011      	movs	r0, #17
    1160:	432b      	orrs	r3, r5
    1162:	7023      	strb	r3, [r4, #0]
    1164:	47b8      	blx	r7
    1166:	2380      	movs	r3, #128	; 0x80
    1168:	025b      	lsls	r3, r3, #9
    116a:	60b3      	str	r3, [r6, #8]
    116c:	7823      	ldrb	r3, [r4, #0]
    116e:	2016      	movs	r0, #22
    1170:	432b      	orrs	r3, r5
    1172:	7023      	strb	r3, [r4, #0]
    1174:	2380      	movs	r3, #128	; 0x80
    1176:	041b      	lsls	r3, r3, #16
    1178:	60b3      	str	r3, [r6, #8]
    117a:	7823      	ldrb	r3, [r4, #0]
    117c:	432b      	orrs	r3, r5
    117e:	7023      	strb	r3, [r4, #0]
    1180:	2380      	movs	r3, #128	; 0x80
    1182:	03db      	lsls	r3, r3, #15
    1184:	6073      	str	r3, [r6, #4]
    1186:	7823      	ldrb	r3, [r4, #0]
    1188:	432b      	orrs	r3, r5
    118a:	7023      	strb	r3, [r4, #0]
    118c:	47b8      	blx	r7
    118e:	2380      	movs	r3, #128	; 0x80
    1190:	049b      	lsls	r3, r3, #18
    1192:	6073      	str	r3, [r6, #4]
    1194:	7823      	ldrb	r3, [r4, #0]
    1196:	2019      	movs	r0, #25
    1198:	431d      	orrs	r5, r3
    119a:	7025      	strb	r5, [r4, #0]
    119c:	47b8      	blx	r7
    119e:	4b24      	ldr	r3, [pc, #144]	; (1230 <user_init+0x190>)
    11a0:	4798      	blx	r3
    11a2:	4b27      	ldr	r3, [pc, #156]	; (1240 <user_init+0x1a0>)
    11a4:	4798      	blx	r3
    11a6:	4b22      	ldr	r3, [pc, #136]	; (1230 <user_init+0x190>)
    11a8:	4798      	blx	r3
    11aa:	466b      	mov	r3, sp
    11ac:	2200      	movs	r2, #0
    11ae:	701a      	strb	r2, [r3, #0]
    11b0:	466a      	mov	r2, sp
    11b2:	4b24      	ldr	r3, [pc, #144]	; (1244 <user_init+0x1a4>)
    11b4:	4668      	mov	r0, sp
    11b6:	685b      	ldr	r3, [r3, #4]
    11b8:	06db      	lsls	r3, r3, #27
    11ba:	0f1b      	lsrs	r3, r3, #28
    11bc:	7093      	strb	r3, [r2, #2]
    11be:	466b      	mov	r3, sp
    11c0:	2200      	movs	r2, #0
    11c2:	70da      	strb	r2, [r3, #3]
    11c4:	2200      	movs	r2, #0
    11c6:	711a      	strb	r2, [r3, #4]
    11c8:	2200      	movs	r2, #0
    11ca:	705a      	strb	r2, [r3, #1]
    11cc:	4b1e      	ldr	r3, [pc, #120]	; (1248 <user_init+0x1a8>)
    11ce:	4798      	blx	r3
    11d0:	4d1e      	ldr	r5, [pc, #120]	; (124c <user_init+0x1ac>)
    11d2:	47a8      	blx	r5
    11d4:	4c1e      	ldr	r4, [pc, #120]	; (1250 <user_init+0x1b0>)
    11d6:	4e16      	ldr	r6, [pc, #88]	; (1230 <user_init+0x190>)
    11d8:	7863      	ldrb	r3, [r4, #1]
    11da:	2bff      	cmp	r3, #255	; 0xff
    11dc:	d111      	bne.n	1202 <user_init+0x162>
    11de:	7823      	ldrb	r3, [r4, #0]
    11e0:	2bff      	cmp	r3, #255	; 0xff
    11e2:	d10e      	bne.n	1202 <user_init+0x162>
    11e4:	78a3      	ldrb	r3, [r4, #2]
    11e6:	2bff      	cmp	r3, #255	; 0xff
    11e8:	d10b      	bne.n	1202 <user_init+0x162>
    11ea:	47a8      	blx	r5
    11ec:	2357      	movs	r3, #87	; 0x57
    11ee:	4f19      	ldr	r7, [pc, #100]	; (1254 <user_init+0x1b4>)
    11f0:	7063      	strb	r3, [r4, #1]
    11f2:	47b8      	blx	r7
    11f4:	47a8      	blx	r5
    11f6:	2341      	movs	r3, #65	; 0x41
    11f8:	7023      	strb	r3, [r4, #0]
    11fa:	47b8      	blx	r7
    11fc:	201a      	movs	r0, #26
    11fe:	4b16      	ldr	r3, [pc, #88]	; (1258 <user_init+0x1b8>)
    1200:	4798      	blx	r3
    1202:	78a3      	ldrb	r3, [r4, #2]
    1204:	22f7      	movs	r2, #247	; 0xf7
    1206:	1c19      	adds	r1, r3, #0
    1208:	391a      	subs	r1, #26
    120a:	4211      	tst	r1, r2
    120c:	d009      	beq.n	1222 <user_init+0x182>
    120e:	2b42      	cmp	r3, #66	; 0x42
    1210:	d007      	beq.n	1222 <user_init+0x182>
    1212:	47a8      	blx	r5
    1214:	7822      	ldrb	r2, [r4, #0]
    1216:	4b10      	ldr	r3, [pc, #64]	; (1258 <user_init+0x1b8>)
    1218:	2022      	movs	r0, #34	; 0x22
    121a:	2a4d      	cmp	r2, #77	; 0x4d
    121c:	d000      	beq.n	1220 <user_init+0x180>
    121e:	201a      	movs	r0, #26
    1220:	4798      	blx	r3
    1222:	47b0      	blx	r6
    1224:	bdf7      	pop	{r0, r1, r2, r4, r5, r6, r7, pc}
    1226:	46c0      	nop			; (mov r8, r8)
    1228:	00000239 	.word	0x00000239
    122c:	00000d95 	.word	0x00000d95
    1230:	00000e75 	.word	0x00000e75
    1234:	41004400 	.word	0x41004400
    1238:	41004440 	.word	0x41004440
    123c:	00000f15 	.word	0x00000f15
    1240:	00000fad 	.word	0x00000fad
    1244:	41004000 	.word	0x41004000
    1248:	00000785 	.word	0x00000785
    124c:	00000e89 	.word	0x00000e89
    1250:	20000042 	.word	0x20000042
    1254:	00000ead 	.word	0x00000ead
    1258:	00000ee5 	.word	0x00000ee5

0000125c <avaliar_modo_leitor>:
    125c:	b5f8      	push	{r3, r4, r5, r6, r7, lr}
    125e:	4b2f      	ldr	r3, [pc, #188]	; (131c <avaliar_modo_leitor+0xc0>)
    1260:	4798      	blx	r3
    1262:	2600      	movs	r6, #0
    1264:	2701      	movs	r7, #1
    1266:	2380      	movs	r3, #128	; 0x80
    1268:	4037      	ands	r7, r6
    126a:	4c2d      	ldr	r4, [pc, #180]	; (1320 <avaliar_modo_leitor+0xc4>)
    126c:	005b      	lsls	r3, r3, #1
    126e:	2f00      	cmp	r7, #0
    1270:	d001      	beq.n	1276 <avaliar_modo_leitor+0x1a>
    1272:	61a3      	str	r3, [r4, #24]
    1274:	e000      	b.n	1278 <avaliar_modo_leitor+0x1c>
    1276:	6163      	str	r3, [r4, #20]
    1278:	2014      	movs	r0, #20
    127a:	4d2a      	ldr	r5, [pc, #168]	; (1324 <avaliar_modo_leitor+0xc8>)
    127c:	47a8      	blx	r5
    127e:	2001      	movs	r0, #1
    1280:	6a23      	ldr	r3, [r4, #32]
    1282:	0c5b      	lsrs	r3, r3, #17
    1284:	4003      	ands	r3, r0
    1286:	42bb      	cmp	r3, r7
    1288:	d003      	beq.n	1292 <avaliar_modo_leitor+0x36>
    128a:	1836      	adds	r6, r6, r0
    128c:	2e08      	cmp	r6, #8
    128e:	d1e9      	bne.n	1264 <avaliar_modo_leitor+0x8>
    1290:	e042      	b.n	1318 <avaliar_modo_leitor+0xbc>
    1292:	2600      	movs	r6, #0
    1294:	2701      	movs	r7, #1
    1296:	2380      	movs	r3, #128	; 0x80
    1298:	4037      	ands	r7, r6
    129a:	009b      	lsls	r3, r3, #2
    129c:	2f00      	cmp	r7, #0
    129e:	d001      	beq.n	12a4 <avaliar_modo_leitor+0x48>
    12a0:	61a3      	str	r3, [r4, #24]
    12a2:	e000      	b.n	12a6 <avaliar_modo_leitor+0x4a>
    12a4:	6163      	str	r3, [r4, #20]
    12a6:	2014      	movs	r0, #20
    12a8:	47a8      	blx	r5
    12aa:	6a23      	ldr	r3, [r4, #32]
    12ac:	039b      	lsls	r3, r3, #14
    12ae:	0fdb      	lsrs	r3, r3, #31
    12b0:	42bb      	cmp	r3, r7
    12b2:	d004      	beq.n	12be <avaliar_modo_leitor+0x62>
    12b4:	3601      	adds	r6, #1
    12b6:	2e08      	cmp	r6, #8
    12b8:	d1ec      	bne.n	1294 <avaliar_modo_leitor+0x38>
    12ba:	2002      	movs	r0, #2
    12bc:	e02c      	b.n	1318 <avaliar_modo_leitor+0xbc>
    12be:	2600      	movs	r6, #0
    12c0:	2701      	movs	r7, #1
    12c2:	2380      	movs	r3, #128	; 0x80
    12c4:	4037      	ands	r7, r6
    12c6:	00db      	lsls	r3, r3, #3
    12c8:	2f00      	cmp	r7, #0
    12ca:	d001      	beq.n	12d0 <avaliar_modo_leitor+0x74>
    12cc:	61a3      	str	r3, [r4, #24]
    12ce:	e000      	b.n	12d2 <avaliar_modo_leitor+0x76>
    12d0:	6163      	str	r3, [r4, #20]
    12d2:	2014      	movs	r0, #20
    12d4:	47a8      	blx	r5
    12d6:	6a23      	ldr	r3, [r4, #32]
    12d8:	039b      	lsls	r3, r3, #14
    12da:	0fdb      	lsrs	r3, r3, #31
    12dc:	42bb      	cmp	r3, r7
    12de:	d004      	beq.n	12ea <avaliar_modo_leitor+0x8e>
    12e0:	3601      	adds	r6, #1
    12e2:	2e08      	cmp	r6, #8
    12e4:	d1ec      	bne.n	12c0 <avaliar_modo_leitor+0x64>
    12e6:	2000      	movs	r0, #0
    12e8:	e016      	b.n	1318 <avaliar_modo_leitor+0xbc>
    12ea:	2600      	movs	r6, #0
    12ec:	2701      	movs	r7, #1
    12ee:	2380      	movs	r3, #128	; 0x80
    12f0:	4037      	ands	r7, r6
    12f2:	005b      	lsls	r3, r3, #1
    12f4:	2f00      	cmp	r7, #0
    12f6:	d001      	beq.n	12fc <avaliar_modo_leitor+0xa0>
    12f8:	61a3      	str	r3, [r4, #24]
    12fa:	e000      	b.n	12fe <avaliar_modo_leitor+0xa2>
    12fc:	6163      	str	r3, [r4, #20]
    12fe:	2014      	movs	r0, #20
    1300:	47a8      	blx	r5
    1302:	6a23      	ldr	r3, [r4, #32]
    1304:	051b      	lsls	r3, r3, #20
    1306:	0fdb      	lsrs	r3, r3, #31
    1308:	42bb      	cmp	r3, r7
    130a:	d004      	beq.n	1316 <avaliar_modo_leitor+0xba>
    130c:	3601      	adds	r6, #1
    130e:	2e08      	cmp	r6, #8
    1310:	d1ec      	bne.n	12ec <avaliar_modo_leitor+0x90>
    1312:	2003      	movs	r0, #3
    1314:	e000      	b.n	1318 <avaliar_modo_leitor+0xbc>
    1316:	2004      	movs	r0, #4
    1318:	bdf8      	pop	{r3, r4, r5, r6, r7, pc}
    131a:	46c0      	nop			; (mov r8, r8)
    131c:	00000e75 	.word	0x00000e75
    1320:	41004400 	.word	0x41004400
    1324:	00000295 	.word	0x00000295

00001328 <modo_leitor>:
    1328:	b570      	push	{r4, r5, r6, lr}
    132a:	4b38      	ldr	r3, [pc, #224]	; (140c <modo_leitor+0xe4>)
    132c:	4798      	blx	r3
    132e:	2804      	cmp	r0, #4
    1330:	d86a      	bhi.n	1408 <modo_leitor+0xe0>
    1332:	4c37      	ldr	r4, [pc, #220]	; (1410 <modo_leitor+0xe8>)
    1334:	4d37      	ldr	r5, [pc, #220]	; (1414 <modo_leitor+0xec>)
    1336:	f001 fcaf 	bl	2c98 <__gnu_thumb1_case_uqi>
    133a:	0330      	.short	0x0330
    133c:	2112      	.short	0x2112
    133e:	3f          	.byte	0x3f
    133f:	00          	.byte	0x00
    1340:	47a0      	blx	r4
    1342:	2357      	movs	r3, #87	; 0x57
    1344:	706b      	strb	r3, [r5, #1]
    1346:	4b34      	ldr	r3, [pc, #208]	; (1418 <modo_leitor+0xf0>)
    1348:	4798      	blx	r3
    134a:	201a      	movs	r0, #26
    134c:	4b33      	ldr	r3, [pc, #204]	; (141c <modo_leitor+0xf4>)
    134e:	4798      	blx	r3
    1350:	4b33      	ldr	r3, [pc, #204]	; (1420 <modo_leitor+0xf8>)
    1352:	4798      	blx	r3
    1354:	4b33      	ldr	r3, [pc, #204]	; (1424 <modo_leitor+0xfc>)
    1356:	4798      	blx	r3
    1358:	4b33      	ldr	r3, [pc, #204]	; (1428 <modo_leitor+0x100>)
    135a:	4798      	blx	r3
    135c:	e7fc      	b.n	1358 <modo_leitor+0x30>
    135e:	47a0      	blx	r4
    1360:	2357      	movs	r3, #87	; 0x57
    1362:	706b      	strb	r3, [r5, #1]
    1364:	4b2c      	ldr	r3, [pc, #176]	; (1418 <modo_leitor+0xf0>)
    1366:	4798      	blx	r3
    1368:	2022      	movs	r0, #34	; 0x22
    136a:	4b2c      	ldr	r3, [pc, #176]	; (141c <modo_leitor+0xf4>)
    136c:	4798      	blx	r3
    136e:	4b2f      	ldr	r3, [pc, #188]	; (142c <modo_leitor+0x104>)
    1370:	4798      	blx	r3
    1372:	4b2c      	ldr	r3, [pc, #176]	; (1424 <modo_leitor+0xfc>)
    1374:	4798      	blx	r3
    1376:	4b2c      	ldr	r3, [pc, #176]	; (1428 <modo_leitor+0x100>)
    1378:	4798      	blx	r3
    137a:	e7fc      	b.n	1376 <modo_leitor+0x4e>
    137c:	47a0      	blx	r4
    137e:	2357      	movs	r3, #87	; 0x57
    1380:	706b      	strb	r3, [r5, #1]
    1382:	4b25      	ldr	r3, [pc, #148]	; (1418 <modo_leitor+0xf0>)
    1384:	4798      	blx	r3
    1386:	2042      	movs	r0, #66	; 0x42
    1388:	4b24      	ldr	r3, [pc, #144]	; (141c <modo_leitor+0xf4>)
    138a:	4798      	blx	r3
    138c:	4b28      	ldr	r3, [pc, #160]	; (1430 <modo_leitor+0x108>)
    138e:	4798      	blx	r3
    1390:	4b24      	ldr	r3, [pc, #144]	; (1424 <modo_leitor+0xfc>)
    1392:	4798      	blx	r3
    1394:	4b24      	ldr	r3, [pc, #144]	; (1428 <modo_leitor+0x100>)
    1396:	4798      	blx	r3
    1398:	e7fc      	b.n	1394 <modo_leitor+0x6c>
    139a:	47a0      	blx	r4
    139c:	2341      	movs	r3, #65	; 0x41
    139e:	706b      	strb	r3, [r5, #1]
    13a0:	4b1d      	ldr	r3, [pc, #116]	; (1418 <modo_leitor+0xf0>)
    13a2:	4798      	blx	r3
    13a4:	201a      	movs	r0, #26
    13a6:	4b1d      	ldr	r3, [pc, #116]	; (141c <modo_leitor+0xf4>)
    13a8:	4798      	blx	r3
    13aa:	4b22      	ldr	r3, [pc, #136]	; (1434 <modo_leitor+0x10c>)
    13ac:	4798      	blx	r3
    13ae:	4b1d      	ldr	r3, [pc, #116]	; (1424 <modo_leitor+0xfc>)
    13b0:	4798      	blx	r3
    13b2:	4b1d      	ldr	r3, [pc, #116]	; (1428 <modo_leitor+0x100>)
    13b4:	4798      	blx	r3
    13b6:	e7fc      	b.n	13b2 <modo_leitor+0x8a>
    13b8:	47a0      	blx	r4
    13ba:	78ab      	ldrb	r3, [r5, #2]
    13bc:	4e1e      	ldr	r6, [pc, #120]	; (1438 <modo_leitor+0x110>)
    13be:	2b22      	cmp	r3, #34	; 0x22
    13c0:	d004      	beq.n	13cc <modo_leitor+0xa4>
    13c2:	47a0      	blx	r4
    13c4:	78ab      	ldrb	r3, [r5, #2]
    13c6:	2b42      	cmp	r3, #66	; 0x42
    13c8:	d000      	beq.n	13cc <modo_leitor+0xa4>
    13ca:	231a      	movs	r3, #26
    13cc:	7033      	strb	r3, [r6, #0]
    13ce:	47a0      	blx	r4
    13d0:	2180      	movs	r1, #128	; 0x80
    13d2:	2280      	movs	r2, #128	; 0x80
    13d4:	786c      	ldrb	r4, [r5, #1]
    13d6:	4819      	ldr	r0, [pc, #100]	; (143c <modo_leitor+0x114>)
    13d8:	4b19      	ldr	r3, [pc, #100]	; (1440 <modo_leitor+0x118>)
    13da:	0049      	lsls	r1, r1, #1
    13dc:	0092      	lsls	r2, r2, #2
    13de:	2c41      	cmp	r4, #65	; 0x41
    13e0:	d000      	beq.n	13e4 <modo_leitor+0xbc>
    13e2:	2457      	movs	r4, #87	; 0x57
    13e4:	7004      	strb	r4, [r0, #0]
    13e6:	6159      	str	r1, [r3, #20]
    13e8:	615a      	str	r2, [r3, #20]
    13ea:	2280      	movs	r2, #128	; 0x80
    13ec:	00d2      	lsls	r2, r2, #3
    13ee:	615a      	str	r2, [r3, #20]
    13f0:	4c10      	ldr	r4, [pc, #64]	; (1434 <modo_leitor+0x10c>)
    13f2:	47a0      	blx	r4
    13f4:	2096      	movs	r0, #150	; 0x96
    13f6:	4b13      	ldr	r3, [pc, #76]	; (1444 <modo_leitor+0x11c>)
    13f8:	0040      	lsls	r0, r0, #1
    13fa:	4798      	blx	r3
    13fc:	4b08      	ldr	r3, [pc, #32]	; (1420 <modo_leitor+0xf8>)
    13fe:	4798      	blx	r3
    1400:	20fa      	movs	r0, #250	; 0xfa
    1402:	4b11      	ldr	r3, [pc, #68]	; (1448 <modo_leitor+0x120>)
    1404:	4798      	blx	r3
    1406:	47a0      	blx	r4
    1408:	bd70      	pop	{r4, r5, r6, pc}
    140a:	46c0      	nop			; (mov r8, r8)
    140c:	0000125d 	.word	0x0000125d
    1410:	00000e89 	.word	0x00000e89
    1414:	20000042 	.word	0x20000042
    1418:	00000ead 	.word	0x00000ead
    141c:	00000ee5 	.word	0x00000ee5
    1420:	00001065 	.word	0x00001065
    1424:	00001041 	.word	0x00001041
    1428:	00000e75 	.word	0x00000e75
    142c:	00001055 	.word	0x00001055
    1430:	00001091 	.word	0x00001091
    1434:	00001075 	.word	0x00001075
    1438:	2000093c 	.word	0x2000093c
    143c:	20000900 	.word	0x20000900
    1440:	41004400 	.word	0x41004400
    1444:	00000295 	.word	0x00000295
    1448:	00001011 	.word	0x00001011

0000144c <ler_tipo_leitor>:
    144c:	b508      	push	{r3, lr}
    144e:	4b06      	ldr	r3, [pc, #24]	; (1468 <ler_tipo_leitor+0x1c>)
    1450:	4798      	blx	r3
    1452:	4b06      	ldr	r3, [pc, #24]	; (146c <ler_tipo_leitor+0x20>)
    1454:	2000      	movs	r0, #0
    1456:	781b      	ldrb	r3, [r3, #0]
    1458:	3b46      	subs	r3, #70	; 0x46
    145a:	b2db      	uxtb	r3, r3
    145c:	2b0a      	cmp	r3, #10
    145e:	d801      	bhi.n	1464 <ler_tipo_leitor+0x18>
    1460:	4a03      	ldr	r2, [pc, #12]	; (1470 <ler_tipo_leitor+0x24>)
    1462:	5cd0      	ldrb	r0, [r2, r3]
    1464:	bd08      	pop	{r3, pc}
    1466:	46c0      	nop			; (mov r8, r8)
    1468:	00000e89 	.word	0x00000e89
    146c:	20000042 	.word	0x20000042
    1470:	000034fe 	.word	0x000034fe

00001474 <go_output_internal>:
    1474:	b570      	push	{r4, r5, r6, lr}
    1476:	4b0d      	ldr	r3, [pc, #52]	; (14ac <go_output_internal+0x38>)
    1478:	1c04      	adds	r4, r0, #0
    147a:	1c0d      	adds	r5, r1, #0
    147c:	1c16      	adds	r6, r2, #0
    147e:	4798      	blx	r3
    1480:	4b0b      	ldr	r3, [pc, #44]	; (14b0 <go_output_internal+0x3c>)
    1482:	781b      	ldrb	r3, [r3, #0]
    1484:	2b41      	cmp	r3, #65	; 0x41
    1486:	d007      	beq.n	1498 <go_output_internal+0x24>
    1488:	2b57      	cmp	r3, #87	; 0x57
    148a:	d109      	bne.n	14a0 <go_output_internal+0x2c>
    148c:	1c20      	adds	r0, r4, #0
    148e:	1c29      	adds	r1, r5, #0
    1490:	1c32      	adds	r2, r6, #0
    1492:	4b08      	ldr	r3, [pc, #32]	; (14b4 <go_output_internal+0x40>)
    1494:	4798      	blx	r3
    1496:	e003      	b.n	14a0 <go_output_internal+0x2c>
    1498:	1c20      	adds	r0, r4, #0
    149a:	1c29      	adds	r1, r5, #0
    149c:	4b06      	ldr	r3, [pc, #24]	; (14b8 <go_output_internal+0x44>)
    149e:	4798      	blx	r3
    14a0:	2032      	movs	r0, #50	; 0x32
    14a2:	4b06      	ldr	r3, [pc, #24]	; (14bc <go_output_internal+0x48>)
    14a4:	4798      	blx	r3
    14a6:	4b06      	ldr	r3, [pc, #24]	; (14c0 <go_output_internal+0x4c>)
    14a8:	4798      	blx	r3
    14aa:	bd70      	pop	{r4, r5, r6, pc}
    14ac:	00001065 	.word	0x00001065
    14b0:	20000900 	.word	0x20000900
    14b4:	00002339 	.word	0x00002339
    14b8:	00000145 	.word	0x00000145
    14bc:	00001011 	.word	0x00001011
    14c0:	00001085 	.word	0x00001085

000014c4 <timeout_timer_init>:
    14c4:	2300      	movs	r3, #0
    14c6:	b500      	push	{lr}
    14c8:	b08f      	sub	sp, #60	; 0x3c
    14ca:	aa01      	add	r2, sp, #4
    14cc:	7013      	strb	r3, [r2, #0]
    14ce:	7093      	strb	r3, [r2, #2]
    14d0:	8113      	strh	r3, [r2, #8]
    14d2:	7053      	strb	r3, [r2, #1]
    14d4:	7293      	strb	r3, [r2, #10]
    14d6:	72d3      	strb	r3, [r2, #11]
    14d8:	7313      	strb	r3, [r2, #12]
    14da:	7393      	strb	r3, [r2, #14]
    14dc:	7413      	strb	r3, [r2, #16]
    14de:	6153      	str	r3, [r2, #20]
    14e0:	6193      	str	r3, [r2, #24]
    14e2:	7713      	strb	r3, [r2, #28]
    14e4:	6213      	str	r3, [r2, #32]
    14e6:	6253      	str	r3, [r2, #36]	; 0x24
    14e8:	8513      	strh	r3, [r2, #40]	; 0x28
    14ea:	8593      	strh	r3, [r2, #44]	; 0x2c
    14ec:	3320      	adds	r3, #32
    14ee:	7193      	strb	r3, [r2, #6]
    14f0:	3b1f      	subs	r3, #31
    14f2:	7353      	strb	r3, [r2, #13]
    14f4:	23e0      	movs	r3, #224	; 0xe0
    14f6:	00db      	lsls	r3, r3, #3
    14f8:	8093      	strh	r3, [r2, #4]
    14fa:	4b04      	ldr	r3, [pc, #16]	; (150c <timeout_timer_init+0x48>)
    14fc:	4904      	ldr	r1, [pc, #16]	; (1510 <timeout_timer_init+0x4c>)
    14fe:	8553      	strh	r3, [r2, #42]	; 0x2a
    1500:	4804      	ldr	r0, [pc, #16]	; (1514 <timeout_timer_init+0x50>)
    1502:	4b05      	ldr	r3, [pc, #20]	; (1518 <timeout_timer_init+0x54>)
    1504:	4798      	blx	r3
    1506:	b00f      	add	sp, #60	; 0x3c
    1508:	bd00      	pop	{pc}
    150a:	46c0      	nop			; (mov r8, r8)
    150c:	000036ed 	.word	0x000036ed
    1510:	42002800 	.word	0x42002800
    1514:	20000084 	.word	0x20000084
    1518:	00000b31 	.word	0x00000b31

0000151c <timeout_timer_start>:
    151c:	2200      	movs	r2, #0
    151e:	4b07      	ldr	r3, [pc, #28]	; (153c <timeout_timer_start+0x20>)
    1520:	821a      	strh	r2, [r3, #16]
    1522:	4a07      	ldr	r2, [pc, #28]	; (1540 <timeout_timer_start+0x24>)
    1524:	831a      	strh	r2, [r3, #24]
    1526:	4b07      	ldr	r3, [pc, #28]	; (1544 <timeout_timer_start+0x28>)
    1528:	681b      	ldr	r3, [r3, #0]
    152a:	7bda      	ldrb	r2, [r3, #15]
    152c:	09d2      	lsrs	r2, r2, #7
    152e:	d1fc      	bne.n	152a <timeout_timer_start+0xe>
    1530:	2102      	movs	r1, #2
    1532:	881a      	ldrh	r2, [r3, #0]
    1534:	430a      	orrs	r2, r1
    1536:	801a      	strh	r2, [r3, #0]
    1538:	4770      	bx	lr
    153a:	46c0      	nop			; (mov r8, r8)
    153c:	42002800 	.word	0x42002800
    1540:	000036ed 	.word	0x000036ed
    1544:	20000084 	.word	0x20000084

00001548 <timeout_timer_stop>:
    1548:	4b04      	ldr	r3, [pc, #16]	; (155c <timeout_timer_stop+0x14>)
    154a:	681b      	ldr	r3, [r3, #0]
    154c:	7bda      	ldrb	r2, [r3, #15]
    154e:	09d2      	lsrs	r2, r2, #7
    1550:	d1fc      	bne.n	154c <timeout_timer_stop+0x4>
    1552:	2102      	movs	r1, #2
    1554:	881a      	ldrh	r2, [r3, #0]
    1556:	438a      	bics	r2, r1
    1558:	801a      	strh	r2, [r3, #0]
    155a:	4770      	bx	lr
    155c:	20000084 	.word	0x20000084

00001560 <go_output>:
    1560:	b5f7      	push	{r0, r1, r2, r4, r5, r6, r7, lr}
    1562:	4b18      	ldr	r3, [pc, #96]	; (15c4 <go_output+0x64>)
    1564:	1c06      	adds	r6, r0, #0
    1566:	681d      	ldr	r5, [r3, #0]
    1568:	1c0f      	adds	r7, r1, #0
    156a:	9201      	str	r2, [sp, #4]
    156c:	4c16      	ldr	r4, [pc, #88]	; (15c8 <go_output+0x68>)
    156e:	2d00      	cmp	r5, #0
    1570:	d10c      	bne.n	158c <go_output+0x2c>
    1572:	2201      	movs	r2, #1
    1574:	601a      	str	r2, [r3, #0]
    1576:	4b15      	ldr	r3, [pc, #84]	; (15cc <go_output+0x6c>)
    1578:	4798      	blx	r3
    157a:	4b15      	ldr	r3, [pc, #84]	; (15d0 <go_output+0x70>)
    157c:	4798      	blx	r3
    157e:	1c30      	adds	r0, r6, #0
    1580:	1c39      	adds	r1, r7, #0
    1582:	9a01      	ldr	r2, [sp, #4]
    1584:	4b13      	ldr	r3, [pc, #76]	; (15d4 <go_output+0x74>)
    1586:	4798      	blx	r3
    1588:	6025      	str	r5, [r4, #0]
    158a:	e01a      	b.n	15c2 <go_output+0x62>
    158c:	4b12      	ldr	r3, [pc, #72]	; (15d8 <go_output+0x78>)
    158e:	8a18      	ldrh	r0, [r3, #16]
    1590:	b280      	uxth	r0, r0
    1592:	2800      	cmp	r0, #0
    1594:	d107      	bne.n	15a6 <go_output+0x46>
    1596:	4b0f      	ldr	r3, [pc, #60]	; (15d4 <go_output+0x74>)
    1598:	1c30      	adds	r0, r6, #0
    159a:	1c39      	adds	r1, r7, #0
    159c:	9a01      	ldr	r2, [sp, #4]
    159e:	4798      	blx	r3
    15a0:	2300      	movs	r3, #0
    15a2:	6023      	str	r3, [r4, #0]
    15a4:	e009      	b.n	15ba <go_output+0x5a>
    15a6:	4b0d      	ldr	r3, [pc, #52]	; (15dc <go_output+0x7c>)
    15a8:	0280      	lsls	r0, r0, #10
    15aa:	490d      	ldr	r1, [pc, #52]	; (15e0 <go_output+0x80>)
    15ac:	4798      	blx	r3
    15ae:	6823      	ldr	r3, [r4, #0]
    15b0:	18c0      	adds	r0, r0, r3
    15b2:	4b0c      	ldr	r3, [pc, #48]	; (15e4 <go_output+0x84>)
    15b4:	6020      	str	r0, [r4, #0]
    15b6:	4298      	cmp	r0, r3
    15b8:	dced      	bgt.n	1596 <go_output+0x36>
    15ba:	4b0b      	ldr	r3, [pc, #44]	; (15e8 <go_output+0x88>)
    15bc:	4798      	blx	r3
    15be:	4b04      	ldr	r3, [pc, #16]	; (15d0 <go_output+0x70>)
    15c0:	4798      	blx	r3
    15c2:	bdf7      	pop	{r0, r1, r2, r4, r5, r6, r7, pc}
    15c4:	200000a4 	.word	0x200000a4
    15c8:	200000a0 	.word	0x200000a0
    15cc:	000014c5 	.word	0x000014c5
    15d0:	0000151d 	.word	0x0000151d
    15d4:	00001475 	.word	0x00001475
    15d8:	42002800 	.word	0x42002800
    15dc:	00002dcd 	.word	0x00002dcd
    15e0:	0000bb80 	.word	0x0000bb80
    15e4:	00000bb7 	.word	0x00000bb7
    15e8:	00001549 	.word	0x00001549

000015ec <M522PcdCmd.constprop.1>:
    15ec:	b5f0      	push	{r4, r5, r6, r7, lr}
    15ee:	2142      	movs	r1, #66	; 0x42
    15f0:	b085      	sub	sp, #20
    15f2:	4d7b      	ldr	r5, [pc, #492]	; (17e0 <M522PcdCmd.constprop.1+0x1f4>)
    15f4:	1c07      	adds	r7, r0, #0
    15f6:	2004      	movs	r0, #4
    15f8:	47a8      	blx	r5
    15fa:	2005      	movs	r0, #5
    15fc:	2100      	movs	r1, #0
    15fe:	47a8      	blx	r5
    1600:	200a      	movs	r0, #10
    1602:	2180      	movs	r1, #128	; 0x80
    1604:	47a8      	blx	r5
    1606:	2001      	movs	r0, #1
    1608:	4c76      	ldr	r4, [pc, #472]	; (17e4 <M522PcdCmd.constprop.1+0x1f8>)
    160a:	47a0      	blx	r4
    160c:	230f      	movs	r3, #15
    160e:	9501      	str	r5, [sp, #4]
    1610:	4398      	bics	r0, r3
    1612:	2f0c      	cmp	r7, #12
    1614:	d104      	bne.n	1620 <M522PcdCmd.constprop.1+0x34>
    1616:	4338      	orrs	r0, r7
    1618:	b2c1      	uxtb	r1, r0
    161a:	1c2b      	adds	r3, r5, #0
    161c:	2001      	movs	r0, #1
    161e:	e002      	b.n	1626 <M522PcdCmd.constprop.1+0x3a>
    1620:	b2c1      	uxtb	r1, r0
    1622:	2001      	movs	r0, #1
    1624:	9b01      	ldr	r3, [sp, #4]
    1626:	4798      	blx	r3
    1628:	4a6f      	ldr	r2, [pc, #444]	; (17e8 <M522PcdCmd.constprop.1+0x1fc>)
    162a:	4b70      	ldr	r3, [pc, #448]	; (17ec <M522PcdCmd.constprop.1+0x200>)
    162c:	601a      	str	r2, [r3, #0]
    162e:	2f0f      	cmp	r7, #15
    1630:	d851      	bhi.n	16d6 <M522PcdCmd.constprop.1+0xea>
    1632:	4b6f      	ldr	r3, [pc, #444]	; (17f0 <M522PcdCmd.constprop.1+0x204>)
    1634:	007a      	lsls	r2, r7, #1
    1636:	5ad5      	ldrh	r5, [r2, r3]
    1638:	4b6e      	ldr	r3, [pc, #440]	; (17f4 <M522PcdCmd.constprop.1+0x208>)
    163a:	5dde      	ldrb	r6, [r3, r7]
    163c:	4b6e      	ldr	r3, [pc, #440]	; (17f8 <M522PcdCmd.constprop.1+0x20c>)
    163e:	5ddb      	ldrb	r3, [r3, r7]
    1640:	9302      	str	r3, [sp, #8]
    1642:	4b6e      	ldr	r3, [pc, #440]	; (17fc <M522PcdCmd.constprop.1+0x210>)
    1644:	5ddb      	ldrb	r3, [r3, r7]
    1646:	9303      	str	r3, [sp, #12]
    1648:	2d00      	cmp	r5, #0
    164a:	d14b      	bne.n	16e4 <M522PcdCmd.constprop.1+0xf8>
    164c:	2002      	movs	r0, #2
    164e:	47a0      	blx	r4
    1650:	4330      	orrs	r0, r6
    1652:	b2c1      	uxtb	r1, r0
    1654:	9b01      	ldr	r3, [sp, #4]
    1656:	2002      	movs	r0, #2
    1658:	4798      	blx	r3
    165a:	2003      	movs	r0, #3
    165c:	47a0      	blx	r4
    165e:	9b01      	ldr	r3, [sp, #4]
    1660:	1c01      	adds	r1, r0, #0
    1662:	2003      	movs	r0, #3
    1664:	4798      	blx	r3
    1666:	4b61      	ldr	r3, [pc, #388]	; (17ec <M522PcdCmd.constprop.1+0x200>)
    1668:	681b      	ldr	r3, [r3, #0]
    166a:	78db      	ldrb	r3, [r3, #3]
    166c:	42ab      	cmp	r3, r5
    166e:	d907      	bls.n	1680 <M522PcdCmd.constprop.1+0x94>
    1670:	4b63      	ldr	r3, [pc, #396]	; (1800 <M522PcdCmd.constprop.1+0x214>)
    1672:	2009      	movs	r0, #9
    1674:	5d59      	ldrb	r1, [r3, r5]
    1676:	9b01      	ldr	r3, [sp, #4]
    1678:	3501      	adds	r5, #1
    167a:	4798      	blx	r3
    167c:	b2ed      	uxtb	r5, r5
    167e:	e7f2      	b.n	1666 <M522PcdCmd.constprop.1+0x7a>
    1680:	2f0c      	cmp	r7, #12
    1682:	d105      	bne.n	1690 <M522PcdCmd.constprop.1+0xa4>
    1684:	200d      	movs	r0, #13
    1686:	2101      	movs	r1, #1
    1688:	2280      	movs	r2, #128	; 0x80
    168a:	4b5e      	ldr	r3, [pc, #376]	; (1804 <M522PcdCmd.constprop.1+0x218>)
    168c:	4798      	blx	r3
    168e:	e00a      	b.n	16a6 <M522PcdCmd.constprop.1+0xba>
    1690:	4b54      	ldr	r3, [pc, #336]	; (17e4 <M522PcdCmd.constprop.1+0x1f8>)
    1692:	2001      	movs	r0, #1
    1694:	4798      	blx	r3
    1696:	230f      	movs	r3, #15
    1698:	1c01      	adds	r1, r0, #0
    169a:	4399      	bics	r1, r3
    169c:	430f      	orrs	r7, r1
    169e:	b2f9      	uxtb	r1, r7
    16a0:	2001      	movs	r0, #1
    16a2:	9b01      	ldr	r3, [sp, #4]
    16a4:	4798      	blx	r3
    16a6:	2702      	movs	r7, #2
    16a8:	2500      	movs	r5, #0
    16aa:	37ff      	adds	r7, #255	; 0xff
    16ac:	9b02      	ldr	r3, [sp, #8]
    16ae:	2b00      	cmp	r3, #0
    16b0:	d00b      	beq.n	16ca <M522PcdCmd.constprop.1+0xde>
    16b2:	422b      	tst	r3, r5
    16b4:	d109      	bne.n	16ca <M522PcdCmd.constprop.1+0xde>
    16b6:	4b4b      	ldr	r3, [pc, #300]	; (17e4 <M522PcdCmd.constprop.1+0x1f8>)
    16b8:	2004      	movs	r0, #4
    16ba:	4798      	blx	r3
    16bc:	3f01      	subs	r7, #1
    16be:	1c05      	adds	r5, r0, #0
    16c0:	4b48      	ldr	r3, [pc, #288]	; (17e4 <M522PcdCmd.constprop.1+0x1f8>)
    16c2:	2005      	movs	r0, #5
    16c4:	4798      	blx	r3
    16c6:	2f00      	cmp	r7, #0
    16c8:	d1f0      	bne.n	16ac <M522PcdCmd.constprop.1+0xc0>
    16ca:	2001      	movs	r0, #1
    16cc:	9b02      	ldr	r3, [sp, #8]
    16ce:	402b      	ands	r3, r5
    16d0:	9302      	str	r3, [sp, #8]
    16d2:	4005      	ands	r5, r0
    16d4:	e006      	b.n	16e4 <M522PcdCmd.constprop.1+0xf8>
    16d6:	2300      	movs	r3, #0
    16d8:	2504      	movs	r5, #4
    16da:	9303      	str	r3, [sp, #12]
    16dc:	1c1e      	adds	r6, r3, #0
    16de:	3342      	adds	r3, #66	; 0x42
    16e0:	9302      	str	r3, [sp, #8]
    16e2:	35ff      	adds	r5, #255	; 0xff
    16e4:	1c32      	adds	r2, r6, #0
    16e6:	2002      	movs	r0, #2
    16e8:	2100      	movs	r1, #0
    16ea:	4e46      	ldr	r6, [pc, #280]	; (1804 <M522PcdCmd.constprop.1+0x218>)
    16ec:	47b0      	blx	r6
    16ee:	2100      	movs	r1, #0
    16f0:	2003      	movs	r0, #3
    16f2:	1c0a      	adds	r2, r1, #0
    16f4:	47b0      	blx	r6
    16f6:	9b03      	ldr	r3, [sp, #12]
    16f8:	2b00      	cmp	r3, #0
    16fa:	d059      	beq.n	17b0 <M522PcdCmd.constprop.1+0x1c4>
    16fc:	2d00      	cmp	r5, #0
    16fe:	d157      	bne.n	17b0 <M522PcdCmd.constprop.1+0x1c4>
    1700:	4e3a      	ldr	r6, [pc, #232]	; (17ec <M522PcdCmd.constprop.1+0x200>)
    1702:	200a      	movs	r0, #10
    1704:	6837      	ldr	r7, [r6, #0]
    1706:	47a0      	blx	r4
    1708:	7138      	strb	r0, [r7, #4]
    170a:	200c      	movs	r0, #12
    170c:	47a0      	blx	r4
    170e:	2307      	movs	r3, #7
    1710:	4018      	ands	r0, r3
    1712:	6833      	ldr	r3, [r6, #0]
    1714:	80d8      	strh	r0, [r3, #6]
    1716:	2006      	movs	r0, #6
    1718:	47a0      	blx	r4
    171a:	1e04      	subs	r4, r0, #0
    171c:	d034      	beq.n	1788 <M522PcdCmd.constprop.1+0x19c>
    171e:	0703      	lsls	r3, r0, #28
    1720:	d403      	bmi.n	172a <M522PcdCmd.constprop.1+0x13e>
    1722:	0783      	lsls	r3, r0, #30
    1724:	d502      	bpl.n	172c <M522PcdCmd.constprop.1+0x140>
    1726:	3503      	adds	r5, #3
    1728:	e000      	b.n	172c <M522PcdCmd.constprop.1+0x140>
    172a:	2506      	movs	r5, #6
    172c:	07e3      	lsls	r3, r4, #31
    172e:	d419      	bmi.n	1764 <M522PcdCmd.constprop.1+0x178>
    1730:	06e3      	lsls	r3, r4, #27
    1732:	d419      	bmi.n	1768 <M522PcdCmd.constprop.1+0x17c>
    1734:	2204      	movs	r2, #4
    1736:	4214      	tst	r4, r2
    1738:	d010      	beq.n	175c <M522PcdCmd.constprop.1+0x170>
    173a:	6833      	ldr	r3, [r6, #0]
    173c:	2502      	movs	r5, #2
    173e:	791f      	ldrb	r7, [r3, #4]
    1740:	2f01      	cmp	r7, #1
    1742:	d112      	bne.n	176a <M522PcdCmd.constprop.1+0x17e>
    1744:	88db      	ldrh	r3, [r3, #6]
    1746:	4393      	bics	r3, r2
    1748:	d10f      	bne.n	176a <M522PcdCmd.constprop.1+0x17e>
    174a:	4b26      	ldr	r3, [pc, #152]	; (17e4 <M522PcdCmd.constprop.1+0x1f8>)
    174c:	2009      	movs	r0, #9
    174e:	4798      	blx	r3
    1750:	4b2b      	ldr	r3, [pc, #172]	; (1800 <M522PcdCmd.constprop.1+0x214>)
    1752:	4d2d      	ldr	r5, [pc, #180]	; (1808 <M522PcdCmd.constprop.1+0x21c>)
    1754:	7018      	strb	r0, [r3, #0]
    1756:	6833      	ldr	r3, [r6, #0]
    1758:	711f      	strb	r7, [r3, #4]
    175a:	e006      	b.n	176a <M522PcdCmd.constprop.1+0x17e>
    175c:	0663      	lsls	r3, r4, #25
    175e:	d504      	bpl.n	176a <M522PcdCmd.constprop.1+0x17e>
    1760:	4d2a      	ldr	r5, [pc, #168]	; (180c <M522PcdCmd.constprop.1+0x220>)
    1762:	e002      	b.n	176a <M522PcdCmd.constprop.1+0x17e>
    1764:	250b      	movs	r5, #11
    1766:	e000      	b.n	176a <M522PcdCmd.constprop.1+0x17e>
    1768:	2509      	movs	r5, #9
    176a:	0623      	lsls	r3, r4, #24
    176c:	d403      	bmi.n	1776 <M522PcdCmd.constprop.1+0x18a>
    176e:	2d00      	cmp	r5, #0
    1770:	d102      	bne.n	1778 <M522PcdCmd.constprop.1+0x18c>
    1772:	250c      	movs	r5, #12
    1774:	e000      	b.n	1778 <M522PcdCmd.constprop.1+0x18c>
    1776:	250d      	movs	r5, #13
    1778:	9b01      	ldr	r3, [sp, #4]
    177a:	2006      	movs	r0, #6
    177c:	2100      	movs	r1, #0
    177e:	4798      	blx	r3
    1780:	4a21      	ldr	r2, [pc, #132]	; (1808 <M522PcdCmd.constprop.1+0x21c>)
    1782:	b22b      	sxth	r3, r5
    1784:	4293      	cmp	r3, r2
    1786:	d013      	beq.n	17b0 <M522PcdCmd.constprop.1+0x1c4>
    1788:	2400      	movs	r4, #0
    178a:	6832      	ldr	r2, [r6, #0]
    178c:	7913      	ldrb	r3, [r2, #4]
    178e:	429c      	cmp	r4, r3
    1790:	d207      	bcs.n	17a2 <M522PcdCmd.constprop.1+0x1b6>
    1792:	4b14      	ldr	r3, [pc, #80]	; (17e4 <M522PcdCmd.constprop.1+0x1f8>)
    1794:	2009      	movs	r0, #9
    1796:	4798      	blx	r3
    1798:	4b19      	ldr	r3, [pc, #100]	; (1800 <M522PcdCmd.constprop.1+0x214>)
    179a:	5518      	strb	r0, [r3, r4]
    179c:	3401      	adds	r4, #1
    179e:	b2e4      	uxtb	r4, r4
    17a0:	e7f3      	b.n	178a <M522PcdCmd.constprop.1+0x19e>
    17a2:	88d1      	ldrh	r1, [r2, #6]
    17a4:	2900      	cmp	r1, #0
    17a6:	d003      	beq.n	17b0 <M522PcdCmd.constprop.1+0x1c4>
    17a8:	2b00      	cmp	r3, #0
    17aa:	d001      	beq.n	17b0 <M522PcdCmd.constprop.1+0x1c4>
    17ac:	3b01      	subs	r3, #1
    17ae:	7113      	strb	r3, [r2, #4]
    17b0:	9902      	ldr	r1, [sp, #8]
    17b2:	9b01      	ldr	r3, [sp, #4]
    17b4:	2004      	movs	r0, #4
    17b6:	4798      	blx	r3
    17b8:	9b01      	ldr	r3, [sp, #4]
    17ba:	2005      	movs	r0, #5
    17bc:	2100      	movs	r1, #0
    17be:	4798      	blx	r3
    17c0:	9b01      	ldr	r3, [sp, #4]
    17c2:	200a      	movs	r0, #10
    17c4:	2180      	movs	r1, #128	; 0x80
    17c6:	4798      	blx	r3
    17c8:	9b01      	ldr	r3, [sp, #4]
    17ca:	2004      	movs	r0, #4
    17cc:	2101      	movs	r1, #1
    17ce:	4798      	blx	r3
    17d0:	200d      	movs	r0, #13
    17d2:	2100      	movs	r1, #0
    17d4:	9b01      	ldr	r3, [sp, #4]
    17d6:	4798      	blx	r3
    17d8:	b228      	sxth	r0, r5
    17da:	b005      	add	sp, #20
    17dc:	bdf0      	pop	{r4, r5, r6, r7, pc}
    17de:	46c0      	nop			; (mov r8, r8)
    17e0:	00001bfd 	.word	0x00001bfd
    17e4:	00001c2d 	.word	0x00001c2d
    17e8:	2000097e 	.word	0x2000097e
    17ec:	200000a8 	.word	0x200000a8
    17f0:	0000350a 	.word	0x0000350a
    17f4:	0000352a 	.word	0x0000352a
    17f8:	0000353a 	.word	0x0000353a
    17fc:	0000354a 	.word	0x0000354a
    1800:	2000093e 	.word	0x2000093e
    1804:	00001c7d 	.word	0x00001c7d
    1808:	00000202 	.word	0x00000202
    180c:	00007e04 	.word	0x00007e04

00001810 <SetTimeOut>:
    1810:	b538      	push	{r3, r4, r5, lr}
    1812:	2164      	movs	r1, #100	; 0x64
    1814:	4b12      	ldr	r3, [pc, #72]	; (1860 <SetTimeOut+0x50>)
    1816:	4798      	blx	r3
    1818:	4b12      	ldr	r3, [pc, #72]	; (1864 <SetTimeOut+0x54>)
    181a:	1e04      	subs	r4, r0, #0
    181c:	429c      	cmp	r4, r3
    181e:	d81a      	bhi.n	1856 <SetTimeOut+0x46>
    1820:	2280      	movs	r2, #128	; 0x80
    1822:	4b11      	ldr	r3, [pc, #68]	; (1868 <SetTimeOut+0x58>)
    1824:	202a      	movs	r0, #42	; 0x2a
    1826:	2101      	movs	r1, #1
    1828:	4798      	blx	r3
    182a:	4d10      	ldr	r5, [pc, #64]	; (186c <SetTimeOut+0x5c>)
    182c:	21a6      	movs	r1, #166	; 0xa6
    182e:	202b      	movs	r0, #43	; 0x2b
    1830:	47a8      	blx	r5
    1832:	4b0f      	ldr	r3, [pc, #60]	; (1870 <SetTimeOut+0x60>)
    1834:	202a      	movs	r0, #42	; 0x2a
    1836:	4798      	blx	r3
    1838:	23f0      	movs	r3, #240	; 0xf0
    183a:	2102      	movs	r1, #2
    183c:	4018      	ands	r0, r3
    183e:	4301      	orrs	r1, r0
    1840:	202a      	movs	r0, #42	; 0x2a
    1842:	47a8      	blx	r5
    1844:	b2e1      	uxtb	r1, r4
    1846:	202d      	movs	r0, #45	; 0x2d
    1848:	0a24      	lsrs	r4, r4, #8
    184a:	47a8      	blx	r5
    184c:	202c      	movs	r0, #44	; 0x2c
    184e:	b2e1      	uxtb	r1, r4
    1850:	47a8      	blx	r5
    1852:	2000      	movs	r0, #0
    1854:	e001      	b.n	185a <SetTimeOut+0x4a>
    1856:	2002      	movs	r0, #2
    1858:	30ff      	adds	r0, #255	; 0xff
    185a:	b200      	sxth	r0, r0
    185c:	bd38      	pop	{r3, r4, r5, pc}
    185e:	46c0      	nop			; (mov r8, r8)
    1860:	00002cad 	.word	0x00002cad
    1864:	00000ffe 	.word	0x00000ffe
    1868:	00001c7d 	.word	0x00001c7d
    186c:	00001bfd 	.word	0x00001bfd
    1870:	00001c2d 	.word	0x00001c2d

00001874 <Rc522Init>:
    1874:	b5f8      	push	{r3, r4, r5, r6, r7, lr}
    1876:	2001      	movs	r0, #1
    1878:	4c2d      	ldr	r4, [pc, #180]	; (1930 <Rc522Init+0xbc>)
    187a:	210f      	movs	r1, #15
    187c:	47a0      	blx	r4
    187e:	2015      	movs	r0, #21
    1880:	2140      	movs	r1, #64	; 0x40
    1882:	47a0      	blx	r4
    1884:	21aa      	movs	r1, #170	; 0xaa
    1886:	202c      	movs	r0, #44	; 0x2c
    1888:	47a0      	blx	r4
    188a:	4e2a      	ldr	r6, [pc, #168]	; (1934 <Rc522Init+0xc0>)
    188c:	202c      	movs	r0, #44	; 0x2c
    188e:	47b0      	blx	r6
    1890:	2008      	movs	r0, #8
    1892:	2100      	movs	r1, #0
    1894:	1c02      	adds	r2, r0, #0
    1896:	4f28      	ldr	r7, [pc, #160]	; (1938 <Rc522Init+0xc4>)
    1898:	47b8      	blx	r7
    189a:	2012      	movs	r0, #18
    189c:	47b0      	blx	r6
    189e:	2508      	movs	r5, #8
    18a0:	1c01      	adds	r1, r0, #0
    18a2:	2380      	movs	r3, #128	; 0x80
    18a4:	4029      	ands	r1, r5
    18a6:	425b      	negs	r3, r3
    18a8:	4319      	orrs	r1, r3
    18aa:	b2c9      	uxtb	r1, r1
    18ac:	2012      	movs	r0, #18
    18ae:	47a0      	blx	r4
    18b0:	2013      	movs	r0, #19
    18b2:	47b0      	blx	r6
    18b4:	2380      	movs	r3, #128	; 0x80
    18b6:	4005      	ands	r5, r0
    18b8:	425b      	negs	r3, r3
    18ba:	431d      	orrs	r5, r3
    18bc:	b2e9      	uxtb	r1, r5
    18be:	2013      	movs	r0, #19
    18c0:	47a0      	blx	r4
    18c2:	2019      	movs	r0, #25
    18c4:	216d      	movs	r1, #109	; 0x6d
    18c6:	47a0      	blx	r4
    18c8:	2026      	movs	r0, #38	; 0x26
    18ca:	2148      	movs	r1, #72	; 0x48
    18cc:	47a0      	blx	r4
    18ce:	2018      	movs	r0, #24
    18d0:	2155      	movs	r1, #85	; 0x55
    18d2:	47a0      	blx	r4
    18d4:	2024      	movs	r0, #36	; 0x24
    18d6:	2126      	movs	r1, #38	; 0x26
    18d8:	47a0      	blx	r4
    18da:	21f4      	movs	r1, #244	; 0xf4
    18dc:	2027      	movs	r0, #39	; 0x27
    18de:	47a0      	blx	r4
    18e0:	4816      	ldr	r0, [pc, #88]	; (193c <Rc522Init+0xc8>)
    18e2:	4d17      	ldr	r5, [pc, #92]	; (1940 <Rc522Init+0xcc>)
    18e4:	47a8      	blx	r5
    18e6:	2014      	movs	r0, #20
    18e8:	2101      	movs	r1, #1
    18ea:	2203      	movs	r2, #3
    18ec:	47b8      	blx	r7
    18ee:	200c      	movs	r0, #12
    18f0:	2101      	movs	r1, #1
    18f2:	2240      	movs	r2, #64	; 0x40
    18f4:	47b8      	blx	r7
    18f6:	2004      	movs	r0, #4
    18f8:	47b0      	blx	r6
    18fa:	2701      	movs	r7, #1
    18fc:	4238      	tst	r0, r7
    18fe:	d0fa      	beq.n	18f6 <Rc522Init+0x82>
    1900:	1c39      	adds	r1, r7, #0
    1902:	2004      	movs	r0, #4
    1904:	47a0      	blx	r4
    1906:	480d      	ldr	r0, [pc, #52]	; (193c <Rc522Init+0xc8>)
    1908:	47a8      	blx	r5
    190a:	200b      	movs	r0, #11
    190c:	211a      	movs	r1, #26
    190e:	47a0      	blx	r4
    1910:	2016      	movs	r0, #22
    1912:	2110      	movs	r1, #16
    1914:	47a0      	blx	r4
    1916:	2017      	movs	r0, #23
    1918:	2187      	movs	r1, #135	; 0x87
    191a:	47a0      	blx	r4
    191c:	1c38      	adds	r0, r7, #0
    191e:	2100      	movs	r1, #0
    1920:	47a0      	blx	r4
    1922:	20fa      	movs	r0, #250	; 0xfa
    1924:	00c0      	lsls	r0, r0, #3
    1926:	47a8      	blx	r5
    1928:	2038      	movs	r0, #56	; 0x38
    192a:	21cd      	movs	r1, #205	; 0xcd
    192c:	47a0      	blx	r4
    192e:	bdf8      	pop	{r3, r4, r5, r6, r7, pc}
    1930:	00001bfd 	.word	0x00001bfd
    1934:	00001c2d 	.word	0x00001c2d
    1938:	00001c7d 	.word	0x00001c7d
    193c:	00001388 	.word	0x00001388
    1940:	00001811 	.word	0x00001811

00001944 <Rc522RFReset>:
    1944:	b510      	push	{r4, lr}
    1946:	1c04      	adds	r4, r0, #0
    1948:	210f      	movs	r1, #15
    194a:	2001      	movs	r0, #1
    194c:	4b03      	ldr	r3, [pc, #12]	; (195c <Rc522RFReset+0x18>)
    194e:	4798      	blx	r3
    1950:	1c20      	adds	r0, r4, #0
    1952:	4b03      	ldr	r3, [pc, #12]	; (1960 <Rc522RFReset+0x1c>)
    1954:	4798      	blx	r3
    1956:	4b03      	ldr	r3, [pc, #12]	; (1964 <Rc522RFReset+0x20>)
    1958:	4798      	blx	r3
    195a:	bd10      	pop	{r4, pc}
    195c:	00001bfd 	.word	0x00001bfd
    1960:	00000295 	.word	0x00000295
    1964:	00001875 	.word	0x00001875

00001968 <Request>:
    1968:	b5f8      	push	{r3, r4, r5, r6, r7, lr}
    196a:	1c05      	adds	r5, r0, #0
    196c:	2008      	movs	r0, #8
    196e:	4c1e      	ldr	r4, [pc, #120]	; (19e8 <Request+0x80>)
    1970:	1c02      	adds	r2, r0, #0
    1972:	1c0f      	adds	r7, r1, #0
    1974:	2100      	movs	r1, #0
    1976:	47a0      	blx	r4
    1978:	4e1c      	ldr	r6, [pc, #112]	; (19ec <Request+0x84>)
    197a:	200e      	movs	r0, #14
    197c:	2180      	movs	r1, #128	; 0x80
    197e:	47b0      	blx	r6
    1980:	2012      	movs	r0, #18
    1982:	2100      	movs	r1, #0
    1984:	2280      	movs	r2, #128	; 0x80
    1986:	47a0      	blx	r4
    1988:	2280      	movs	r2, #128	; 0x80
    198a:	2013      	movs	r0, #19
    198c:	2100      	movs	r1, #0
    198e:	47a0      	blx	r4
    1990:	2107      	movs	r1, #7
    1992:	200d      	movs	r0, #13
    1994:	47b0      	blx	r6
    1996:	4b16      	ldr	r3, [pc, #88]	; (19f0 <Request+0x88>)
    1998:	20c8      	movs	r0, #200	; 0xc8
    199a:	701d      	strb	r5, [r3, #0]
    199c:	2301      	movs	r3, #1
    199e:	2600      	movs	r6, #0
    19a0:	4c14      	ldr	r4, [pc, #80]	; (19f4 <Request+0x8c>)
    19a2:	0040      	lsls	r0, r0, #1
    19a4:	70e3      	strb	r3, [r4, #3]
    19a6:	4b14      	ldr	r3, [pc, #80]	; (19f8 <Request+0x90>)
    19a8:	7026      	strb	r6, [r4, #0]
    19aa:	7066      	strb	r6, [r4, #1]
    19ac:	70a6      	strb	r6, [r4, #2]
    19ae:	7126      	strb	r6, [r4, #4]
    19b0:	80e6      	strh	r6, [r4, #6]
    19b2:	7226      	strb	r6, [r4, #8]
    19b4:	4798      	blx	r3
    19b6:	200c      	movs	r0, #12
    19b8:	4b10      	ldr	r3, [pc, #64]	; (19fc <Request+0x94>)
    19ba:	4798      	blx	r3
    19bc:	b2c5      	uxtb	r5, r0
    19be:	490c      	ldr	r1, [pc, #48]	; (19f0 <Request+0x88>)
    19c0:	42b5      	cmp	r5, r6
    19c2:	d001      	beq.n	19c8 <Request+0x60>
    19c4:	2d06      	cmp	r5, #6
    19c6:	d109      	bne.n	19dc <Request+0x74>
    19c8:	7922      	ldrb	r2, [r4, #4]
    19ca:	2a02      	cmp	r2, #2
    19cc:	d109      	bne.n	19e2 <Request+0x7a>
    19ce:	88e3      	ldrh	r3, [r4, #6]
    19d0:	2b00      	cmp	r3, #0
    19d2:	d106      	bne.n	19e2 <Request+0x7a>
    19d4:	1c38      	adds	r0, r7, #0
    19d6:	4b0a      	ldr	r3, [pc, #40]	; (1a00 <Request+0x98>)
    19d8:	4798      	blx	r3
    19da:	e003      	b.n	19e4 <Request+0x7c>
    19dc:	703e      	strb	r6, [r7, #0]
    19de:	707e      	strb	r6, [r7, #1]
    19e0:	e000      	b.n	19e4 <Request+0x7c>
    19e2:	250b      	movs	r5, #11
    19e4:	b228      	sxth	r0, r5
    19e6:	bdf8      	pop	{r3, r4, r5, r6, r7, pc}
    19e8:	00001c7d 	.word	0x00001c7d
    19ec:	00001bfd 	.word	0x00001bfd
    19f0:	2000093e 	.word	0x2000093e
    19f4:	2000097e 	.word	0x2000097e
    19f8:	00001811 	.word	0x00001811
    19fc:	000015ed 	.word	0x000015ed
    1a00:	000034b1 	.word	0x000034b1

00001a04 <CascAnticoll>:
    1a04:	b5f0      	push	{r4, r5, r6, r7, lr}
    1a06:	2400      	movs	r4, #0
    1a08:	4b4f      	ldr	r3, [pc, #316]	; (1b48 <CascAnticoll+0x144>)
    1a0a:	b085      	sub	sp, #20
    1a0c:	9002      	str	r0, [sp, #8]
    1a0e:	4d4f      	ldr	r5, [pc, #316]	; (1b4c <CascAnticoll+0x148>)
    1a10:	2012      	movs	r0, #18
    1a12:	1c0f      	adds	r7, r1, #0
    1a14:	1c16      	adds	r6, r2, #0
    1a16:	1c21      	adds	r1, r4, #0
    1a18:	2280      	movs	r2, #128	; 0x80
    1a1a:	709c      	strb	r4, [r3, #2]
    1a1c:	70dc      	strb	r4, [r3, #3]
    1a1e:	711c      	strb	r4, [r3, #4]
    1a20:	715c      	strb	r4, [r3, #5]
    1a22:	719c      	strb	r4, [r3, #6]
    1a24:	47a8      	blx	r5
    1a26:	1c21      	adds	r1, r4, #0
    1a28:	2013      	movs	r0, #19
    1a2a:	2280      	movs	r2, #128	; 0x80
    1a2c:	47a8      	blx	r5
    1a2e:	1c21      	adds	r1, r4, #0
    1a30:	4c47      	ldr	r4, [pc, #284]	; (1b50 <CascAnticoll+0x14c>)
    1a32:	200e      	movs	r0, #14
    1a34:	47a0      	blx	r4
    1a36:	9403      	str	r4, [sp, #12]
    1a38:	2f20      	cmp	r7, #32
    1a3a:	d873      	bhi.n	1b24 <CascAnticoll+0x120>
    1a3c:	2507      	movs	r5, #7
    1a3e:	403d      	ands	r5, r7
    1a40:	1c2a      	adds	r2, r5, #0
    1a42:	1e51      	subs	r1, r2, #1
    1a44:	418a      	sbcs	r2, r1
    1a46:	4669      	mov	r1, sp
    1a48:	08fb      	lsrs	r3, r7, #3
    1a4a:	189a      	adds	r2, r3, r2
    1a4c:	7a09      	ldrb	r1, [r1, #8]
    1a4e:	9200      	str	r2, [sp, #0]
    1a50:	4a3d      	ldr	r2, [pc, #244]	; (1b48 <CascAnticoll+0x144>)
    1a52:	011b      	lsls	r3, r3, #4
    1a54:	7011      	strb	r1, [r2, #0]
    1a56:	1c29      	adds	r1, r5, #0
    1a58:	3120      	adds	r1, #32
    1a5a:	18cb      	adds	r3, r1, r3
    1a5c:	7053      	strb	r3, [r2, #1]
    1a5e:	2300      	movs	r3, #0
    1a60:	9900      	ldr	r1, [sp, #0]
    1a62:	b2da      	uxtb	r2, r3
    1a64:	428a      	cmp	r2, r1
    1a66:	d205      	bcs.n	1a74 <CascAnticoll+0x70>
    1a68:	4a37      	ldr	r2, [pc, #220]	; (1b48 <CascAnticoll+0x144>)
    1a6a:	5cf1      	ldrb	r1, [r6, r3]
    1a6c:	189a      	adds	r2, r3, r2
    1a6e:	7091      	strb	r1, [r2, #2]
    1a70:	3301      	adds	r3, #1
    1a72:	e7f5      	b.n	1a60 <CascAnticoll+0x5c>
    1a74:	0129      	lsls	r1, r5, #4
    1a76:	4329      	orrs	r1, r5
    1a78:	200d      	movs	r0, #13
    1a7a:	9b03      	ldr	r3, [sp, #12]
    1a7c:	4798      	blx	r3
    1a7e:	2300      	movs	r3, #0
    1a80:	4c34      	ldr	r4, [pc, #208]	; (1b54 <CascAnticoll+0x150>)
    1a82:	4835      	ldr	r0, [pc, #212]	; (1b58 <CascAnticoll+0x154>)
    1a84:	7023      	strb	r3, [r4, #0]
    1a86:	7063      	strb	r3, [r4, #1]
    1a88:	70a3      	strb	r3, [r4, #2]
    1a8a:	7123      	strb	r3, [r4, #4]
    1a8c:	80e3      	strh	r3, [r4, #6]
    1a8e:	7223      	strb	r3, [r4, #8]
    1a90:	9b00      	ldr	r3, [sp, #0]
    1a92:	3302      	adds	r3, #2
    1a94:	70e3      	strb	r3, [r4, #3]
    1a96:	4b31      	ldr	r3, [pc, #196]	; (1b5c <CascAnticoll+0x158>)
    1a98:	4798      	blx	r3
    1a9a:	200c      	movs	r0, #12
    1a9c:	4b30      	ldr	r3, [pc, #192]	; (1b60 <CascAnticoll+0x15c>)
    1a9e:	4798      	blx	r3
    1aa0:	9001      	str	r0, [sp, #4]
    1aa2:	2806      	cmp	r0, #6
    1aa4:	d001      	beq.n	1aaa <CascAnticoll+0xa6>
    1aa6:	2800      	cmp	r0, #0
    1aa8:	d141      	bne.n	1b2e <CascAnticoll+0x12a>
    1aaa:	7922      	ldrb	r2, [r4, #4]
    1aac:	88e1      	ldrh	r1, [r4, #6]
    1aae:	00d3      	lsls	r3, r2, #3
    1ab0:	185b      	adds	r3, r3, r1
    1ab2:	1b5b      	subs	r3, r3, r5
    1ab4:	b2db      	uxtb	r3, r3
    1ab6:	469c      	mov	ip, r3
    1ab8:	19db      	adds	r3, r3, r7
    1aba:	2b28      	cmp	r3, #40	; 0x28
    1abc:	dc35      	bgt.n	1b2a <CascAnticoll+0x126>
    1abe:	2900      	cmp	r1, #0
    1ac0:	d001      	beq.n	1ac6 <CascAnticoll+0xc2>
    1ac2:	3201      	adds	r2, #1
    1ac4:	7122      	strb	r2, [r4, #4]
    1ac6:	2200      	movs	r2, #0
    1ac8:	4295      	cmp	r5, r2
    1aca:	d008      	beq.n	1ade <CascAnticoll+0xda>
    1acc:	9b00      	ldr	r3, [sp, #0]
    1ace:	4a1e      	ldr	r2, [pc, #120]	; (1b48 <CascAnticoll+0x144>)
    1ad0:	3b01      	subs	r3, #1
    1ad2:	18f3      	adds	r3, r6, r3
    1ad4:	7819      	ldrb	r1, [r3, #0]
    1ad6:	7812      	ldrb	r2, [r2, #0]
    1ad8:	430a      	orrs	r2, r1
    1ada:	701a      	strb	r2, [r3, #0]
    1adc:	2201      	movs	r2, #1
    1ade:	2300      	movs	r3, #0
    1ae0:	2104      	movs	r1, #4
    1ae2:	9c00      	ldr	r4, [sp, #0]
    1ae4:	1b09      	subs	r1, r1, r4
    1ae6:	428b      	cmp	r3, r1
    1ae8:	da08      	bge.n	1afc <CascAnticoll+0xf8>
    1aea:	4917      	ldr	r1, [pc, #92]	; (1b48 <CascAnticoll+0x144>)
    1aec:	9d00      	ldr	r5, [sp, #0]
    1aee:	1889      	adds	r1, r1, r2
    1af0:	5ccc      	ldrb	r4, [r1, r3]
    1af2:	18f1      	adds	r1, r6, r3
    1af4:	3301      	adds	r3, #1
    1af6:	554c      	strb	r4, [r1, r5]
    1af8:	b2db      	uxtb	r3, r3
    1afa:	e7f1      	b.n	1ae0 <CascAnticoll+0xdc>
    1afc:	2806      	cmp	r0, #6
    1afe:	d102      	bne.n	1b06 <CascAnticoll+0x102>
    1b00:	4467      	add	r7, ip
    1b02:	b2ff      	uxtb	r7, r7
    1b04:	e798      	b.n	1a38 <CascAnticoll+0x34>
    1b06:	7831      	ldrb	r1, [r6, #0]
    1b08:	7870      	ldrb	r0, [r6, #1]
    1b0a:	4c0f      	ldr	r4, [pc, #60]	; (1b48 <CascAnticoll+0x144>)
    1b0c:	4048      	eors	r0, r1
    1b0e:	78b1      	ldrb	r1, [r6, #2]
    1b10:	18a2      	adds	r2, r4, r2
    1b12:	4048      	eors	r0, r1
    1b14:	5cd2      	ldrb	r2, [r2, r3]
    1b16:	1c03      	adds	r3, r0, #0
    1b18:	78f1      	ldrb	r1, [r6, #3]
    1b1a:	404b      	eors	r3, r1
    1b1c:	429a      	cmp	r2, r3
    1b1e:	d006      	beq.n	1b2e <CascAnticoll+0x12a>
    1b20:	4b10      	ldr	r3, [pc, #64]	; (1b64 <CascAnticoll+0x160>)
    1b22:	e003      	b.n	1b2c <CascAnticoll+0x128>
    1b24:	2302      	movs	r3, #2
    1b26:	33ff      	adds	r3, #255	; 0xff
    1b28:	e000      	b.n	1b2c <CascAnticoll+0x128>
    1b2a:	2304      	movs	r3, #4
    1b2c:	9301      	str	r3, [sp, #4]
    1b2e:	4c08      	ldr	r4, [pc, #32]	; (1b50 <CascAnticoll+0x14c>)
    1b30:	200d      	movs	r0, #13
    1b32:	2100      	movs	r1, #0
    1b34:	47a0      	blx	r4
    1b36:	200e      	movs	r0, #14
    1b38:	2180      	movs	r1, #128	; 0x80
    1b3a:	47a0      	blx	r4
    1b3c:	466b      	mov	r3, sp
    1b3e:	2004      	movs	r0, #4
    1b40:	5e18      	ldrsh	r0, [r3, r0]
    1b42:	b005      	add	sp, #20
    1b44:	bdf0      	pop	{r4, r5, r6, r7, pc}
    1b46:	46c0      	nop			; (mov r8, r8)
    1b48:	2000093e 	.word	0x2000093e
    1b4c:	00001c7d 	.word	0x00001c7d
    1b50:	00001bfd 	.word	0x00001bfd
    1b54:	2000097e 	.word	0x2000097e
    1b58:	00002710 	.word	0x00002710
    1b5c:	00001811 	.word	0x00001811
    1b60:	000015ed 	.word	0x000015ed
    1b64:	00000501 	.word	0x00000501

00001b68 <Select>:
    1b68:	b5f8      	push	{r3, r4, r5, r6, r7, lr}
    1b6a:	1c05      	adds	r5, r0, #0
    1b6c:	4e1e      	ldr	r6, [pc, #120]	; (1be8 <Select+0x80>)
    1b6e:	2012      	movs	r0, #18
    1b70:	1c0c      	adds	r4, r1, #0
    1b72:	1c17      	adds	r7, r2, #0
    1b74:	2101      	movs	r1, #1
    1b76:	2280      	movs	r2, #128	; 0x80
    1b78:	47b0      	blx	r6
    1b7a:	2013      	movs	r0, #19
    1b7c:	2101      	movs	r1, #1
    1b7e:	2280      	movs	r2, #128	; 0x80
    1b80:	47b0      	blx	r6
    1b82:	4e1a      	ldr	r6, [pc, #104]	; (1bec <Select+0x84>)
    1b84:	2370      	movs	r3, #112	; 0x70
    1b86:	7035      	strb	r5, [r6, #0]
    1b88:	2500      	movs	r5, #0
    1b8a:	7073      	strb	r3, [r6, #1]
    1b8c:	5d62      	ldrb	r2, [r4, r5]
    1b8e:	1973      	adds	r3, r6, r5
    1b90:	3501      	adds	r5, #1
    1b92:	709a      	strb	r2, [r3, #2]
    1b94:	2d04      	cmp	r5, #4
    1b96:	d1f9      	bne.n	1b8c <Select+0x24>
    1b98:	7862      	ldrb	r2, [r4, #1]
    1b9a:	7823      	ldrb	r3, [r4, #0]
    1b9c:	20fa      	movs	r0, #250	; 0xfa
    1b9e:	4053      	eors	r3, r2
    1ba0:	78a2      	ldrb	r2, [r4, #2]
    1ba2:	00c0      	lsls	r0, r0, #3
    1ba4:	4053      	eors	r3, r2
    1ba6:	78e2      	ldrb	r2, [r4, #3]
    1ba8:	4c11      	ldr	r4, [pc, #68]	; (1bf0 <Select+0x88>)
    1baa:	4053      	eors	r3, r2
    1bac:	71b3      	strb	r3, [r6, #6]
    1bae:	2300      	movs	r3, #0
    1bb0:	7023      	strb	r3, [r4, #0]
    1bb2:	7063      	strb	r3, [r4, #1]
    1bb4:	70a3      	strb	r3, [r4, #2]
    1bb6:	7123      	strb	r3, [r4, #4]
    1bb8:	80e3      	strh	r3, [r4, #6]
    1bba:	7223      	strb	r3, [r4, #8]
    1bbc:	3307      	adds	r3, #7
    1bbe:	70e3      	strb	r3, [r4, #3]
    1bc0:	4b0c      	ldr	r3, [pc, #48]	; (1bf4 <Select+0x8c>)
    1bc2:	4798      	blx	r3
    1bc4:	200c      	movs	r0, #12
    1bc6:	4b0c      	ldr	r3, [pc, #48]	; (1bf8 <Select+0x90>)
    1bc8:	4798      	blx	r3
    1bca:	2800      	cmp	r0, #0
    1bcc:	d109      	bne.n	1be2 <Select+0x7a>
    1bce:	7923      	ldrb	r3, [r4, #4]
    1bd0:	2b01      	cmp	r3, #1
    1bd2:	d105      	bne.n	1be0 <Select+0x78>
    1bd4:	88e3      	ldrh	r3, [r4, #6]
    1bd6:	2b00      	cmp	r3, #0
    1bd8:	d102      	bne.n	1be0 <Select+0x78>
    1bda:	7833      	ldrb	r3, [r6, #0]
    1bdc:	703b      	strb	r3, [r7, #0]
    1bde:	e000      	b.n	1be2 <Select+0x7a>
    1be0:	1c28      	adds	r0, r5, #0
    1be2:	b200      	sxth	r0, r0
    1be4:	bdf8      	pop	{r3, r4, r5, r6, r7, pc}
    1be6:	46c0      	nop			; (mov r8, r8)
    1be8:	00001c7d 	.word	0x00001c7d
    1bec:	2000093e 	.word	0x2000093e
    1bf0:	2000097e 	.word	0x2000097e
    1bf4:	00001811 	.word	0x00001811
    1bf8:	000015ed 	.word	0x000015ed

00001bfc <RcSetReg>:
    1bfc:	b51f      	push	{r0, r1, r2, r3, r4, lr}
    1bfe:	466b      	mov	r3, sp
    1c00:	7059      	strb	r1, [r3, #1]
    1c02:	7018      	strb	r0, [r3, #0]
    1c04:	2328      	movs	r3, #40	; 0x28
    1c06:	a901      	add	r1, sp, #4
    1c08:	800b      	strh	r3, [r1, #0]
    1c0a:	466b      	mov	r3, sp
    1c0c:	604b      	str	r3, [r1, #4]
    1c0e:	2302      	movs	r3, #2
    1c10:	804b      	strh	r3, [r1, #2]
    1c12:	2300      	movs	r3, #0
    1c14:	4803      	ldr	r0, [pc, #12]	; (1c24 <RcSetReg+0x28>)
    1c16:	720b      	strb	r3, [r1, #8]
    1c18:	724b      	strb	r3, [r1, #9]
    1c1a:	4b03      	ldr	r3, [pc, #12]	; (1c28 <RcSetReg+0x2c>)
    1c1c:	4798      	blx	r3
    1c1e:	b005      	add	sp, #20
    1c20:	bd00      	pop	{pc}
    1c22:	46c0      	nop			; (mov r8, r8)
    1c24:	20000988 	.word	0x20000988
    1c28:	000005fd 	.word	0x000005fd

00001c2c <RcGetReg>:
    1c2c:	b570      	push	{r4, r5, r6, lr}
    1c2e:	b08a      	sub	sp, #40	; 0x28
    1c30:	466b      	mov	r3, sp
    1c32:	a904      	add	r1, sp, #16
    1c34:	71d8      	strb	r0, [r3, #7]
    1c36:	3307      	adds	r3, #7
    1c38:	2028      	movs	r0, #40	; 0x28
    1c3a:	604b      	str	r3, [r1, #4]
    1c3c:	250f      	movs	r5, #15
    1c3e:	2300      	movs	r3, #0
    1c40:	2201      	movs	r2, #1
    1c42:	4e0b      	ldr	r6, [pc, #44]	; (1c70 <RcGetReg+0x44>)
    1c44:	ac07      	add	r4, sp, #28
    1c46:	8008      	strh	r0, [r1, #0]
    1c48:	720b      	strb	r3, [r1, #8]
    1c4a:	724b      	strb	r3, [r1, #9]
    1c4c:	8020      	strh	r0, [r4, #0]
    1c4e:	446d      	add	r5, sp
    1c50:	7223      	strb	r3, [r4, #8]
    1c52:	7263      	strb	r3, [r4, #9]
    1c54:	1c30      	adds	r0, r6, #0
    1c56:	4b07      	ldr	r3, [pc, #28]	; (1c74 <RcGetReg+0x48>)
    1c58:	804a      	strh	r2, [r1, #2]
    1c5a:	8062      	strh	r2, [r4, #2]
    1c5c:	9508      	str	r5, [sp, #32]
    1c5e:	4798      	blx	r3
    1c60:	1c30      	adds	r0, r6, #0
    1c62:	1c21      	adds	r1, r4, #0
    1c64:	4b04      	ldr	r3, [pc, #16]	; (1c78 <RcGetReg+0x4c>)
    1c66:	4798      	blx	r3
    1c68:	7828      	ldrb	r0, [r5, #0]
    1c6a:	b00a      	add	sp, #40	; 0x28
    1c6c:	bd70      	pop	{r4, r5, r6, pc}
    1c6e:	46c0      	nop			; (mov r8, r8)
    1c70:	20000988 	.word	0x20000988
    1c74:	000005fd 	.word	0x000005fd
    1c78:	000005e9 	.word	0x000005e9

00001c7c <RcModifyReg>:
    1c7c:	b570      	push	{r4, r5, r6, lr}
    1c7e:	4b08      	ldr	r3, [pc, #32]	; (1ca0 <RcModifyReg+0x24>)
    1c80:	1c0e      	adds	r6, r1, #0
    1c82:	1c14      	adds	r4, r2, #0
    1c84:	1c05      	adds	r5, r0, #0
    1c86:	4798      	blx	r3
    1c88:	1c03      	adds	r3, r0, #0
    1c8a:	43a3      	bics	r3, r4
    1c8c:	b2d9      	uxtb	r1, r3
    1c8e:	2e00      	cmp	r6, #0
    1c90:	d001      	beq.n	1c96 <RcModifyReg+0x1a>
    1c92:	4304      	orrs	r4, r0
    1c94:	b2e1      	uxtb	r1, r4
    1c96:	1c28      	adds	r0, r5, #0
    1c98:	4b02      	ldr	r3, [pc, #8]	; (1ca4 <RcModifyReg+0x28>)
    1c9a:	4798      	blx	r3
    1c9c:	bd70      	pop	{r4, r5, r6, pc}
    1c9e:	46c0      	nop			; (mov r8, r8)
    1ca0:	00001c2d 	.word	0x00001c2d
    1ca4:	00001bfd 	.word	0x00001bfd

00001ca8 <count_ones>:
    1ca8:	4b09      	ldr	r3, [pc, #36]	; (1cd0 <count_ones+0x28>)
    1caa:	0842      	lsrs	r2, r0, #1
    1cac:	4013      	ands	r3, r2
    1cae:	1ac0      	subs	r0, r0, r3
    1cb0:	1c02      	adds	r2, r0, #0
    1cb2:	4b08      	ldr	r3, [pc, #32]	; (1cd4 <count_ones+0x2c>)
    1cb4:	0880      	lsrs	r0, r0, #2
    1cb6:	401a      	ands	r2, r3
    1cb8:	4018      	ands	r0, r3
    1cba:	1880      	adds	r0, r0, r2
    1cbc:	0903      	lsrs	r3, r0, #4
    1cbe:	4a06      	ldr	r2, [pc, #24]	; (1cd8 <count_ones+0x30>)
    1cc0:	181b      	adds	r3, r3, r0
    1cc2:	4013      	ands	r3, r2
    1cc4:	0218      	lsls	r0, r3, #8
    1cc6:	18c3      	adds	r3, r0, r3
    1cc8:	0418      	lsls	r0, r3, #16
    1cca:	1818      	adds	r0, r3, r0
    1ccc:	0e00      	lsrs	r0, r0, #24
    1cce:	4770      	bx	lr
    1cd0:	55555555 	.word	0x55555555
    1cd4:	33333333 	.word	0x33333333
    1cd8:	0f0f0f0f 	.word	0x0f0f0f0f

00001cdc <TC0_callback>:
    1cdc:	2101      	movs	r1, #1
    1cde:	b530      	push	{r4, r5, lr}
    1ce0:	4b12      	ldr	r3, [pc, #72]	; (1d2c <TC0_callback+0x50>)
    1ce2:	4c13      	ldr	r4, [pc, #76]	; (1d30 <TC0_callback+0x54>)
    1ce4:	6a18      	ldr	r0, [r3, #32]
    1ce6:	4b13      	ldr	r3, [pc, #76]	; (1d34 <TC0_callback+0x58>)
    1ce8:	4008      	ands	r0, r1
    1cea:	881d      	ldrh	r5, [r3, #0]
    1cec:	4a12      	ldr	r2, [pc, #72]	; (1d38 <TC0_callback+0x5c>)
    1cee:	42a5      	cmp	r5, r4
    1cf0:	d90b      	bls.n	1d0a <TC0_callback+0x2e>
    1cf2:	4c12      	ldr	r4, [pc, #72]	; (1d3c <TC0_callback+0x60>)
    1cf4:	7021      	strb	r1, [r4, #0]
    1cf6:	2400      	movs	r4, #0
    1cf8:	801c      	strh	r4, [r3, #0]
    1cfa:	7811      	ldrb	r1, [r2, #0]
    1cfc:	3101      	adds	r1, #1
    1cfe:	b2c9      	uxtb	r1, r1
    1d00:	7011      	strb	r1, [r2, #0]
    1d02:	7811      	ldrb	r1, [r2, #0]
    1d04:	2901      	cmp	r1, #1
    1d06:	d900      	bls.n	1d0a <TC0_callback+0x2e>
    1d08:	7014      	strb	r4, [r2, #0]
    1d0a:	2101      	movs	r1, #1
    1d0c:	7815      	ldrb	r5, [r2, #0]
    1d0e:	881a      	ldrh	r2, [r3, #0]
    1d10:	881c      	ldrh	r4, [r3, #0]
    1d12:	4011      	ands	r1, r2
    1d14:	006a      	lsls	r2, r5, #1
    1d16:	1852      	adds	r2, r2, r1
    1d18:	0864      	lsrs	r4, r4, #1
    1d1a:	4909      	ldr	r1, [pc, #36]	; (1d40 <TC0_callback+0x64>)
    1d1c:	0252      	lsls	r2, r2, #9
    1d1e:	1912      	adds	r2, r2, r4
    1d20:	5450      	strb	r0, [r2, r1]
    1d22:	881a      	ldrh	r2, [r3, #0]
    1d24:	3201      	adds	r2, #1
    1d26:	b292      	uxth	r2, r2
    1d28:	801a      	strh	r2, [r3, #0]
    1d2a:	bd30      	pop	{r4, r5, pc}
    1d2c:	41004400 	.word	0x41004400
    1d30:	000003ff 	.word	0x000003ff
    1d34:	200008ae 	.word	0x200008ae
    1d38:	200000ad 	.word	0x200000ad
    1d3c:	200000ac 	.word	0x200000ac
    1d40:	200000ae 	.word	0x200000ae

00001d44 <Init_Timer>:
    1d44:	2300      	movs	r3, #0
    1d46:	b500      	push	{lr}
    1d48:	b08f      	sub	sp, #60	; 0x3c
    1d4a:	aa01      	add	r2, sp, #4
    1d4c:	7093      	strb	r3, [r2, #2]
    1d4e:	8093      	strh	r3, [r2, #4]
    1d50:	8113      	strh	r3, [r2, #8]
    1d52:	7053      	strb	r3, [r2, #1]
    1d54:	7293      	strb	r3, [r2, #10]
    1d56:	72d3      	strb	r3, [r2, #11]
    1d58:	7313      	strb	r3, [r2, #12]
    1d5a:	7393      	strb	r3, [r2, #14]
    1d5c:	7353      	strb	r3, [r2, #13]
    1d5e:	7413      	strb	r3, [r2, #16]
    1d60:	6153      	str	r3, [r2, #20]
    1d62:	6193      	str	r3, [r2, #24]
    1d64:	7713      	strb	r3, [r2, #28]
    1d66:	6213      	str	r3, [r2, #32]
    1d68:	6253      	str	r3, [r2, #36]	; 0x24
    1d6a:	8513      	strh	r3, [r2, #40]	; 0x28
    1d6c:	8593      	strh	r3, [r2, #44]	; 0x2c
    1d6e:	3320      	adds	r3, #32
    1d70:	7193      	strb	r3, [r2, #6]
    1d72:	3b1d      	subs	r3, #29
    1d74:	7013      	strb	r3, [r2, #0]
    1d76:	4b04      	ldr	r3, [pc, #16]	; (1d88 <Init_Timer+0x44>)
    1d78:	4904      	ldr	r1, [pc, #16]	; (1d8c <Init_Timer+0x48>)
    1d7a:	8553      	strh	r3, [r2, #42]	; 0x2a
    1d7c:	4804      	ldr	r0, [pc, #16]	; (1d90 <Init_Timer+0x4c>)
    1d7e:	4b05      	ldr	r3, [pc, #20]	; (1d94 <Init_Timer+0x50>)
    1d80:	4798      	blx	r3
    1d82:	b00f      	add	sp, #60	; 0x3c
    1d84:	bd00      	pop	{pc}
    1d86:	46c0      	nop			; (mov r8, r8)
    1d88:	000003ff 	.word	0x000003ff
    1d8c:	42002000 	.word	0x42002000
    1d90:	200008b0 	.word	0x200008b0
    1d94:	00000b31 	.word	0x00000b31

00001d98 <ASK_Run>:
    1d98:	2000      	movs	r0, #0
    1d9a:	2100      	movs	r1, #0
    1d9c:	2300      	movs	r3, #0
    1d9e:	b5f0      	push	{r4, r5, r6, r7, lr}
    1da0:	b09b      	sub	sp, #108	; 0x6c
    1da2:	900e      	str	r0, [sp, #56]	; 0x38
    1da4:	910f      	str	r1, [sp, #60]	; 0x3c
    1da6:	9012      	str	r0, [sp, #72]	; 0x48
    1da8:	9113      	str	r1, [sp, #76]	; 0x4c
    1daa:	9016      	str	r0, [sp, #88]	; 0x58
    1dac:	9117      	str	r1, [sp, #92]	; 0x5c
    1dae:	9010      	str	r0, [sp, #64]	; 0x40
    1db0:	9111      	str	r1, [sp, #68]	; 0x44
    1db2:	9014      	str	r0, [sp, #80]	; 0x50
    1db4:	9115      	str	r1, [sp, #84]	; 0x54
    1db6:	9018      	str	r0, [sp, #96]	; 0x60
    1db8:	9119      	str	r1, [sp, #100]	; 0x64
    1dba:	aa09      	add	r2, sp, #36	; 0x24
    1dbc:	930a      	str	r3, [sp, #40]	; 0x28
    1dbe:	7013      	strb	r3, [r2, #0]
    1dc0:	930c      	str	r3, [sp, #48]	; 0x30
    1dc2:	930b      	str	r3, [sp, #44]	; 0x2c
    1dc4:	7053      	strb	r3, [r2, #1]
    1dc6:	930d      	str	r3, [sp, #52]	; 0x34
    1dc8:	4c9b      	ldr	r4, [pc, #620]	; (2038 <ASK_Run+0x2a0>)
    1dca:	47a0      	blx	r4
    1dcc:	4e9b      	ldr	r6, [pc, #620]	; (203c <ASK_Run+0x2a4>)
    1dce:	7833      	ldrb	r3, [r6, #0]
    1dd0:	2b00      	cmp	r3, #0
    1dd2:	d0fb      	beq.n	1dcc <ASK_Run+0x34>
    1dd4:	2500      	movs	r5, #0
    1dd6:	47a0      	blx	r4
    1dd8:	1c2c      	adds	r4, r5, #0
    1dda:	ab09      	add	r3, sp, #36	; 0x24
    1ddc:	7035      	strb	r5, [r6, #0]
    1dde:	9300      	str	r3, [sp, #0]
    1de0:	4a97      	ldr	r2, [pc, #604]	; (2040 <ASK_Run+0x2a8>)
    1de2:	01a3      	lsls	r3, r4, #6
    1de4:	18d3      	adds	r3, r2, r3
    1de6:	9307      	str	r3, [sp, #28]
    1de8:	2300      	movs	r3, #0
    1dea:	9303      	str	r3, [sp, #12]
    1dec:	4b95      	ldr	r3, [pc, #596]	; (2044 <ASK_Run+0x2ac>)
    1dee:	781b      	ldrb	r3, [r3, #0]
    1df0:	b2db      	uxtb	r3, r3
    1df2:	2b00      	cmp	r3, #0
    1df4:	d109      	bne.n	1e0a <ASK_Run+0x72>
    1df6:	2080      	movs	r0, #128	; 0x80
    1df8:	9903      	ldr	r1, [sp, #12]
    1dfa:	00c0      	lsls	r0, r0, #3
    1dfc:	1809      	adds	r1, r1, r0
    1dfe:	9807      	ldr	r0, [sp, #28]
    1e00:	aa16      	add	r2, sp, #88	; 0x58
    1e02:	5c41      	ldrb	r1, [r0, r1]
    1e04:	1912      	adds	r2, r2, r4
    1e06:	c20a      	stmia	r2!, {r1, r3}
    1e08:	e007      	b.n	1e1a <ASK_Run+0x82>
    1e0a:	9a07      	ldr	r2, [sp, #28]
    1e0c:	9903      	ldr	r1, [sp, #12]
    1e0e:	ab16      	add	r3, sp, #88	; 0x58
    1e10:	5c52      	ldrb	r2, [r2, r1]
    1e12:	191b      	adds	r3, r3, r4
    1e14:	601a      	str	r2, [r3, #0]
    1e16:	2200      	movs	r2, #0
    1e18:	605a      	str	r2, [r3, #4]
    1e1a:	9b00      	ldr	r3, [sp, #0]
    1e1c:	7818      	ldrb	r0, [r3, #0]
    1e1e:	2803      	cmp	r0, #3
    1e20:	d900      	bls.n	1e24 <ASK_Run+0x8c>
    1e22:	e0ec      	b.n	1ffe <ASK_Run+0x266>
    1e24:	f000 ff38 	bl	2c98 <__gnu_thumb1_case_uqi>
    1e28:	4f511202 	.word	0x4f511202
    1e2c:	ab16      	add	r3, sp, #88	; 0x58
    1e2e:	191a      	adds	r2, r3, r4
    1e30:	6813      	ldr	r3, [r2, #0]
    1e32:	6852      	ldr	r2, [r2, #4]
    1e34:	4313      	orrs	r3, r2
    1e36:	d000      	beq.n	1e3a <ASK_Run+0xa2>
    1e38:	e0e4      	b.n	2004 <ASK_Run+0x26c>
    1e3a:	ab12      	add	r3, sp, #72	; 0x48
    1e3c:	191a      	adds	r2, r3, r4
    1e3e:	6813      	ldr	r3, [r2, #0]
    1e40:	6852      	ldr	r2, [r2, #4]
    1e42:	4313      	orrs	r3, r2
    1e44:	d000      	beq.n	1e48 <ASK_Run+0xb0>
    1e46:	e0dd      	b.n	2004 <ASK_Run+0x26c>
    1e48:	3301      	adds	r3, #1
    1e4a:	e0d9      	b.n	2000 <ASK_Run+0x268>
    1e4c:	ab16      	add	r3, sp, #88	; 0x58
    1e4e:	1919      	adds	r1, r3, r4
    1e50:	ab12      	add	r3, sp, #72	; 0x48
    1e52:	191b      	adds	r3, r3, r4
    1e54:	6808      	ldr	r0, [r1, #0]
    1e56:	681e      	ldr	r6, [r3, #0]
    1e58:	aa0a      	add	r2, sp, #40	; 0x28
    1e5a:	42b0      	cmp	r0, r6
    1e5c:	d103      	bne.n	1e66 <ASK_Run+0xce>
    1e5e:	6849      	ldr	r1, [r1, #4]
    1e60:	685b      	ldr	r3, [r3, #4]
    1e62:	4299      	cmp	r1, r3
    1e64:	d003      	beq.n	1e6e <ASK_Run+0xd6>
    1e66:	5953      	ldr	r3, [r2, r5]
    1e68:	3301      	adds	r3, #1
    1e6a:	5153      	str	r3, [r2, r5]
    1e6c:	e0ca      	b.n	2004 <ASK_Run+0x26c>
    1e6e:	5951      	ldr	r1, [r2, r5]
    1e70:	2910      	cmp	r1, #16
    1e72:	dd24      	ble.n	1ebe <ASK_Run+0x126>
    1e74:	2000      	movs	r0, #0
    1e76:	ab0e      	add	r3, sp, #56	; 0x38
    1e78:	191e      	adds	r6, r3, r4
    1e7a:	2200      	movs	r2, #0
    1e7c:	2300      	movs	r3, #0
    1e7e:	1c07      	adds	r7, r0, #0
    1e80:	6032      	str	r2, [r6, #0]
    1e82:	6073      	str	r3, [r6, #4]
    1e84:	3101      	adds	r1, #1
    1e86:	ab0c      	add	r3, sp, #48	; 0x30
    1e88:	50e8      	str	r0, [r5, r3]
    1e8a:	104b      	asrs	r3, r1, #1
    1e8c:	9301      	str	r3, [sp, #4]
    1e8e:	9b01      	ldr	r3, [sp, #4]
    1e90:	429f      	cmp	r7, r3
    1e92:	da11      	bge.n	1eb8 <ASK_Run+0x120>
    1e94:	ab0c      	add	r3, sp, #48	; 0x30
    1e96:	58ea      	ldr	r2, [r5, r3]
    1e98:	3201      	adds	r2, #1
    1e9a:	50ea      	str	r2, [r5, r3]
    1e9c:	6832      	ldr	r2, [r6, #0]
    1e9e:	6873      	ldr	r3, [r6, #4]
    1ea0:	1c10      	adds	r0, r2, #0
    1ea2:	1c19      	adds	r1, r3, #0
    1ea4:	1880      	adds	r0, r0, r2
    1ea6:	4159      	adcs	r1, r3
    1ea8:	2301      	movs	r3, #1
    1eaa:	1c02      	adds	r2, r0, #0
    1eac:	469c      	mov	ip, r3
    1eae:	431a      	orrs	r2, r3
    1eb0:	6032      	str	r2, [r6, #0]
    1eb2:	6071      	str	r1, [r6, #4]
    1eb4:	4467      	add	r7, ip
    1eb6:	e7ea      	b.n	1e8e <ASK_Run+0xf6>
    1eb8:	2302      	movs	r3, #2
    1eba:	9a00      	ldr	r2, [sp, #0]
    1ebc:	7013      	strb	r3, [r2, #0]
    1ebe:	2200      	movs	r2, #0
    1ec0:	ab0a      	add	r3, sp, #40	; 0x28
    1ec2:	50ea      	str	r2, [r5, r3]
    1ec4:	e09e      	b.n	2004 <ASK_Run+0x26c>
    1ec6:	2302      	movs	r3, #2
    1ec8:	e09a      	b.n	2000 <ASK_Run+0x268>
    1eca:	ab16      	add	r3, sp, #88	; 0x58
    1ecc:	191b      	adds	r3, r3, r4
    1ece:	cb41      	ldmia	r3!, {r0, r6}
    1ed0:	ab12      	add	r3, sp, #72	; 0x48
    1ed2:	191b      	adds	r3, r3, r4
    1ed4:	681a      	ldr	r2, [r3, #0]
    1ed6:	4282      	cmp	r2, r0
    1ed8:	d103      	bne.n	1ee2 <ASK_Run+0x14a>
    1eda:	685b      	ldr	r3, [r3, #4]
    1edc:	42b3      	cmp	r3, r6
    1ede:	d100      	bne.n	1ee2 <ASK_Run+0x14a>
    1ee0:	e08d      	b.n	1ffe <ASK_Run+0x266>
    1ee2:	ab0e      	add	r3, sp, #56	; 0x38
    1ee4:	1919      	adds	r1, r3, r4
    1ee6:	680a      	ldr	r2, [r1, #0]
    1ee8:	684b      	ldr	r3, [r1, #4]
    1eea:	1892      	adds	r2, r2, r2
    1eec:	415b      	adcs	r3, r3
    1eee:	2801      	cmp	r0, #1
    1ef0:	d101      	bne.n	1ef6 <ASK_Run+0x15e>
    1ef2:	2e00      	cmp	r6, #0
    1ef4:	d001      	beq.n	1efa <ASK_Run+0x162>
    1ef6:	600a      	str	r2, [r1, #0]
    1ef8:	e001      	b.n	1efe <ASK_Run+0x166>
    1efa:	4310      	orrs	r0, r2
    1efc:	6008      	str	r0, [r1, #0]
    1efe:	604b      	str	r3, [r1, #4]
    1f00:	2303      	movs	r3, #3
    1f02:	9a00      	ldr	r2, [sp, #0]
    1f04:	7013      	strb	r3, [r2, #0]
    1f06:	aa0c      	add	r2, sp, #48	; 0x30
    1f08:	58ab      	ldr	r3, [r5, r2]
    1f0a:	3301      	adds	r3, #1
    1f0c:	50ab      	str	r3, [r5, r2]
    1f0e:	2b40      	cmp	r3, #64	; 0x40
    1f10:	d178      	bne.n	2004 <ASK_Run+0x26c>
    1f12:	680b      	ldr	r3, [r1, #0]
    1f14:	9301      	str	r3, [sp, #4]
    1f16:	684b      	ldr	r3, [r1, #4]
    1f18:	210a      	movs	r1, #10
    1f1a:	06da      	lsls	r2, r3, #27
    1f1c:	9302      	str	r3, [sp, #8]
    1f1e:	9b01      	ldr	r3, [sp, #4]
    1f20:	095b      	lsrs	r3, r3, #5
    1f22:	4313      	orrs	r3, r2
    1f24:	9a02      	ldr	r2, [sp, #8]
    1f26:	0950      	lsrs	r0, r2, #5
    1f28:	221f      	movs	r2, #31
    1f2a:	4e47      	ldr	r6, [pc, #284]	; (2048 <ASK_Run+0x2b0>)
    1f2c:	401a      	ands	r2, r3
    1f2e:	0092      	lsls	r2, r2, #2
    1f30:	5992      	ldr	r2, [r2, r6]
    1f32:	2a00      	cmp	r2, #0
    1f34:	d063      	beq.n	1ffe <ASK_Run+0x266>
    1f36:	06c2      	lsls	r2, r0, #27
    1f38:	095b      	lsrs	r3, r3, #5
    1f3a:	3901      	subs	r1, #1
    1f3c:	4313      	orrs	r3, r2
    1f3e:	0940      	lsrs	r0, r0, #5
    1f40:	2900      	cmp	r1, #0
    1f42:	d1f1      	bne.n	1f28 <ASK_Run+0x190>
    1f44:	2304      	movs	r3, #4
    1f46:	4a41      	ldr	r2, [pc, #260]	; (204c <ASK_Run+0x2b4>)
    1f48:	9306      	str	r3, [sp, #24]
    1f4a:	4b41      	ldr	r3, [pc, #260]	; (2050 <ASK_Run+0x2b8>)
    1f4c:	9204      	str	r2, [sp, #16]
    1f4e:	9305      	str	r3, [sp, #20]
    1f50:	9b05      	ldr	r3, [sp, #20]
    1f52:	9802      	ldr	r0, [sp, #8]
    1f54:	4e3f      	ldr	r6, [pc, #252]	; (2054 <ASK_Run+0x2bc>)
    1f56:	4018      	ands	r0, r3
    1f58:	47b0      	blx	r6
    1f5a:	9b04      	ldr	r3, [sp, #16]
    1f5c:	1c07      	adds	r7, r0, #0
    1f5e:	9801      	ldr	r0, [sp, #4]
    1f60:	4018      	ands	r0, r3
    1f62:	47b0      	blx	r6
    1f64:	2301      	movs	r3, #1
    1f66:	183a      	adds	r2, r7, r0
    1f68:	421a      	tst	r2, r3
    1f6a:	d148      	bne.n	1ffe <ASK_Run+0x266>
    1f6c:	9904      	ldr	r1, [sp, #16]
    1f6e:	9a05      	ldr	r2, [sp, #20]
    1f70:	1c0e      	adds	r6, r1, #0
    1f72:	1c17      	adds	r7, r2, #0
    1f74:	1989      	adds	r1, r1, r6
    1f76:	417a      	adcs	r2, r7
    1f78:	9104      	str	r1, [sp, #16]
    1f7a:	9205      	str	r2, [sp, #20]
    1f7c:	9a06      	ldr	r2, [sp, #24]
    1f7e:	3a01      	subs	r2, #1
    1f80:	9206      	str	r2, [sp, #24]
    1f82:	2a00      	cmp	r2, #0
    1f84:	d1e4      	bne.n	1f50 <ASK_Run+0x1b8>
    1f86:	9a01      	ldr	r2, [sp, #4]
    1f88:	421a      	tst	r2, r3
    1f8a:	d138      	bne.n	1ffe <ASK_Run+0x266>
    1f8c:	9b02      	ldr	r3, [sp, #8]
    1f8e:	025b      	lsls	r3, r3, #9
    1f90:	0a5b      	lsrs	r3, r3, #9
    1f92:	4313      	orrs	r3, r2
    1f94:	d033      	beq.n	1ffe <ASK_Run+0x266>
    1f96:	9b02      	ldr	r3, [sp, #8]
    1f98:	0d50      	lsrs	r0, r2, #21
    1f9a:	02db      	lsls	r3, r3, #11
    1f9c:	4318      	orrs	r0, r3
    1f9e:	0300      	lsls	r0, r0, #12
    1fa0:	0996      	lsrs	r6, r2, #6
    1fa2:	220f      	movs	r2, #15
    1fa4:	1c01      	adds	r1, r0, #0
    1fa6:	9b02      	ldr	r3, [sp, #8]
    1fa8:	9801      	ldr	r0, [sp, #4]
    1faa:	069b      	lsls	r3, r3, #26
    1fac:	431e      	orrs	r6, r3
    1fae:	4016      	ands	r6, r2
    1fb0:	4331      	orrs	r1, r6
    1fb2:	0ac6      	lsrs	r6, r0, #11
    1fb4:	20ff      	movs	r0, #255	; 0xff
    1fb6:	9b02      	ldr	r3, [sp, #8]
    1fb8:	055b      	lsls	r3, r3, #21
    1fba:	431e      	orrs	r6, r3
    1fbc:	0136      	lsls	r6, r6, #4
    1fbe:	9b02      	ldr	r3, [sp, #8]
    1fc0:	4030      	ands	r0, r6
    1fc2:	4308      	orrs	r0, r1
    1fc4:	0419      	lsls	r1, r3, #16
    1fc6:	9b01      	ldr	r3, [sp, #4]
    1fc8:	0c1b      	lsrs	r3, r3, #16
    1fca:	430b      	orrs	r3, r1
    1fcc:	4013      	ands	r3, r2
    1fce:	021b      	lsls	r3, r3, #8
    1fd0:	4318      	orrs	r0, r3
    1fd2:	b281      	uxth	r1, r0
    1fd4:	9b02      	ldr	r3, [sp, #8]
    1fd6:	9801      	ldr	r0, [sp, #4]
    1fd8:	005b      	lsls	r3, r3, #1
    1fda:	0fc0      	lsrs	r0, r0, #31
    1fdc:	4318      	orrs	r0, r3
    1fde:	9b02      	ldr	r3, [sp, #8]
    1fe0:	0100      	lsls	r0, r0, #4
    1fe2:	019e      	lsls	r6, r3, #6
    1fe4:	9b01      	ldr	r3, [sp, #4]
    1fe6:	0e9b      	lsrs	r3, r3, #26
    1fe8:	4333      	orrs	r3, r6
    1fea:	4013      	ands	r3, r2
    1fec:	4318      	orrs	r0, r3
    1fee:	b2c0      	uxtb	r0, r0
    1ff0:	4b19      	ldr	r3, [pc, #100]	; (2058 <ASK_Run+0x2c0>)
    1ff2:	0400      	lsls	r0, r0, #16
    1ff4:	1808      	adds	r0, r1, r0
    1ff6:	781a      	ldrb	r2, [r3, #0]
    1ff8:	9906      	ldr	r1, [sp, #24]
    1ffa:	4b18      	ldr	r3, [pc, #96]	; (205c <ASK_Run+0x2c4>)
    1ffc:	4798      	blx	r3
    1ffe:	2300      	movs	r3, #0
    2000:	9a00      	ldr	r2, [sp, #0]
    2002:	7013      	strb	r3, [r2, #0]
    2004:	ab12      	add	r3, sp, #72	; 0x48
    2006:	aa16      	add	r2, sp, #88	; 0x58
    2008:	191b      	adds	r3, r3, r4
    200a:	1912      	adds	r2, r2, r4
    200c:	6811      	ldr	r1, [r2, #0]
    200e:	6852      	ldr	r2, [r2, #4]
    2010:	6019      	str	r1, [r3, #0]
    2012:	605a      	str	r2, [r3, #4]
    2014:	9b03      	ldr	r3, [sp, #12]
    2016:	3301      	adds	r3, #1
    2018:	9303      	str	r3, [sp, #12]
    201a:	2380      	movs	r3, #128	; 0x80
    201c:	9a03      	ldr	r2, [sp, #12]
    201e:	009b      	lsls	r3, r3, #2
    2020:	429a      	cmp	r2, r3
    2022:	d000      	beq.n	2026 <ASK_Run+0x28e>
    2024:	e6e2      	b.n	1dec <ASK_Run+0x54>
    2026:	9b00      	ldr	r3, [sp, #0]
    2028:	3408      	adds	r4, #8
    202a:	3301      	adds	r3, #1
    202c:	9300      	str	r3, [sp, #0]
    202e:	3504      	adds	r5, #4
    2030:	2c10      	cmp	r4, #16
    2032:	d000      	beq.n	2036 <ASK_Run+0x29e>
    2034:	e6d4      	b.n	1de0 <ASK_Run+0x48>
    2036:	e6c7      	b.n	1dc8 <ASK_Run+0x30>
    2038:	00000e75 	.word	0x00000e75
    203c:	200000ac 	.word	0x200000ac
    2040:	200000ae 	.word	0x200000ae
    2044:	200000ad 	.word	0x200000ad
    2048:	0000355c 	.word	0x0000355c
    204c:	84210842 	.word	0x84210842
    2050:	00084210 	.word	0x00084210
    2054:	00001ca9 	.word	0x00001ca9
    2058:	2000093c 	.word	0x2000093c
    205c:	00001561 	.word	0x00001561

00002060 <ASK_Init>:
    2060:	b538      	push	{r3, r4, r5, lr}
    2062:	4d17      	ldr	r5, [pc, #92]	; (20c0 <ASK_Init+0x60>)
    2064:	47a8      	blx	r5
    2066:	2300      	movs	r3, #0
    2068:	4a16      	ldr	r2, [pc, #88]	; (20c4 <ASK_Init+0x64>)
    206a:	7013      	strb	r3, [r2, #0]
    206c:	4a16      	ldr	r2, [pc, #88]	; (20c8 <ASK_Init+0x68>)
    206e:	8013      	strh	r3, [r2, #0]
    2070:	4a16      	ldr	r2, [pc, #88]	; (20cc <ASK_Init+0x6c>)
    2072:	7013      	strb	r3, [r2, #0]
    2074:	4b16      	ldr	r3, [pc, #88]	; (20d0 <ASK_Init+0x70>)
    2076:	4798      	blx	r3
    2078:	4b16      	ldr	r3, [pc, #88]	; (20d4 <ASK_Init+0x74>)
    207a:	4798      	blx	r3
    207c:	4c16      	ldr	r4, [pc, #88]	; (20d8 <ASK_Init+0x78>)
    207e:	2202      	movs	r2, #2
    2080:	4916      	ldr	r1, [pc, #88]	; (20dc <ASK_Init+0x7c>)
    2082:	4b17      	ldr	r3, [pc, #92]	; (20e0 <ASK_Init+0x80>)
    2084:	1c20      	adds	r0, r4, #0
    2086:	4798      	blx	r3
    2088:	4b16      	ldr	r3, [pc, #88]	; (20e4 <ASK_Init+0x84>)
    208a:	6820      	ldr	r0, [r4, #0]
    208c:	4798      	blx	r3
    208e:	4b16      	ldr	r3, [pc, #88]	; (20e8 <ASK_Init+0x88>)
    2090:	5c1a      	ldrb	r2, [r3, r0]
    2092:	231f      	movs	r3, #31
    2094:	4013      	ands	r3, r2
    2096:	2201      	movs	r2, #1
    2098:	409a      	lsls	r2, r3
    209a:	1c13      	adds	r3, r2, #0
    209c:	4a13      	ldr	r2, [pc, #76]	; (20ec <ASK_Init+0x8c>)
    209e:	6013      	str	r3, [r2, #0]
    20a0:	2210      	movs	r2, #16
    20a2:	7e63      	ldrb	r3, [r4, #25]
    20a4:	4313      	orrs	r3, r2
    20a6:	7663      	strb	r3, [r4, #25]
    20a8:	6823      	ldr	r3, [r4, #0]
    20aa:	735a      	strb	r2, [r3, #13]
    20ac:	7bda      	ldrb	r2, [r3, #15]
    20ae:	09d2      	lsrs	r2, r2, #7
    20b0:	d1fc      	bne.n	20ac <ASK_Init+0x4c>
    20b2:	2102      	movs	r1, #2
    20b4:	881a      	ldrh	r2, [r3, #0]
    20b6:	430a      	orrs	r2, r1
    20b8:	801a      	strh	r2, [r3, #0]
    20ba:	47a8      	blx	r5
    20bc:	bd38      	pop	{r3, r4, r5, pc}
    20be:	46c0      	nop			; (mov r8, r8)
    20c0:	00000e75 	.word	0x00000e75
    20c4:	200000ad 	.word	0x200000ad
    20c8:	200008ae 	.word	0x200008ae
    20cc:	200000ac 	.word	0x200000ac
    20d0:	00000f41 	.word	0x00000f41
    20d4:	00001d45 	.word	0x00001d45
    20d8:	200008b0 	.word	0x200008b0
    20dc:	00001cdd 	.word	0x00001cdd
    20e0:	00000a1d 	.word	0x00000a1d
    20e4:	00000b01 	.word	0x00000b01
    20e8:	000035dc 	.word	0x000035dc
    20ec:	e000e100 	.word	0xe000e100

000020f0 <mifare_i2c_init>:
    20f0:	2364      	movs	r3, #100	; 0x64
    20f2:	b510      	push	{r4, lr}
    20f4:	b08a      	sub	sp, #40	; 0x28
    20f6:	466a      	mov	r2, sp
    20f8:	9300      	str	r3, [sp, #0]
    20fa:	2300      	movs	r3, #0
    20fc:	7113      	strb	r3, [r2, #4]
    20fe:	7413      	strb	r3, [r2, #16]
    2100:	2280      	movs	r2, #128	; 0x80
    2102:	4669      	mov	r1, sp
    2104:	0392      	lsls	r2, r2, #14
    2106:	9202      	str	r2, [sp, #8]
    2108:	2201      	movs	r2, #1
    210a:	770b      	strb	r3, [r1, #28]
    210c:	9308      	str	r3, [sp, #32]
    210e:	33d7      	adds	r3, #215	; 0xd7
    2110:	848b      	strh	r3, [r1, #36]	; 0x24
    2112:	4b13      	ldr	r3, [pc, #76]	; (2160 <mifare_i2c_init+0x70>)
    2114:	4252      	negs	r2, r2
    2116:	81cb      	strh	r3, [r1, #14]
    2118:	4b12      	ldr	r3, [pc, #72]	; (2164 <mifare_i2c_init+0x74>)
    211a:	818a      	strh	r2, [r1, #12]
    211c:	9305      	str	r3, [sp, #20]
    211e:	4b12      	ldr	r3, [pc, #72]	; (2168 <mifare_i2c_init+0x78>)
    2120:	9306      	str	r3, [sp, #24]
    2122:	4c12      	ldr	r4, [pc, #72]	; (216c <mifare_i2c_init+0x7c>)
    2124:	4912      	ldr	r1, [pc, #72]	; (2170 <mifare_i2c_init+0x80>)
    2126:	1c20      	adds	r0, r4, #0
    2128:	466a      	mov	r2, sp
    212a:	4b12      	ldr	r3, [pc, #72]	; (2174 <mifare_i2c_init+0x84>)
    212c:	4798      	blx	r3
    212e:	2800      	cmp	r0, #0
    2130:	d1f7      	bne.n	2122 <mifare_i2c_init+0x32>
    2132:	6822      	ldr	r2, [r4, #0]
    2134:	8a13      	ldrh	r3, [r2, #16]
    2136:	0bdb      	lsrs	r3, r3, #15
    2138:	03db      	lsls	r3, r3, #15
    213a:	b29b      	uxth	r3, r3
    213c:	2b00      	cmp	r3, #0
    213e:	d1f9      	bne.n	2134 <mifare_i2c_init+0x44>
    2140:	2002      	movs	r0, #2
    2142:	6811      	ldr	r1, [r2, #0]
    2144:	4301      	orrs	r1, r0
    2146:	6011      	str	r1, [r2, #0]
    2148:	88e4      	ldrh	r4, [r4, #6]
    214a:	2110      	movs	r1, #16
    214c:	8a10      	ldrh	r0, [r2, #16]
    214e:	4208      	tst	r0, r1
    2150:	d103      	bne.n	215a <mifare_i2c_init+0x6a>
    2152:	3301      	adds	r3, #1
    2154:	42a3      	cmp	r3, r4
    2156:	d3f8      	bcc.n	214a <mifare_i2c_init+0x5a>
    2158:	8211      	strh	r1, [r2, #16]
    215a:	b00a      	add	sp, #40	; 0x28
    215c:	bd10      	pop	{r4, pc}
    215e:	46c0      	nop			; (mov r8, r8)
    2160:	00002710 	.word	0x00002710
    2164:	00160002 	.word	0x00160002
    2168:	00170002 	.word	0x00170002
    216c:	20000988 	.word	0x20000988
    2170:	42001400 	.word	0x42001400
    2174:	00000489 	.word	0x00000489

00002178 <mifare_reset>:
    2178:	b570      	push	{r4, r5, r6, lr}
    217a:	2680      	movs	r6, #128	; 0x80
    217c:	4d04      	ldr	r5, [pc, #16]	; (2190 <mifare_reset+0x18>)
    217e:	0276      	lsls	r6, r6, #9
    2180:	616e      	str	r6, [r5, #20]
    2182:	4c04      	ldr	r4, [pc, #16]	; (2194 <mifare_reset+0x1c>)
    2184:	2064      	movs	r0, #100	; 0x64
    2186:	47a0      	blx	r4
    2188:	61ae      	str	r6, [r5, #24]
    218a:	2064      	movs	r0, #100	; 0x64
    218c:	47a0      	blx	r4
    218e:	bd70      	pop	{r4, r5, r6, pc}
    2190:	41004400 	.word	0x41004400
    2194:	00000295 	.word	0x00000295

00002198 <mifare_activate_card>:
    2198:	b5f0      	push	{r4, r5, r6, r7, lr}
    219a:	260b      	movs	r6, #11
    219c:	23ff      	movs	r3, #255	; 0xff
    219e:	b087      	sub	sp, #28
    21a0:	446e      	add	r6, sp
    21a2:	7033      	strb	r3, [r6, #0]
    21a4:	2005      	movs	r0, #5
    21a6:	4b24      	ldr	r3, [pc, #144]	; (2238 <mifare_activate_card+0xa0>)
    21a8:	4798      	blx	r3
    21aa:	230a      	movs	r3, #10
    21ac:	ac04      	add	r4, sp, #16
    21ae:	446b      	add	r3, sp
    21b0:	9300      	str	r3, [sp, #0]
    21b2:	4d22      	ldr	r5, [pc, #136]	; (223c <mifare_activate_card+0xa4>)
    21b4:	2026      	movs	r0, #38	; 0x26
    21b6:	a903      	add	r1, sp, #12
    21b8:	1c22      	adds	r2, r4, #0
    21ba:	1c33      	adds	r3, r6, #0
    21bc:	47a8      	blx	r5
    21be:	1e05      	subs	r5, r0, #0
    21c0:	d137      	bne.n	2232 <mifare_activate_card+0x9a>
    21c2:	7832      	ldrb	r2, [r6, #0]
    21c4:	7823      	ldrb	r3, [r4, #0]
    21c6:	7866      	ldrb	r6, [r4, #1]
    21c8:	2a04      	cmp	r2, #4
    21ca:	d925      	bls.n	2218 <mifare_activate_card+0x80>
    21cc:	1c2a      	adds	r2, r5, #0
    21ce:	0619      	lsls	r1, r3, #24
    21d0:	0433      	lsls	r3, r6, #16
    21d2:	1880      	adds	r0, r0, r2
    21d4:	4159      	adcs	r1, r3
    21d6:	1c2b      	adds	r3, r5, #0
    21d8:	79e2      	ldrb	r2, [r4, #7]
    21da:	1c2e      	adds	r6, r5, #0
    21dc:	1812      	adds	r2, r2, r0
    21de:	414b      	adcs	r3, r1
    21e0:	78a1      	ldrb	r1, [r4, #2]
    21e2:	020f      	lsls	r7, r1, #8
    21e4:	1992      	adds	r2, r2, r6
    21e6:	417b      	adcs	r3, r7
    21e8:	1c10      	adds	r0, r2, #0
    21ea:	1c19      	adds	r1, r3, #0
    21ec:	1c2a      	adds	r2, r5, #0
    21ee:	78e3      	ldrb	r3, [r4, #3]
    21f0:	7926      	ldrb	r6, [r4, #4]
    21f2:	1812      	adds	r2, r2, r0
    21f4:	414b      	adcs	r3, r1
    21f6:	1c29      	adds	r1, r5, #0
    21f8:	0630      	lsls	r0, r6, #24
    21fa:	1880      	adds	r0, r0, r2
    21fc:	4159      	adcs	r1, r3
    21fe:	1c2b      	adds	r3, r5, #0
    2200:	7966      	ldrb	r6, [r4, #5]
    2202:	79a4      	ldrb	r4, [r4, #6]
    2204:	0432      	lsls	r2, r6, #16
    2206:	1880      	adds	r0, r0, r2
    2208:	4159      	adcs	r1, r3
    220a:	1c2b      	adds	r3, r5, #0
    220c:	0222      	lsls	r2, r4, #8
    220e:	1880      	adds	r0, r0, r2
    2210:	4159      	adcs	r1, r3
    2212:	4b0b      	ldr	r3, [pc, #44]	; (2240 <mifare_activate_card+0xa8>)
    2214:	781a      	ldrb	r2, [r3, #0]
    2216:	e00a      	b.n	222e <mifare_activate_card+0x96>
    2218:	1c29      	adds	r1, r5, #0
    221a:	061b      	lsls	r3, r3, #24
    221c:	78e0      	ldrb	r0, [r4, #3]
    221e:	0436      	lsls	r6, r6, #16
    2220:	199e      	adds	r6, r3, r6
    2222:	1836      	adds	r6, r6, r0
    2224:	4b06      	ldr	r3, [pc, #24]	; (2240 <mifare_activate_card+0xa8>)
    2226:	78a0      	ldrb	r0, [r4, #2]
    2228:	781a      	ldrb	r2, [r3, #0]
    222a:	0200      	lsls	r0, r0, #8
    222c:	1830      	adds	r0, r6, r0
    222e:	4b05      	ldr	r3, [pc, #20]	; (2244 <mifare_activate_card+0xac>)
    2230:	4798      	blx	r3
    2232:	b007      	add	sp, #28
    2234:	bdf0      	pop	{r4, r5, r6, r7, pc}
    2236:	46c0      	nop			; (mov r8, r8)
    2238:	00001945 	.word	0x00001945
    223c:	00002279 	.word	0x00002279
    2240:	2000093c 	.word	0x2000093c
    2244:	00001561 	.word	0x00001561

00002248 <Mifare_Init>:
    2248:	b508      	push	{r3, lr}
    224a:	4b03      	ldr	r3, [pc, #12]	; (2258 <Mifare_Init+0x10>)
    224c:	4798      	blx	r3
    224e:	4b03      	ldr	r3, [pc, #12]	; (225c <Mifare_Init+0x14>)
    2250:	4798      	blx	r3
    2252:	4b03      	ldr	r3, [pc, #12]	; (2260 <Mifare_Init+0x18>)
    2254:	4798      	blx	r3
    2256:	bd08      	pop	{r3, pc}
    2258:	000020f1 	.word	0x000020f1
    225c:	00002179 	.word	0x00002179
    2260:	00001875 	.word	0x00001875

00002264 <Mifare_Run>:
    2264:	b508      	push	{r3, lr}
    2266:	4b02      	ldr	r3, [pc, #8]	; (2270 <Mifare_Run+0xc>)
    2268:	4798      	blx	r3
    226a:	4b02      	ldr	r3, [pc, #8]	; (2274 <Mifare_Run+0x10>)
    226c:	4798      	blx	r3
    226e:	e7fa      	b.n	2266 <Mifare_Run+0x2>
    2270:	00002199 	.word	0x00002199
    2274:	00000e75 	.word	0x00000e75

00002278 <ActivateCard>:
    2278:	b5f8      	push	{r3, r4, r5, r6, r7, lr}
    227a:	1c1d      	adds	r5, r3, #0
    227c:	4b13      	ldr	r3, [pc, #76]	; (22cc <ActivateCard+0x54>)
    227e:	1c14      	adds	r4, r2, #0
    2280:	4798      	blx	r3
    2282:	1e01      	subs	r1, r0, #0
    2284:	d11f      	bne.n	22c6 <ActivateCard+0x4e>
    2286:	2093      	movs	r0, #147	; 0x93
    2288:	1c22      	adds	r2, r4, #0
    228a:	4f11      	ldr	r7, [pc, #68]	; (22d0 <ActivateCard+0x58>)
    228c:	47b8      	blx	r7
    228e:	1e01      	subs	r1, r0, #0
    2290:	d119      	bne.n	22c6 <ActivateCard+0x4e>
    2292:	1c21      	adds	r1, r4, #0
    2294:	2093      	movs	r0, #147	; 0x93
    2296:	9a06      	ldr	r2, [sp, #24]
    2298:	4e0e      	ldr	r6, [pc, #56]	; (22d4 <ActivateCard+0x5c>)
    229a:	47b0      	blx	r6
    229c:	1e01      	subs	r1, r0, #0
    229e:	d112      	bne.n	22c6 <ActivateCard+0x4e>
    22a0:	9b06      	ldr	r3, [sp, #24]
    22a2:	781a      	ldrb	r2, [r3, #0]
    22a4:	2304      	movs	r3, #4
    22a6:	421a      	tst	r2, r3
    22a8:	d00c      	beq.n	22c4 <ActivateCard+0x4c>
    22aa:	18e4      	adds	r4, r4, r3
    22ac:	2095      	movs	r0, #149	; 0x95
    22ae:	1c22      	adds	r2, r4, #0
    22b0:	47b8      	blx	r7
    22b2:	1e01      	subs	r1, r0, #0
    22b4:	d107      	bne.n	22c6 <ActivateCard+0x4e>
    22b6:	1c21      	adds	r1, r4, #0
    22b8:	2095      	movs	r0, #149	; 0x95
    22ba:	9a06      	ldr	r2, [sp, #24]
    22bc:	47b0      	blx	r6
    22be:	1e01      	subs	r1, r0, #0
    22c0:	d101      	bne.n	22c6 <ActivateCard+0x4e>
    22c2:	2308      	movs	r3, #8
    22c4:	702b      	strb	r3, [r5, #0]
    22c6:	b208      	sxth	r0, r1
    22c8:	bdf8      	pop	{r3, r4, r5, r6, r7, pc}
    22ca:	46c0      	nop			; (mov r8, r8)
    22cc:	00001969 	.word	0x00001969
    22d0:	00001a05 	.word	0x00001a05
    22d4:	00001b69 	.word	0x00001b69

000022d8 <CalculateParityOdd>:
    22d8:	2300      	movs	r3, #0
    22da:	2201      	movs	r2, #1
    22dc:	2800      	cmp	r0, #0
    22de:	d003      	beq.n	22e8 <CalculateParityOdd+0x10>
    22e0:	4002      	ands	r2, r0
    22e2:	4053      	eors	r3, r2
    22e4:	0840      	lsrs	r0, r0, #1
    22e6:	e7f8      	b.n	22da <CalculateParityOdd+0x2>
    22e8:	405a      	eors	r2, r3
    22ea:	1c10      	adds	r0, r2, #0
    22ec:	4770      	bx	lr
	...

000022f0 <WiegandSend0>:
    22f0:	b570      	push	{r4, r5, r6, lr}
    22f2:	2680      	movs	r6, #128	; 0x80
    22f4:	4d05      	ldr	r5, [pc, #20]	; (230c <WiegandSend0+0x1c>)
    22f6:	0076      	lsls	r6, r6, #1
    22f8:	61ae      	str	r6, [r5, #24]
    22fa:	4c05      	ldr	r4, [pc, #20]	; (2310 <WiegandSend0+0x20>)
    22fc:	2064      	movs	r0, #100	; 0x64
    22fe:	47a0      	blx	r4
    2300:	20fa      	movs	r0, #250	; 0xfa
    2302:	616e      	str	r6, [r5, #20]
    2304:	00c0      	lsls	r0, r0, #3
    2306:	47a0      	blx	r4
    2308:	bd70      	pop	{r4, r5, r6, pc}
    230a:	46c0      	nop			; (mov r8, r8)
    230c:	41004400 	.word	0x41004400
    2310:	00000275 	.word	0x00000275

00002314 <WiegandSend1>:
    2314:	b570      	push	{r4, r5, r6, lr}
    2316:	2680      	movs	r6, #128	; 0x80
    2318:	4d05      	ldr	r5, [pc, #20]	; (2330 <WiegandSend1+0x1c>)
    231a:	00b6      	lsls	r6, r6, #2
    231c:	61ae      	str	r6, [r5, #24]
    231e:	4c05      	ldr	r4, [pc, #20]	; (2334 <WiegandSend1+0x20>)
    2320:	2064      	movs	r0, #100	; 0x64
    2322:	47a0      	blx	r4
    2324:	20fa      	movs	r0, #250	; 0xfa
    2326:	616e      	str	r6, [r5, #20]
    2328:	00c0      	lsls	r0, r0, #3
    232a:	47a0      	blx	r4
    232c:	bd70      	pop	{r4, r5, r6, pc}
    232e:	46c0      	nop			; (mov r8, r8)
    2330:	41004400 	.word	0x41004400
    2334:	00000275 	.word	0x00000275

00002338 <TxWiegandPacket>:
    2338:	b5f7      	push	{r0, r1, r2, r4, r5, r6, r7, lr}
    233a:	1c06      	adds	r6, r0, #0
    233c:	1c0f      	adds	r7, r1, #0
    233e:	1e15      	subs	r5, r2, #0
    2340:	2d22      	cmp	r5, #34	; 0x22
    2342:	d010      	beq.n	2366 <TxWiegandPacket+0x2e>
    2344:	2a42      	cmp	r2, #66	; 0x42
    2346:	d018      	beq.n	237a <TxWiegandPacket+0x42>
    2348:	2a1a      	cmp	r2, #26
    234a:	d127      	bne.n	239c <TxWiegandPacket+0x64>
    234c:	0200      	lsls	r0, r0, #8
    234e:	0a06      	lsrs	r6, r0, #8
    2350:	4c20      	ldr	r4, [pc, #128]	; (23d4 <TxWiegandPacket+0x9c>)
    2352:	0d00      	lsrs	r0, r0, #20
    2354:	47a0      	blx	r4
    2356:	4243      	negs	r3, r0
    2358:	4158      	adcs	r0, r3
    235a:	b2c3      	uxtb	r3, r0
    235c:	0530      	lsls	r0, r6, #20
    235e:	2700      	movs	r7, #0
    2360:	9301      	str	r3, [sp, #4]
    2362:	0d00      	lsrs	r0, r0, #20
    2364:	e011      	b.n	238a <TxWiegandPacket+0x52>
    2366:	0c00      	lsrs	r0, r0, #16
    2368:	4c1a      	ldr	r4, [pc, #104]	; (23d4 <TxWiegandPacket+0x9c>)
    236a:	47a0      	blx	r4
    236c:	4243      	negs	r3, r0
    236e:	4158      	adcs	r0, r3
    2370:	b2c3      	uxtb	r3, r0
    2372:	2700      	movs	r7, #0
    2374:	9301      	str	r3, [sp, #4]
    2376:	b2b0      	uxth	r0, r6
    2378:	e007      	b.n	238a <TxWiegandPacket+0x52>
    237a:	1c08      	adds	r0, r1, #0
    237c:	4c15      	ldr	r4, [pc, #84]	; (23d4 <TxWiegandPacket+0x9c>)
    237e:	47a0      	blx	r4
    2380:	4243      	negs	r3, r0
    2382:	4158      	adcs	r0, r3
    2384:	b2c3      	uxtb	r3, r0
    2386:	1c30      	adds	r0, r6, #0
    2388:	9301      	str	r3, [sp, #4]
    238a:	47a0      	blx	r4
    238c:	1e44      	subs	r4, r0, #1
    238e:	41a0      	sbcs	r0, r4
    2390:	9b01      	ldr	r3, [sp, #4]
    2392:	b2c4      	uxtb	r4, r0
    2394:	2b00      	cmp	r3, #0
    2396:	d004      	beq.n	23a2 <TxWiegandPacket+0x6a>
    2398:	4b0f      	ldr	r3, [pc, #60]	; (23d8 <TxWiegandPacket+0xa0>)
    239a:	e003      	b.n	23a4 <TxWiegandPacket+0x6c>
    239c:	2600      	movs	r6, #0
    239e:	1c37      	adds	r7, r6, #0
    23a0:	1c34      	adds	r4, r6, #0
    23a2:	4b0e      	ldr	r3, [pc, #56]	; (23dc <TxWiegandPacket+0xa4>)
    23a4:	4798      	blx	r3
    23a6:	3d03      	subs	r5, #3
    23a8:	b2ed      	uxtb	r5, r5
    23aa:	b26a      	sxtb	r2, r5
    23ac:	2a00      	cmp	r2, #0
    23ae:	db0b      	blt.n	23c8 <TxWiegandPacket+0x90>
    23b0:	4b0b      	ldr	r3, [pc, #44]	; (23e0 <TxWiegandPacket+0xa8>)
    23b2:	1c30      	adds	r0, r6, #0
    23b4:	1c39      	adds	r1, r7, #0
    23b6:	4798      	blx	r3
    23b8:	07c3      	lsls	r3, r0, #31
    23ba:	d501      	bpl.n	23c0 <TxWiegandPacket+0x88>
    23bc:	4b06      	ldr	r3, [pc, #24]	; (23d8 <TxWiegandPacket+0xa0>)
    23be:	e000      	b.n	23c2 <TxWiegandPacket+0x8a>
    23c0:	4b06      	ldr	r3, [pc, #24]	; (23dc <TxWiegandPacket+0xa4>)
    23c2:	4798      	blx	r3
    23c4:	3d01      	subs	r5, #1
    23c6:	e7ef      	b.n	23a8 <TxWiegandPacket+0x70>
    23c8:	4b03      	ldr	r3, [pc, #12]	; (23d8 <TxWiegandPacket+0xa0>)
    23ca:	2c00      	cmp	r4, #0
    23cc:	d100      	bne.n	23d0 <TxWiegandPacket+0x98>
    23ce:	4b03      	ldr	r3, [pc, #12]	; (23dc <TxWiegandPacket+0xa4>)
    23d0:	4798      	blx	r3
    23d2:	bdf7      	pop	{r0, r1, r2, r4, r5, r6, r7, pc}
    23d4:	000022d9 	.word	0x000022d9
    23d8:	00002315 	.word	0x00002315
    23dc:	000022f1 	.word	0x000022f1
    23e0:	00002fb1 	.word	0x00002fb1

000023e4 <system_board_init>:
    23e4:	4770      	bx	lr
	...

000023e8 <cpu_irq_enter_critical>:
    23e8:	4b09      	ldr	r3, [pc, #36]	; (2410 <cpu_irq_enter_critical+0x28>)
    23ea:	6819      	ldr	r1, [r3, #0]
    23ec:	2900      	cmp	r1, #0
    23ee:	d10b      	bne.n	2408 <cpu_irq_enter_critical+0x20>
    23f0:	f3ef 8010 	mrs	r0, PRIMASK
    23f4:	4a07      	ldr	r2, [pc, #28]	; (2414 <cpu_irq_enter_critical+0x2c>)
    23f6:	2800      	cmp	r0, #0
    23f8:	d105      	bne.n	2406 <cpu_irq_enter_critical+0x1e>
    23fa:	b672      	cpsid	i
    23fc:	f3bf 8f5f 	dmb	sy
    2400:	4905      	ldr	r1, [pc, #20]	; (2418 <cpu_irq_enter_critical+0x30>)
    2402:	7008      	strb	r0, [r1, #0]
    2404:	2101      	movs	r1, #1
    2406:	7011      	strb	r1, [r2, #0]
    2408:	681a      	ldr	r2, [r3, #0]
    240a:	3201      	adds	r2, #1
    240c:	601a      	str	r2, [r3, #0]
    240e:	4770      	bx	lr
    2410:	200008cc 	.word	0x200008cc
    2414:	200008d0 	.word	0x200008d0
    2418:	20000008 	.word	0x20000008

0000241c <cpu_irq_leave_critical>:
    241c:	4b08      	ldr	r3, [pc, #32]	; (2440 <cpu_irq_leave_critical+0x24>)
    241e:	681a      	ldr	r2, [r3, #0]
    2420:	3a01      	subs	r2, #1
    2422:	601a      	str	r2, [r3, #0]
    2424:	681b      	ldr	r3, [r3, #0]
    2426:	2b00      	cmp	r3, #0
    2428:	d109      	bne.n	243e <cpu_irq_leave_critical+0x22>
    242a:	4b06      	ldr	r3, [pc, #24]	; (2444 <cpu_irq_leave_critical+0x28>)
    242c:	781b      	ldrb	r3, [r3, #0]
    242e:	2b00      	cmp	r3, #0
    2430:	d005      	beq.n	243e <cpu_irq_leave_critical+0x22>
    2432:	2201      	movs	r2, #1
    2434:	4b04      	ldr	r3, [pc, #16]	; (2448 <cpu_irq_leave_critical+0x2c>)
    2436:	701a      	strb	r2, [r3, #0]
    2438:	f3bf 8f5f 	dmb	sy
    243c:	b662      	cpsie	i
    243e:	4770      	bx	lr
    2440:	200008cc 	.word	0x200008cc
    2444:	200008d0 	.word	0x200008d0
    2448:	20000008 	.word	0x20000008

0000244c <system_clock_source_enable.part.0>:
    244c:	2102      	movs	r1, #2
    244e:	4b0b      	ldr	r3, [pc, #44]	; (247c <system_clock_source_enable.part.0+0x30>)
    2450:	681a      	ldr	r2, [r3, #0]
    2452:	430a      	orrs	r2, r1
    2454:	601a      	str	r2, [r3, #0]
    2456:	681a      	ldr	r2, [r3, #0]
    2458:	317e      	adds	r1, #126	; 0x7e
    245a:	438a      	bics	r2, r1
    245c:	4908      	ldr	r1, [pc, #32]	; (2480 <system_clock_source_enable.part.0+0x34>)
    245e:	b292      	uxth	r2, r2
    2460:	848a      	strh	r2, [r1, #36]	; 0x24
    2462:	68c8      	ldr	r0, [r1, #12]
    2464:	4a06      	ldr	r2, [pc, #24]	; (2480 <system_clock_source_enable.part.0+0x34>)
    2466:	06c0      	lsls	r0, r0, #27
    2468:	d5fb      	bpl.n	2462 <system_clock_source_enable.part.0+0x16>
    246a:	6899      	ldr	r1, [r3, #8]
    246c:	2000      	movs	r0, #0
    246e:	62d1      	str	r1, [r2, #44]	; 0x2c
    2470:	6859      	ldr	r1, [r3, #4]
    2472:	6291      	str	r1, [r2, #40]	; 0x28
    2474:	681b      	ldr	r3, [r3, #0]
    2476:	b29b      	uxth	r3, r3
    2478:	8493      	strh	r3, [r2, #36]	; 0x24
    247a:	4770      	bx	lr
    247c:	200008d4 	.word	0x200008d4
    2480:	40000800 	.word	0x40000800

00002484 <system_clock_source_get_hz>:
    2484:	b510      	push	{r4, lr}
    2486:	2807      	cmp	r0, #7
    2488:	d805      	bhi.n	2496 <system_clock_source_get_hz+0x12>
    248a:	f000 fc05 	bl	2c98 <__gnu_thumb1_case_uqi>
    248e:	0406      	.short	0x0406
    2490:	11272704 	.word	0x11272704
    2494:	1409      	.short	0x1409
    2496:	2000      	movs	r0, #0
    2498:	e024      	b.n	24e4 <system_clock_source_get_hz+0x60>
    249a:	4b13      	ldr	r3, [pc, #76]	; (24e8 <system_clock_source_get_hz+0x64>)
    249c:	68d8      	ldr	r0, [r3, #12]
    249e:	e021      	b.n	24e4 <system_clock_source_get_hz+0x60>
    24a0:	4b12      	ldr	r3, [pc, #72]	; (24ec <system_clock_source_get_hz+0x68>)
    24a2:	6a18      	ldr	r0, [r3, #32]
    24a4:	4b12      	ldr	r3, [pc, #72]	; (24f0 <system_clock_source_get_hz+0x6c>)
    24a6:	0580      	lsls	r0, r0, #22
    24a8:	0f80      	lsrs	r0, r0, #30
    24aa:	40c3      	lsrs	r3, r0
    24ac:	1c18      	adds	r0, r3, #0
    24ae:	e019      	b.n	24e4 <system_clock_source_get_hz+0x60>
    24b0:	4b0d      	ldr	r3, [pc, #52]	; (24e8 <system_clock_source_get_hz+0x64>)
    24b2:	6918      	ldr	r0, [r3, #16]
    24b4:	e016      	b.n	24e4 <system_clock_source_get_hz+0x60>
    24b6:	2302      	movs	r3, #2
    24b8:	4c0b      	ldr	r4, [pc, #44]	; (24e8 <system_clock_source_get_hz+0x64>)
    24ba:	6820      	ldr	r0, [r4, #0]
    24bc:	4018      	ands	r0, r3
    24be:	d011      	beq.n	24e4 <system_clock_source_get_hz+0x60>
    24c0:	4b0a      	ldr	r3, [pc, #40]	; (24ec <system_clock_source_get_hz+0x68>)
    24c2:	68db      	ldr	r3, [r3, #12]
    24c4:	06db      	lsls	r3, r3, #27
    24c6:	d5fb      	bpl.n	24c0 <system_clock_source_get_hz+0x3c>
    24c8:	6823      	ldr	r3, [r4, #0]
    24ca:	075b      	lsls	r3, r3, #29
    24cc:	d509      	bpl.n	24e2 <system_clock_source_get_hz+0x5e>
    24ce:	4b09      	ldr	r3, [pc, #36]	; (24f4 <system_clock_source_get_hz+0x70>)
    24d0:	2000      	movs	r0, #0
    24d2:	4798      	blx	r3
    24d4:	68a3      	ldr	r3, [r4, #8]
    24d6:	b29b      	uxth	r3, r3
    24d8:	4358      	muls	r0, r3
    24da:	e003      	b.n	24e4 <system_clock_source_get_hz+0x60>
    24dc:	2080      	movs	r0, #128	; 0x80
    24de:	0200      	lsls	r0, r0, #8
    24e0:	e000      	b.n	24e4 <system_clock_source_get_hz+0x60>
    24e2:	4805      	ldr	r0, [pc, #20]	; (24f8 <system_clock_source_get_hz+0x74>)
    24e4:	bd10      	pop	{r4, pc}
    24e6:	46c0      	nop			; (mov r8, r8)
    24e8:	200008d4 	.word	0x200008d4
    24ec:	40000800 	.word	0x40000800
    24f0:	007a1200 	.word	0x007a1200
    24f4:	00002a99 	.word	0x00002a99
    24f8:	02dc6c00 	.word	0x02dc6c00

000024fc <system_clock_source_osc8m_set_config>:
    24fc:	b570      	push	{r4, r5, r6, lr}
    24fe:	2101      	movs	r1, #1
    2500:	7886      	ldrb	r6, [r0, #2]
    2502:	7805      	ldrb	r5, [r0, #0]
    2504:	7842      	ldrb	r2, [r0, #1]
    2506:	2040      	movs	r0, #64	; 0x40
    2508:	4c09      	ldr	r4, [pc, #36]	; (2530 <system_clock_source_osc8m_set_config+0x34>)
    250a:	400a      	ands	r2, r1
    250c:	6a23      	ldr	r3, [r4, #32]
    250e:	0192      	lsls	r2, r2, #6
    2510:	4383      	bics	r3, r0
    2512:	4313      	orrs	r3, r2
    2514:	2280      	movs	r2, #128	; 0x80
    2516:	4031      	ands	r1, r6
    2518:	01c9      	lsls	r1, r1, #7
    251a:	4393      	bics	r3, r2
    251c:	430b      	orrs	r3, r1
    251e:	3a7d      	subs	r2, #125	; 0x7d
    2520:	4904      	ldr	r1, [pc, #16]	; (2534 <system_clock_source_osc8m_set_config+0x38>)
    2522:	4015      	ands	r5, r2
    2524:	022d      	lsls	r5, r5, #8
    2526:	400b      	ands	r3, r1
    2528:	432b      	orrs	r3, r5
    252a:	6223      	str	r3, [r4, #32]
    252c:	bd70      	pop	{r4, r5, r6, pc}
    252e:	46c0      	nop			; (mov r8, r8)
    2530:	40000800 	.word	0x40000800
    2534:	fffffcff 	.word	0xfffffcff

00002538 <system_clock_source_xosc_set_config>:
    2538:	1c03      	adds	r3, r0, #0
    253a:	b5f7      	push	{r0, r1, r2, r4, r5, r6, r7, lr}
    253c:	220f      	movs	r2, #15
    253e:	685b      	ldr	r3, [r3, #4]
    2540:	7845      	ldrb	r5, [r0, #1]
    2542:	469c      	mov	ip, r3
    2544:	7807      	ldrb	r7, [r0, #0]
    2546:	4c16      	ldr	r4, [pc, #88]	; (25a0 <system_clock_source_xosc_set_config+0x68>)
    2548:	4015      	ands	r5, r2
    254a:	427a      	negs	r2, r7
    254c:	4157      	adcs	r7, r2
    254e:	7882      	ldrb	r2, [r0, #2]
    2550:	8a21      	ldrh	r1, [r4, #16]
    2552:	9201      	str	r2, [sp, #4]
    2554:	4662      	mov	r2, ip
    2556:	4b13      	ldr	r3, [pc, #76]	; (25a4 <system_clock_source_xosc_set_config+0x6c>)
    2558:	7a46      	ldrb	r6, [r0, #9]
    255a:	7a00      	ldrb	r0, [r0, #8]
    255c:	60da      	str	r2, [r3, #12]
    255e:	2204      	movs	r2, #4
    2560:	2301      	movs	r3, #1
    2562:	00bf      	lsls	r7, r7, #2
    2564:	4391      	bics	r1, r2
    2566:	4339      	orrs	r1, r7
    2568:	2740      	movs	r7, #64	; 0x40
    256a:	4018      	ands	r0, r3
    256c:	43b9      	bics	r1, r7
    256e:	0180      	lsls	r0, r0, #6
    2570:	4301      	orrs	r1, r0
    2572:	1c30      	adds	r0, r6, #0
    2574:	2680      	movs	r6, #128	; 0x80
    2576:	4018      	ands	r0, r3
    2578:	43b1      	bics	r1, r6
    257a:	01c0      	lsls	r0, r0, #7
    257c:	4301      	orrs	r1, r0
    257e:	480a      	ldr	r0, [pc, #40]	; (25a8 <system_clock_source_xosc_set_config+0x70>)
    2580:	9a01      	ldr	r2, [sp, #4]
    2582:	4001      	ands	r1, r0
    2584:	2080      	movs	r0, #128	; 0x80
    2586:	4013      	ands	r3, r2
    2588:	02da      	lsls	r2, r3, #11
    258a:	00c0      	lsls	r0, r0, #3
    258c:	4b07      	ldr	r3, [pc, #28]	; (25ac <system_clock_source_xosc_set_config+0x74>)
    258e:	4301      	orrs	r1, r0
    2590:	400b      	ands	r3, r1
    2592:	4313      	orrs	r3, r2
    2594:	051b      	lsls	r3, r3, #20
    2596:	032d      	lsls	r5, r5, #12
    2598:	0d1b      	lsrs	r3, r3, #20
    259a:	432b      	orrs	r3, r5
    259c:	8223      	strh	r3, [r4, #16]
    259e:	bdf7      	pop	{r0, r1, r2, r4, r5, r6, r7, pc}
    25a0:	40000800 	.word	0x40000800
    25a4:	200008d4 	.word	0x200008d4
    25a8:	fffff8ff 	.word	0xfffff8ff
    25ac:	fffff7ff 	.word	0xfffff7ff

000025b0 <system_clock_source_dfll_set_config>:
    25b0:	b570      	push	{r4, r5, r6, lr}
    25b2:	4b21      	ldr	r3, [pc, #132]	; (2638 <system_clock_source_dfll_set_config+0x88>)
    25b4:	7a02      	ldrb	r2, [r0, #8]
    25b6:	699c      	ldr	r4, [r3, #24]
    25b8:	4920      	ldr	r1, [pc, #128]	; (263c <system_clock_source_dfll_set_config+0x8c>)
    25ba:	0524      	lsls	r4, r4, #20
    25bc:	0f24      	lsrs	r4, r4, #28
    25be:	8943      	ldrh	r3, [r0, #10]
    25c0:	2c02      	cmp	r4, #2
    25c2:	d807      	bhi.n	25d4 <system_clock_source_dfll_set_config+0x24>
    25c4:	25f8      	movs	r5, #248	; 0xf8
    25c6:	0212      	lsls	r2, r2, #8
    25c8:	016d      	lsls	r5, r5, #5
    25ca:	402a      	ands	r2, r5
    25cc:	b2db      	uxtb	r3, r3
    25ce:	431a      	orrs	r2, r3
    25d0:	604a      	str	r2, [r1, #4]
    25d2:	e005      	b.n	25e0 <system_clock_source_dfll_set_config+0x30>
    25d4:	0692      	lsls	r2, r2, #26
    25d6:	059b      	lsls	r3, r3, #22
    25d8:	0c12      	lsrs	r2, r2, #16
    25da:	0d9b      	lsrs	r3, r3, #22
    25dc:	4313      	orrs	r3, r2
    25de:	604b      	str	r3, [r1, #4]
    25e0:	8843      	ldrh	r3, [r0, #2]
    25e2:	8885      	ldrh	r5, [r0, #4]
    25e4:	7982      	ldrb	r2, [r0, #6]
    25e6:	431d      	orrs	r5, r3
    25e8:	79c3      	ldrb	r3, [r0, #7]
    25ea:	4313      	orrs	r3, r2
    25ec:	7842      	ldrb	r2, [r0, #1]
    25ee:	432b      	orrs	r3, r5
    25f0:	01d2      	lsls	r2, r2, #7
    25f2:	4313      	orrs	r3, r2
    25f4:	600b      	str	r3, [r1, #0]
    25f6:	7803      	ldrb	r3, [r0, #0]
    25f8:	2b04      	cmp	r3, #4
    25fa:	d11c      	bne.n	2636 <system_clock_source_dfll_set_config+0x86>
    25fc:	7b05      	ldrb	r5, [r0, #12]
    25fe:	89c2      	ldrh	r2, [r0, #14]
    2600:	8a06      	ldrh	r6, [r0, #16]
    2602:	2c02      	cmp	r4, #2
    2604:	d80c      	bhi.n	2620 <system_clock_source_dfll_set_config+0x70>
    2606:	23f8      	movs	r3, #248	; 0xf8
    2608:	062d      	lsls	r5, r5, #24
    260a:	055b      	lsls	r3, r3, #21
    260c:	20ff      	movs	r0, #255	; 0xff
    260e:	401d      	ands	r5, r3
    2610:	1c2b      	adds	r3, r5, #0
    2612:	0412      	lsls	r2, r2, #16
    2614:	0400      	lsls	r0, r0, #16
    2616:	4002      	ands	r2, r0
    2618:	4313      	orrs	r3, r2
    261a:	4333      	orrs	r3, r6
    261c:	608b      	str	r3, [r1, #8]
    261e:	e006      	b.n	262e <system_clock_source_dfll_set_config+0x7e>
    2620:	4807      	ldr	r0, [pc, #28]	; (2640 <system_clock_source_dfll_set_config+0x90>)
    2622:	06ad      	lsls	r5, r5, #26
    2624:	0412      	lsls	r2, r2, #16
    2626:	4335      	orrs	r5, r6
    2628:	4002      	ands	r2, r0
    262a:	4315      	orrs	r5, r2
    262c:	608d      	str	r5, [r1, #8]
    262e:	2204      	movs	r2, #4
    2630:	680b      	ldr	r3, [r1, #0]
    2632:	4313      	orrs	r3, r2
    2634:	600b      	str	r3, [r1, #0]
    2636:	bd70      	pop	{r4, r5, r6, pc}
    2638:	41002000 	.word	0x41002000
    263c:	200008d4 	.word	0x200008d4
    2640:	03ff0000 	.word	0x03ff0000

00002644 <system_clock_source_enable>:
    2644:	b508      	push	{r3, lr}
    2646:	2807      	cmp	r0, #7
    2648:	d805      	bhi.n	2656 <system_clock_source_enable+0x12>
    264a:	f000 fb25 	bl	2c98 <__gnu_thumb1_case_uqi>
    264e:	0412      	.short	0x0412
    2650:	180c2104 	.word	0x180c2104
    2654:	1e06      	.short	0x1e06
    2656:	2017      	movs	r0, #23
    2658:	e01b      	b.n	2692 <system_clock_source_enable+0x4e>
    265a:	2102      	movs	r1, #2
    265c:	4a0d      	ldr	r2, [pc, #52]	; (2694 <system_clock_source_enable+0x50>)
    265e:	6a13      	ldr	r3, [r2, #32]
    2660:	430b      	orrs	r3, r1
    2662:	6213      	str	r3, [r2, #32]
    2664:	e014      	b.n	2690 <system_clock_source_enable+0x4c>
    2666:	2102      	movs	r1, #2
    2668:	4a0a      	ldr	r2, [pc, #40]	; (2694 <system_clock_source_enable+0x50>)
    266a:	6993      	ldr	r3, [r2, #24]
    266c:	430b      	orrs	r3, r1
    266e:	6193      	str	r3, [r2, #24]
    2670:	e00e      	b.n	2690 <system_clock_source_enable+0x4c>
    2672:	2102      	movs	r1, #2
    2674:	4a07      	ldr	r2, [pc, #28]	; (2694 <system_clock_source_enable+0x50>)
    2676:	8a13      	ldrh	r3, [r2, #16]
    2678:	430b      	orrs	r3, r1
    267a:	8213      	strh	r3, [r2, #16]
    267c:	e008      	b.n	2690 <system_clock_source_enable+0x4c>
    267e:	2102      	movs	r1, #2
    2680:	4a04      	ldr	r2, [pc, #16]	; (2694 <system_clock_source_enable+0x50>)
    2682:	8a93      	ldrh	r3, [r2, #20]
    2684:	430b      	orrs	r3, r1
    2686:	8293      	strh	r3, [r2, #20]
    2688:	e002      	b.n	2690 <system_clock_source_enable+0x4c>
    268a:	4b03      	ldr	r3, [pc, #12]	; (2698 <system_clock_source_enable+0x54>)
    268c:	4798      	blx	r3
    268e:	e000      	b.n	2692 <system_clock_source_enable+0x4e>
    2690:	2000      	movs	r0, #0
    2692:	bd08      	pop	{r3, pc}
    2694:	40000800 	.word	0x40000800
    2698:	0000244d 	.word	0x0000244d

0000269c <system_clock_init>:
    269c:	23c2      	movs	r3, #194	; 0xc2
    269e:	201e      	movs	r0, #30
    26a0:	b5f0      	push	{r4, r5, r6, r7, lr}
    26a2:	4a53      	ldr	r2, [pc, #332]	; (27f0 <system_clock_init+0x154>)
    26a4:	00db      	lsls	r3, r3, #3
    26a6:	4953      	ldr	r1, [pc, #332]	; (27f4 <system_clock_init+0x158>)
    26a8:	6093      	str	r3, [r2, #8]
    26aa:	684b      	ldr	r3, [r1, #4]
    26ac:	2500      	movs	r5, #0
    26ae:	4383      	bics	r3, r0
    26b0:	381c      	subs	r0, #28
    26b2:	4303      	orrs	r3, r0
    26b4:	604b      	str	r3, [r1, #4]
    26b6:	2304      	movs	r3, #4
    26b8:	b08f      	sub	sp, #60	; 0x3c
    26ba:	ac09      	add	r4, sp, #36	; 0x24
    26bc:	7023      	strb	r3, [r4, #0]
    26be:	9200      	str	r2, [sp, #0]
    26c0:	4e4d      	ldr	r6, [pc, #308]	; (27f8 <system_clock_init+0x15c>)
    26c2:	b2e8      	uxtb	r0, r5
    26c4:	1c21      	adds	r1, r4, #0
    26c6:	3501      	adds	r5, #1
    26c8:	47b0      	blx	r6
    26ca:	9601      	str	r6, [sp, #4]
    26cc:	2d1c      	cmp	r5, #28
    26ce:	d1f7      	bne.n	26c0 <system_clock_init+0x24>
    26d0:	230f      	movs	r3, #15
    26d2:	2500      	movs	r5, #0
    26d4:	2601      	movs	r6, #1
    26d6:	a803      	add	r0, sp, #12
    26d8:	7043      	strb	r3, [r0, #1]
    26da:	4b48      	ldr	r3, [pc, #288]	; (27fc <system_clock_init+0x160>)
    26dc:	7005      	strb	r5, [r0, #0]
    26de:	6043      	str	r3, [r0, #4]
    26e0:	4b47      	ldr	r3, [pc, #284]	; (2800 <system_clock_init+0x164>)
    26e2:	7246      	strb	r6, [r0, #9]
    26e4:	7085      	strb	r5, [r0, #2]
    26e6:	7206      	strb	r6, [r0, #8]
    26e8:	4798      	blx	r3
    26ea:	4b46      	ldr	r3, [pc, #280]	; (2804 <system_clock_init+0x168>)
    26ec:	1c28      	adds	r0, r5, #0
    26ee:	4798      	blx	r3
    26f0:	2307      	movs	r3, #7
    26f2:	7223      	strb	r3, [r4, #8]
    26f4:	3338      	adds	r3, #56	; 0x38
    26f6:	8163      	strh	r3, [r4, #10]
    26f8:	3b39      	subs	r3, #57	; 0x39
    26fa:	8223      	strh	r3, [r4, #16]
    26fc:	3b02      	subs	r3, #2
    26fe:	7023      	strb	r3, [r4, #0]
    2700:	4b41      	ldr	r3, [pc, #260]	; (2808 <system_clock_init+0x16c>)
    2702:	8065      	strh	r5, [r4, #2]
    2704:	80a5      	strh	r5, [r4, #4]
    2706:	71a5      	strb	r5, [r4, #6]
    2708:	71e5      	strb	r5, [r4, #7]
    270a:	7326      	strb	r6, [r4, #12]
    270c:	81e6      	strh	r6, [r4, #14]
    270e:	7065      	strb	r5, [r4, #1]
    2710:	699b      	ldr	r3, [r3, #24]
    2712:	051b      	lsls	r3, r3, #20
    2714:	0f1b      	lsrs	r3, r3, #28
    2716:	2b02      	cmp	r3, #2
    2718:	d906      	bls.n	2728 <system_clock_init+0x8c>
    271a:	4b3c      	ldr	r3, [pc, #240]	; (280c <system_clock_init+0x170>)
    271c:	681b      	ldr	r3, [r3, #0]
    271e:	0e9b      	lsrs	r3, r3, #26
    2720:	2b3f      	cmp	r3, #63	; 0x3f
    2722:	d100      	bne.n	2726 <system_clock_init+0x8a>
    2724:	3b20      	subs	r3, #32
    2726:	7223      	strb	r3, [r4, #8]
    2728:	23c0      	movs	r3, #192	; 0xc0
    272a:	00db      	lsls	r3, r3, #3
    272c:	8223      	strh	r3, [r4, #16]
    272e:	2307      	movs	r3, #7
    2730:	2500      	movs	r5, #0
    2732:	2601      	movs	r6, #1
    2734:	7323      	strb	r3, [r4, #12]
    2736:	3338      	adds	r3, #56	; 0x38
    2738:	81e3      	strh	r3, [r4, #14]
    273a:	1c20      	adds	r0, r4, #0
    273c:	4b34      	ldr	r3, [pc, #208]	; (2810 <system_clock_init+0x174>)
    273e:	4798      	blx	r3
    2740:	ab02      	add	r3, sp, #8
    2742:	709e      	strb	r6, [r3, #2]
    2744:	1c18      	adds	r0, r3, #0
    2746:	705d      	strb	r5, [r3, #1]
    2748:	701d      	strb	r5, [r3, #0]
    274a:	4b32      	ldr	r3, [pc, #200]	; (2814 <system_clock_init+0x178>)
    274c:	4798      	blx	r3
    274e:	4b2d      	ldr	r3, [pc, #180]	; (2804 <system_clock_init+0x168>)
    2750:	2006      	movs	r0, #6
    2752:	4798      	blx	r3
    2754:	4b30      	ldr	r3, [pc, #192]	; (2818 <system_clock_init+0x17c>)
    2756:	4798      	blx	r3
    2758:	2306      	movs	r3, #6
    275a:	ac06      	add	r4, sp, #24
    275c:	1c30      	adds	r0, r6, #0
    275e:	1c21      	adds	r1, r4, #0
    2760:	4f2e      	ldr	r7, [pc, #184]	; (281c <system_clock_init+0x180>)
    2762:	7023      	strb	r3, [r4, #0]
    2764:	33fa      	adds	r3, #250	; 0xfa
    2766:	6063      	str	r3, [r4, #4]
    2768:	7226      	strb	r6, [r4, #8]
    276a:	7065      	strb	r5, [r4, #1]
    276c:	7265      	strb	r5, [r4, #9]
    276e:	47b8      	blx	r7
    2770:	1c30      	adds	r0, r6, #0
    2772:	4b2b      	ldr	r3, [pc, #172]	; (2820 <system_clock_init+0x184>)
    2774:	4798      	blx	r3
    2776:	2304      	movs	r3, #4
    2778:	1c21      	adds	r1, r4, #0
    277a:	7023      	strb	r3, [r4, #0]
    277c:	2002      	movs	r0, #2
    277e:	331c      	adds	r3, #28
    2780:	6063      	str	r3, [r4, #4]
    2782:	7226      	strb	r6, [r4, #8]
    2784:	7065      	strb	r5, [r4, #1]
    2786:	7265      	strb	r5, [r4, #9]
    2788:	47b8      	blx	r7
    278a:	4b25      	ldr	r3, [pc, #148]	; (2820 <system_clock_init+0x184>)
    278c:	2002      	movs	r0, #2
    278e:	4798      	blx	r3
    2790:	1c21      	adds	r1, r4, #0
    2792:	2003      	movs	r0, #3
    2794:	6066      	str	r6, [r4, #4]
    2796:	7065      	strb	r5, [r4, #1]
    2798:	7225      	strb	r5, [r4, #8]
    279a:	7265      	strb	r5, [r4, #9]
    279c:	7025      	strb	r5, [r4, #0]
    279e:	47b8      	blx	r7
    27a0:	2003      	movs	r0, #3
    27a2:	4b1f      	ldr	r3, [pc, #124]	; (2820 <system_clock_init+0x184>)
    27a4:	4798      	blx	r3
    27a6:	1c21      	adds	r1, r4, #0
    27a8:	1c28      	adds	r0, r5, #0
    27aa:	9b01      	ldr	r3, [sp, #4]
    27ac:	7026      	strb	r6, [r4, #0]
    27ae:	4798      	blx	r3
    27b0:	1c28      	adds	r0, r5, #0
    27b2:	4b1c      	ldr	r3, [pc, #112]	; (2824 <system_clock_init+0x188>)
    27b4:	4798      	blx	r3
    27b6:	4b1c      	ldr	r3, [pc, #112]	; (2828 <system_clock_init+0x18c>)
    27b8:	4798      	blx	r3
    27ba:	4e19      	ldr	r6, [pc, #100]	; (2820 <system_clock_init+0x184>)
    27bc:	9b00      	ldr	r3, [sp, #0]
    27be:	68da      	ldr	r2, [r3, #12]
    27c0:	23d0      	movs	r3, #208	; 0xd0
    27c2:	4013      	ands	r3, r2
    27c4:	2bd0      	cmp	r3, #208	; 0xd0
    27c6:	d1f9      	bne.n	27bc <system_clock_init+0x120>
    27c8:	2500      	movs	r5, #0
    27ca:	4b18      	ldr	r3, [pc, #96]	; (282c <system_clock_init+0x190>)
    27cc:	1c28      	adds	r0, r5, #0
    27ce:	721d      	strb	r5, [r3, #8]
    27d0:	725d      	strb	r5, [r3, #9]
    27d2:	729d      	strb	r5, [r3, #10]
    27d4:	72dd      	strb	r5, [r3, #11]
    27d6:	2301      	movs	r3, #1
    27d8:	1c21      	adds	r1, r4, #0
    27da:	6063      	str	r3, [r4, #4]
    27dc:	3306      	adds	r3, #6
    27de:	7023      	strb	r3, [r4, #0]
    27e0:	7065      	strb	r5, [r4, #1]
    27e2:	7225      	strb	r5, [r4, #8]
    27e4:	7265      	strb	r5, [r4, #9]
    27e6:	47b8      	blx	r7
    27e8:	1c28      	adds	r0, r5, #0
    27ea:	47b0      	blx	r6
    27ec:	b00f      	add	sp, #60	; 0x3c
    27ee:	bdf0      	pop	{r4, r5, r6, r7, pc}
    27f0:	40000800 	.word	0x40000800
    27f4:	41004000 	.word	0x41004000
    27f8:	00002a4d 	.word	0x00002a4d
    27fc:	007a1200 	.word	0x007a1200
    2800:	00002539 	.word	0x00002539
    2804:	00002645 	.word	0x00002645
    2808:	41002000 	.word	0x41002000
    280c:	00806024 	.word	0x00806024
    2810:	000025b1 	.word	0x000025b1
    2814:	000024fd 	.word	0x000024fd
    2818:	0000283d 	.word	0x0000283d
    281c:	0000285d 	.word	0x0000285d
    2820:	00002901 	.word	0x00002901
    2824:	000029c9 	.word	0x000029c9
    2828:	0000244d 	.word	0x0000244d
    282c:	40000400 	.word	0x40000400

00002830 <system_gclk_is_syncing>:
    2830:	4b01      	ldr	r3, [pc, #4]	; (2838 <system_gclk_is_syncing+0x8>)
    2832:	7858      	ldrb	r0, [r3, #1]
    2834:	09c0      	lsrs	r0, r0, #7
    2836:	4770      	bx	lr
    2838:	40000c00 	.word	0x40000c00

0000283c <system_gclk_init>:
    283c:	2108      	movs	r1, #8
    283e:	4a05      	ldr	r2, [pc, #20]	; (2854 <system_gclk_init+0x18>)
    2840:	6993      	ldr	r3, [r2, #24]
    2842:	430b      	orrs	r3, r1
    2844:	6193      	str	r3, [r2, #24]
    2846:	2201      	movs	r2, #1
    2848:	4b03      	ldr	r3, [pc, #12]	; (2858 <system_gclk_init+0x1c>)
    284a:	701a      	strb	r2, [r3, #0]
    284c:	781a      	ldrb	r2, [r3, #0]
    284e:	07d2      	lsls	r2, r2, #31
    2850:	d4fc      	bmi.n	284c <system_gclk_init+0x10>
    2852:	4770      	bx	lr
    2854:	40000400 	.word	0x40000400
    2858:	40000c00 	.word	0x40000c00

0000285c <system_gclk_gen_set_config>:
    285c:	b5f8      	push	{r3, r4, r5, r6, r7, lr}
    285e:	780c      	ldrb	r4, [r1, #0]
    2860:	784b      	ldrb	r3, [r1, #1]
    2862:	0224      	lsls	r4, r4, #8
    2864:	1c06      	adds	r6, r0, #0
    2866:	1c05      	adds	r5, r0, #0
    2868:	4304      	orrs	r4, r0
    286a:	2b00      	cmp	r3, #0
    286c:	d002      	beq.n	2874 <system_gclk_gen_set_config+0x18>
    286e:	2380      	movs	r3, #128	; 0x80
    2870:	02db      	lsls	r3, r3, #11
    2872:	431c      	orrs	r4, r3
    2874:	7a4b      	ldrb	r3, [r1, #9]
    2876:	2b00      	cmp	r3, #0
    2878:	d002      	beq.n	2880 <system_gclk_gen_set_config+0x24>
    287a:	2380      	movs	r3, #128	; 0x80
    287c:	031b      	lsls	r3, r3, #12
    287e:	431c      	orrs	r4, r3
    2880:	684b      	ldr	r3, [r1, #4]
    2882:	2b01      	cmp	r3, #1
    2884:	d912      	bls.n	28ac <system_gclk_gen_set_config+0x50>
    2886:	1e5d      	subs	r5, r3, #1
    2888:	401d      	ands	r5, r3
    288a:	d10a      	bne.n	28a2 <system_gclk_gen_set_config+0x46>
    288c:	2202      	movs	r2, #2
    288e:	429a      	cmp	r2, r3
    2890:	d202      	bcs.n	2898 <system_gclk_gen_set_config+0x3c>
    2892:	3501      	adds	r5, #1
    2894:	0052      	lsls	r2, r2, #1
    2896:	e7fa      	b.n	288e <system_gclk_gen_set_config+0x32>
    2898:	2380      	movs	r3, #128	; 0x80
    289a:	022d      	lsls	r5, r5, #8
    289c:	4335      	orrs	r5, r6
    289e:	035b      	lsls	r3, r3, #13
    28a0:	e003      	b.n	28aa <system_gclk_gen_set_config+0x4e>
    28a2:	021d      	lsls	r5, r3, #8
    28a4:	2380      	movs	r3, #128	; 0x80
    28a6:	4335      	orrs	r5, r6
    28a8:	029b      	lsls	r3, r3, #10
    28aa:	431c      	orrs	r4, r3
    28ac:	7a0b      	ldrb	r3, [r1, #8]
    28ae:	2b00      	cmp	r3, #0
    28b0:	d002      	beq.n	28b8 <system_gclk_gen_set_config+0x5c>
    28b2:	2380      	movs	r3, #128	; 0x80
    28b4:	039b      	lsls	r3, r3, #14
    28b6:	431c      	orrs	r4, r3
    28b8:	4f0c      	ldr	r7, [pc, #48]	; (28ec <system_gclk_gen_set_config+0x90>)
    28ba:	47b8      	blx	r7
    28bc:	2800      	cmp	r0, #0
    28be:	d1fb      	bne.n	28b8 <system_gclk_gen_set_config+0x5c>
    28c0:	4b0b      	ldr	r3, [pc, #44]	; (28f0 <system_gclk_gen_set_config+0x94>)
    28c2:	4798      	blx	r3
    28c4:	4b0b      	ldr	r3, [pc, #44]	; (28f4 <system_gclk_gen_set_config+0x98>)
    28c6:	701e      	strb	r6, [r3, #0]
    28c8:	47b8      	blx	r7
    28ca:	2800      	cmp	r0, #0
    28cc:	d1fc      	bne.n	28c8 <system_gclk_gen_set_config+0x6c>
    28ce:	4b0a      	ldr	r3, [pc, #40]	; (28f8 <system_gclk_gen_set_config+0x9c>)
    28d0:	609d      	str	r5, [r3, #8]
    28d2:	1c1d      	adds	r5, r3, #0
    28d4:	47b8      	blx	r7
    28d6:	2800      	cmp	r0, #0
    28d8:	d1fc      	bne.n	28d4 <system_gclk_gen_set_config+0x78>
    28da:	2380      	movs	r3, #128	; 0x80
    28dc:	686a      	ldr	r2, [r5, #4]
    28de:	025b      	lsls	r3, r3, #9
    28e0:	4013      	ands	r3, r2
    28e2:	431c      	orrs	r4, r3
    28e4:	606c      	str	r4, [r5, #4]
    28e6:	4b05      	ldr	r3, [pc, #20]	; (28fc <system_gclk_gen_set_config+0xa0>)
    28e8:	4798      	blx	r3
    28ea:	bdf8      	pop	{r3, r4, r5, r6, r7, pc}
    28ec:	00002831 	.word	0x00002831
    28f0:	000023e9 	.word	0x000023e9
    28f4:	40000c08 	.word	0x40000c08
    28f8:	40000c00 	.word	0x40000c00
    28fc:	0000241d 	.word	0x0000241d

00002900 <system_gclk_gen_enable>:
    2900:	b538      	push	{r3, r4, r5, lr}
    2902:	1c05      	adds	r5, r0, #0
    2904:	4c09      	ldr	r4, [pc, #36]	; (292c <system_gclk_gen_enable+0x2c>)
    2906:	47a0      	blx	r4
    2908:	2800      	cmp	r0, #0
    290a:	d1fb      	bne.n	2904 <system_gclk_gen_enable+0x4>
    290c:	4b08      	ldr	r3, [pc, #32]	; (2930 <system_gclk_gen_enable+0x30>)
    290e:	4798      	blx	r3
    2910:	4b08      	ldr	r3, [pc, #32]	; (2934 <system_gclk_gen_enable+0x34>)
    2912:	701d      	strb	r5, [r3, #0]
    2914:	47a0      	blx	r4
    2916:	2800      	cmp	r0, #0
    2918:	d1fc      	bne.n	2914 <system_gclk_gen_enable+0x14>
    291a:	2180      	movs	r1, #128	; 0x80
    291c:	4a06      	ldr	r2, [pc, #24]	; (2938 <system_gclk_gen_enable+0x38>)
    291e:	0249      	lsls	r1, r1, #9
    2920:	6853      	ldr	r3, [r2, #4]
    2922:	430b      	orrs	r3, r1
    2924:	6053      	str	r3, [r2, #4]
    2926:	4b05      	ldr	r3, [pc, #20]	; (293c <system_gclk_gen_enable+0x3c>)
    2928:	4798      	blx	r3
    292a:	bd38      	pop	{r3, r4, r5, pc}
    292c:	00002831 	.word	0x00002831
    2930:	000023e9 	.word	0x000023e9
    2934:	40000c04 	.word	0x40000c04
    2938:	40000c00 	.word	0x40000c00
    293c:	0000241d 	.word	0x0000241d

00002940 <system_gclk_gen_get_hz>:
    2940:	b5f7      	push	{r0, r1, r2, r4, r5, r6, r7, lr}
    2942:	1c07      	adds	r7, r0, #0
    2944:	4e18      	ldr	r6, [pc, #96]	; (29a8 <system_gclk_gen_get_hz+0x68>)
    2946:	47b0      	blx	r6
    2948:	2800      	cmp	r0, #0
    294a:	d1fb      	bne.n	2944 <system_gclk_gen_get_hz+0x4>
    294c:	4b17      	ldr	r3, [pc, #92]	; (29ac <system_gclk_gen_get_hz+0x6c>)
    294e:	4798      	blx	r3
    2950:	4b17      	ldr	r3, [pc, #92]	; (29b0 <system_gclk_gen_get_hz+0x70>)
    2952:	701f      	strb	r7, [r3, #0]
    2954:	9301      	str	r3, [sp, #4]
    2956:	47b0      	blx	r6
    2958:	2800      	cmp	r0, #0
    295a:	d1fc      	bne.n	2956 <system_gclk_gen_get_hz+0x16>
    295c:	4d15      	ldr	r5, [pc, #84]	; (29b4 <system_gclk_gen_get_hz+0x74>)
    295e:	4b16      	ldr	r3, [pc, #88]	; (29b8 <system_gclk_gen_get_hz+0x78>)
    2960:	6868      	ldr	r0, [r5, #4]
    2962:	04c0      	lsls	r0, r0, #19
    2964:	0ec0      	lsrs	r0, r0, #27
    2966:	4798      	blx	r3
    2968:	1c04      	adds	r4, r0, #0
    296a:	9b01      	ldr	r3, [sp, #4]
    296c:	701f      	strb	r7, [r3, #0]
    296e:	686b      	ldr	r3, [r5, #4]
    2970:	02db      	lsls	r3, r3, #11
    2972:	0fdb      	lsrs	r3, r3, #31
    2974:	9301      	str	r3, [sp, #4]
    2976:	4b11      	ldr	r3, [pc, #68]	; (29bc <system_gclk_gen_get_hz+0x7c>)
    2978:	701f      	strb	r7, [r3, #0]
    297a:	47b0      	blx	r6
    297c:	2800      	cmp	r0, #0
    297e:	d1fc      	bne.n	297a <system_gclk_gen_get_hz+0x3a>
    2980:	68ad      	ldr	r5, [r5, #8]
    2982:	4b0f      	ldr	r3, [pc, #60]	; (29c0 <system_gclk_gen_get_hz+0x80>)
    2984:	4798      	blx	r3
    2986:	9b01      	ldr	r3, [sp, #4]
    2988:	0a2d      	lsrs	r5, r5, #8
    298a:	b2ad      	uxth	r5, r5
    298c:	2b00      	cmp	r3, #0
    298e:	d107      	bne.n	29a0 <system_gclk_gen_get_hz+0x60>
    2990:	2d01      	cmp	r5, #1
    2992:	d907      	bls.n	29a4 <system_gclk_gen_get_hz+0x64>
    2994:	1c20      	adds	r0, r4, #0
    2996:	1c29      	adds	r1, r5, #0
    2998:	4b0a      	ldr	r3, [pc, #40]	; (29c4 <system_gclk_gen_get_hz+0x84>)
    299a:	4798      	blx	r3
    299c:	1c04      	adds	r4, r0, #0
    299e:	e001      	b.n	29a4 <system_gclk_gen_get_hz+0x64>
    29a0:	3501      	adds	r5, #1
    29a2:	40ec      	lsrs	r4, r5
    29a4:	1c20      	adds	r0, r4, #0
    29a6:	bdfe      	pop	{r1, r2, r3, r4, r5, r6, r7, pc}
    29a8:	00002831 	.word	0x00002831
    29ac:	000023e9 	.word	0x000023e9
    29b0:	40000c04 	.word	0x40000c04
    29b4:	40000c00 	.word	0x40000c00
    29b8:	00002485 	.word	0x00002485
    29bc:	40000c08 	.word	0x40000c08
    29c0:	0000241d 	.word	0x0000241d
    29c4:	00002cad 	.word	0x00002cad

000029c8 <system_gclk_chan_enable>:
    29c8:	b510      	push	{r4, lr}
    29ca:	1c04      	adds	r4, r0, #0
    29cc:	4b06      	ldr	r3, [pc, #24]	; (29e8 <system_gclk_chan_enable+0x20>)
    29ce:	4798      	blx	r3
    29d0:	2180      	movs	r1, #128	; 0x80
    29d2:	4b06      	ldr	r3, [pc, #24]	; (29ec <system_gclk_chan_enable+0x24>)
    29d4:	4a06      	ldr	r2, [pc, #24]	; (29f0 <system_gclk_chan_enable+0x28>)
    29d6:	701c      	strb	r4, [r3, #0]
    29d8:	8853      	ldrh	r3, [r2, #2]
    29da:	01c9      	lsls	r1, r1, #7
    29dc:	430b      	orrs	r3, r1
    29de:	8053      	strh	r3, [r2, #2]
    29e0:	4b04      	ldr	r3, [pc, #16]	; (29f4 <system_gclk_chan_enable+0x2c>)
    29e2:	4798      	blx	r3
    29e4:	bd10      	pop	{r4, pc}
    29e6:	46c0      	nop			; (mov r8, r8)
    29e8:	000023e9 	.word	0x000023e9
    29ec:	40000c02 	.word	0x40000c02
    29f0:	40000c00 	.word	0x40000c00
    29f4:	0000241d 	.word	0x0000241d

000029f8 <system_gclk_chan_disable>:
    29f8:	b510      	push	{r4, lr}
    29fa:	1c04      	adds	r4, r0, #0
    29fc:	4b0d      	ldr	r3, [pc, #52]	; (2a34 <system_gclk_chan_disable+0x3c>)
    29fe:	4798      	blx	r3
    2a00:	4b0d      	ldr	r3, [pc, #52]	; (2a38 <system_gclk_chan_disable+0x40>)
    2a02:	4a0e      	ldr	r2, [pc, #56]	; (2a3c <system_gclk_chan_disable+0x44>)
    2a04:	701c      	strb	r4, [r3, #0]
    2a06:	4b0e      	ldr	r3, [pc, #56]	; (2a40 <system_gclk_chan_disable+0x48>)
    2a08:	8859      	ldrh	r1, [r3, #2]
    2a0a:	8858      	ldrh	r0, [r3, #2]
    2a0c:	0509      	lsls	r1, r1, #20
    2a0e:	4010      	ands	r0, r2
    2a10:	8058      	strh	r0, [r3, #2]
    2a12:	885c      	ldrh	r4, [r3, #2]
    2a14:	480b      	ldr	r0, [pc, #44]	; (2a44 <system_gclk_chan_disable+0x4c>)
    2a16:	0f09      	lsrs	r1, r1, #28
    2a18:	4020      	ands	r0, r4
    2a1a:	8058      	strh	r0, [r3, #2]
    2a1c:	885c      	ldrh	r4, [r3, #2]
    2a1e:	4808      	ldr	r0, [pc, #32]	; (2a40 <system_gclk_chan_disable+0x48>)
    2a20:	0464      	lsls	r4, r4, #17
    2a22:	d4fb      	bmi.n	2a1c <system_gclk_chan_disable+0x24>
    2a24:	020b      	lsls	r3, r1, #8
    2a26:	8841      	ldrh	r1, [r0, #2]
    2a28:	400a      	ands	r2, r1
    2a2a:	431a      	orrs	r2, r3
    2a2c:	8042      	strh	r2, [r0, #2]
    2a2e:	4b06      	ldr	r3, [pc, #24]	; (2a48 <system_gclk_chan_disable+0x50>)
    2a30:	4798      	blx	r3
    2a32:	bd10      	pop	{r4, pc}
    2a34:	000023e9 	.word	0x000023e9
    2a38:	40000c02 	.word	0x40000c02
    2a3c:	fffff0ff 	.word	0xfffff0ff
    2a40:	40000c00 	.word	0x40000c00
    2a44:	ffffbfff 	.word	0xffffbfff
    2a48:	0000241d 	.word	0x0000241d

00002a4c <system_gclk_chan_set_config>:
    2a4c:	b510      	push	{r4, lr}
    2a4e:	780c      	ldrb	r4, [r1, #0]
    2a50:	4b03      	ldr	r3, [pc, #12]	; (2a60 <system_gclk_chan_set_config+0x14>)
    2a52:	0224      	lsls	r4, r4, #8
    2a54:	4304      	orrs	r4, r0
    2a56:	4798      	blx	r3
    2a58:	4b02      	ldr	r3, [pc, #8]	; (2a64 <system_gclk_chan_set_config+0x18>)
    2a5a:	b2a4      	uxth	r4, r4
    2a5c:	805c      	strh	r4, [r3, #2]
    2a5e:	bd10      	pop	{r4, pc}
    2a60:	000029f9 	.word	0x000029f9
    2a64:	40000c00 	.word	0x40000c00

00002a68 <system_gclk_chan_lock>:
    2a68:	b510      	push	{r4, lr}
    2a6a:	1c04      	adds	r4, r0, #0
    2a6c:	4b06      	ldr	r3, [pc, #24]	; (2a88 <system_gclk_chan_lock+0x20>)
    2a6e:	4798      	blx	r3
    2a70:	4b06      	ldr	r3, [pc, #24]	; (2a8c <system_gclk_chan_lock+0x24>)
    2a72:	4a07      	ldr	r2, [pc, #28]	; (2a90 <system_gclk_chan_lock+0x28>)
    2a74:	701c      	strb	r4, [r3, #0]
    2a76:	23c0      	movs	r3, #192	; 0xc0
    2a78:	8851      	ldrh	r1, [r2, #2]
    2a7a:	021b      	lsls	r3, r3, #8
    2a7c:	430b      	orrs	r3, r1
    2a7e:	8053      	strh	r3, [r2, #2]
    2a80:	4b04      	ldr	r3, [pc, #16]	; (2a94 <system_gclk_chan_lock+0x2c>)
    2a82:	4798      	blx	r3
    2a84:	bd10      	pop	{r4, pc}
    2a86:	46c0      	nop			; (mov r8, r8)
    2a88:	000023e9 	.word	0x000023e9
    2a8c:	40000c02 	.word	0x40000c02
    2a90:	40000c00 	.word	0x40000c00
    2a94:	0000241d 	.word	0x0000241d

00002a98 <system_gclk_chan_get_hz>:
    2a98:	b510      	push	{r4, lr}
    2a9a:	1c04      	adds	r4, r0, #0
    2a9c:	4b06      	ldr	r3, [pc, #24]	; (2ab8 <system_gclk_chan_get_hz+0x20>)
    2a9e:	4798      	blx	r3
    2aa0:	4b06      	ldr	r3, [pc, #24]	; (2abc <system_gclk_chan_get_hz+0x24>)
    2aa2:	701c      	strb	r4, [r3, #0]
    2aa4:	4b06      	ldr	r3, [pc, #24]	; (2ac0 <system_gclk_chan_get_hz+0x28>)
    2aa6:	885c      	ldrh	r4, [r3, #2]
    2aa8:	4b06      	ldr	r3, [pc, #24]	; (2ac4 <system_gclk_chan_get_hz+0x2c>)
    2aaa:	0524      	lsls	r4, r4, #20
    2aac:	0f24      	lsrs	r4, r4, #28
    2aae:	4798      	blx	r3
    2ab0:	1c20      	adds	r0, r4, #0
    2ab2:	4b05      	ldr	r3, [pc, #20]	; (2ac8 <system_gclk_chan_get_hz+0x30>)
    2ab4:	4798      	blx	r3
    2ab6:	bd10      	pop	{r4, pc}
    2ab8:	000023e9 	.word	0x000023e9
    2abc:	40000c02 	.word	0x40000c02
    2ac0:	40000c00 	.word	0x40000c00
    2ac4:	0000241d 	.word	0x0000241d
    2ac8:	00002941 	.word	0x00002941

00002acc <_system_pinmux_config>:
    2acc:	78d3      	ldrb	r3, [r2, #3]
    2ace:	b530      	push	{r4, r5, lr}
    2ad0:	2b00      	cmp	r3, #0
    2ad2:	d11b      	bne.n	2b0c <_system_pinmux_config+0x40>
    2ad4:	7814      	ldrb	r4, [r2, #0]
    2ad6:	2c80      	cmp	r4, #128	; 0x80
    2ad8:	d003      	beq.n	2ae2 <_system_pinmux_config+0x16>
    2ada:	2380      	movs	r3, #128	; 0x80
    2adc:	0624      	lsls	r4, r4, #24
    2ade:	025b      	lsls	r3, r3, #9
    2ae0:	4323      	orrs	r3, r4
    2ae2:	2502      	movs	r5, #2
    2ae4:	7854      	ldrb	r4, [r2, #1]
    2ae6:	43ac      	bics	r4, r5
    2ae8:	d109      	bne.n	2afe <_system_pinmux_config+0x32>
    2aea:	7894      	ldrb	r4, [r2, #2]
    2aec:	2c00      	cmp	r4, #0
    2aee:	d102      	bne.n	2af6 <_system_pinmux_config+0x2a>
    2af0:	2480      	movs	r4, #128	; 0x80
    2af2:	02a4      	lsls	r4, r4, #10
    2af4:	e001      	b.n	2afa <_system_pinmux_config+0x2e>
    2af6:	24c0      	movs	r4, #192	; 0xc0
    2af8:	02e4      	lsls	r4, r4, #11
    2afa:	4323      	orrs	r3, r4
    2afc:	6041      	str	r1, [r0, #4]
    2afe:	7854      	ldrb	r4, [r2, #1]
    2b00:	3c01      	subs	r4, #1
    2b02:	2c01      	cmp	r4, #1
    2b04:	d804      	bhi.n	2b10 <_system_pinmux_config+0x44>
    2b06:	4c11      	ldr	r4, [pc, #68]	; (2b4c <_system_pinmux_config+0x80>)
    2b08:	4023      	ands	r3, r4
    2b0a:	e001      	b.n	2b10 <_system_pinmux_config+0x44>
    2b0c:	2300      	movs	r3, #0
    2b0e:	6041      	str	r1, [r0, #4]
    2b10:	25a0      	movs	r5, #160	; 0xa0
    2b12:	b28c      	uxth	r4, r1
    2b14:	05ed      	lsls	r5, r5, #23
    2b16:	432c      	orrs	r4, r5
    2b18:	25d0      	movs	r5, #208	; 0xd0
    2b1a:	431c      	orrs	r4, r3
    2b1c:	6284      	str	r4, [r0, #40]	; 0x28
    2b1e:	062d      	lsls	r5, r5, #24
    2b20:	0c0c      	lsrs	r4, r1, #16
    2b22:	432c      	orrs	r4, r5
    2b24:	431c      	orrs	r4, r3
    2b26:	6284      	str	r4, [r0, #40]	; 0x28
    2b28:	78d4      	ldrb	r4, [r2, #3]
    2b2a:	2c00      	cmp	r4, #0
    2b2c:	d10c      	bne.n	2b48 <_system_pinmux_config+0x7c>
    2b2e:	035b      	lsls	r3, r3, #13
    2b30:	d505      	bpl.n	2b3e <_system_pinmux_config+0x72>
    2b32:	7893      	ldrb	r3, [r2, #2]
    2b34:	2b01      	cmp	r3, #1
    2b36:	d101      	bne.n	2b3c <_system_pinmux_config+0x70>
    2b38:	6181      	str	r1, [r0, #24]
    2b3a:	e000      	b.n	2b3e <_system_pinmux_config+0x72>
    2b3c:	6141      	str	r1, [r0, #20]
    2b3e:	7853      	ldrb	r3, [r2, #1]
    2b40:	3b01      	subs	r3, #1
    2b42:	2b01      	cmp	r3, #1
    2b44:	d800      	bhi.n	2b48 <_system_pinmux_config+0x7c>
    2b46:	6081      	str	r1, [r0, #8]
    2b48:	bd30      	pop	{r4, r5, pc}
    2b4a:	46c0      	nop			; (mov r8, r8)
    2b4c:	fffbffff 	.word	0xfffbffff

00002b50 <system_pinmux_pin_set_config>:
    2b50:	b510      	push	{r4, lr}
    2b52:	2400      	movs	r4, #0
    2b54:	1c0a      	adds	r2, r1, #0
    2b56:	0943      	lsrs	r3, r0, #5
    2b58:	09c1      	lsrs	r1, r0, #7
    2b5a:	42a1      	cmp	r1, r4
    2b5c:	d102      	bne.n	2b64 <system_pinmux_pin_set_config+0x14>
    2b5e:	4906      	ldr	r1, [pc, #24]	; (2b78 <system_pinmux_pin_set_config+0x28>)
    2b60:	01db      	lsls	r3, r3, #7
    2b62:	185c      	adds	r4, r3, r1
    2b64:	211f      	movs	r1, #31
    2b66:	2301      	movs	r3, #1
    2b68:	4001      	ands	r1, r0
    2b6a:	408b      	lsls	r3, r1
    2b6c:	1c20      	adds	r0, r4, #0
    2b6e:	1c19      	adds	r1, r3, #0
    2b70:	4b02      	ldr	r3, [pc, #8]	; (2b7c <system_pinmux_pin_set_config+0x2c>)
    2b72:	4798      	blx	r3
    2b74:	bd10      	pop	{r4, pc}
    2b76:	46c0      	nop			; (mov r8, r8)
    2b78:	41004400 	.word	0x41004400
    2b7c:	00002acd 	.word	0x00002acd

00002b80 <_system_dummy_init>:
    2b80:	4770      	bx	lr
	...

00002b84 <system_init>:
    2b84:	b508      	push	{r3, lr}
    2b86:	4b05      	ldr	r3, [pc, #20]	; (2b9c <system_init+0x18>)
    2b88:	4798      	blx	r3
    2b8a:	4b05      	ldr	r3, [pc, #20]	; (2ba0 <system_init+0x1c>)
    2b8c:	4798      	blx	r3
    2b8e:	4b05      	ldr	r3, [pc, #20]	; (2ba4 <system_init+0x20>)
    2b90:	4798      	blx	r3
    2b92:	4b05      	ldr	r3, [pc, #20]	; (2ba8 <system_init+0x24>)
    2b94:	4798      	blx	r3
    2b96:	4b05      	ldr	r3, [pc, #20]	; (2bac <system_init+0x28>)
    2b98:	4798      	blx	r3
    2b9a:	bd08      	pop	{r3, pc}
    2b9c:	0000269d 	.word	0x0000269d
    2ba0:	000023e5 	.word	0x000023e5
    2ba4:	00002b81 	.word	0x00002b81
    2ba8:	00002b81 	.word	0x00002b81
    2bac:	00002b81 	.word	0x00002b81

00002bb0 <Dummy_Handler>:
    2bb0:	e7fe      	b.n	2bb0 <Dummy_Handler>
	...

00002bb4 <Reset_Handler>:
    2bb4:	4812      	ldr	r0, [pc, #72]	; (2c00 <Reset_Handler+0x4c>)
    2bb6:	4913      	ldr	r1, [pc, #76]	; (2c04 <Reset_Handler+0x50>)
    2bb8:	b510      	push	{r4, lr}
    2bba:	2300      	movs	r3, #0
    2bbc:	4288      	cmp	r0, r1
    2bbe:	d101      	bne.n	2bc4 <Reset_Handler+0x10>
    2bc0:	4b11      	ldr	r3, [pc, #68]	; (2c08 <Reset_Handler+0x54>)
    2bc2:	e007      	b.n	2bd4 <Reset_Handler+0x20>
    2bc4:	4c11      	ldr	r4, [pc, #68]	; (2c0c <Reset_Handler+0x58>)
    2bc6:	18ca      	adds	r2, r1, r3
    2bc8:	42a2      	cmp	r2, r4
    2bca:	d2f9      	bcs.n	2bc0 <Reset_Handler+0xc>
    2bcc:	58c4      	ldr	r4, [r0, r3]
    2bce:	3304      	adds	r3, #4
    2bd0:	6014      	str	r4, [r2, #0]
    2bd2:	e7f7      	b.n	2bc4 <Reset_Handler+0x10>
    2bd4:	4a0e      	ldr	r2, [pc, #56]	; (2c10 <Reset_Handler+0x5c>)
    2bd6:	4293      	cmp	r3, r2
    2bd8:	d202      	bcs.n	2be0 <Reset_Handler+0x2c>
    2bda:	2200      	movs	r2, #0
    2bdc:	c304      	stmia	r3!, {r2}
    2bde:	e7f9      	b.n	2bd4 <Reset_Handler+0x20>
    2be0:	21ff      	movs	r1, #255	; 0xff
    2be2:	4b0c      	ldr	r3, [pc, #48]	; (2c14 <Reset_Handler+0x60>)
    2be4:	4a0c      	ldr	r2, [pc, #48]	; (2c18 <Reset_Handler+0x64>)
    2be6:	438b      	bics	r3, r1
    2be8:	6093      	str	r3, [r2, #8]
    2bea:	4a0c      	ldr	r2, [pc, #48]	; (2c1c <Reset_Handler+0x68>)
    2bec:	397f      	subs	r1, #127	; 0x7f
    2bee:	6853      	ldr	r3, [r2, #4]
    2bf0:	430b      	orrs	r3, r1
    2bf2:	6053      	str	r3, [r2, #4]
    2bf4:	4b0a      	ldr	r3, [pc, #40]	; (2c20 <Reset_Handler+0x6c>)
    2bf6:	4798      	blx	r3
    2bf8:	4b0a      	ldr	r3, [pc, #40]	; (2c24 <Reset_Handler+0x70>)
    2bfa:	4798      	blx	r3
    2bfc:	e7fe      	b.n	2bfc <Reset_Handler+0x48>
    2bfe:	46c0      	nop			; (mov r8, r8)
    2c00:	0000360c 	.word	0x0000360c
    2c04:	20000000 	.word	0x20000000
    2c08:	2000000c 	.word	0x2000000c
    2c0c:	2000000c 	.word	0x2000000c
    2c10:	20000994 	.word	0x20000994
    2c14:	00000000 	.word	0x00000000
    2c18:	e000ed00 	.word	0xe000ed00
    2c1c:	41004000 	.word	0x41004000
    2c20:	00003465 	.word	0x00003465
    2c24:	00002c29 	.word	0x00002c29

00002c28 <main>:
    2c28:	b510      	push	{r4, lr}
    2c2a:	4b10      	ldr	r3, [pc, #64]	; (2c6c <main+0x44>)
    2c2c:	4798      	blx	r3
    2c2e:	4b10      	ldr	r3, [pc, #64]	; (2c70 <main+0x48>)
    2c30:	4798      	blx	r3
    2c32:	4c10      	ldr	r4, [pc, #64]	; (2c74 <main+0x4c>)
    2c34:	47a0      	blx	r4
    2c36:	4b10      	ldr	r3, [pc, #64]	; (2c78 <main+0x50>)
    2c38:	4798      	blx	r3
    2c3a:	4b10      	ldr	r3, [pc, #64]	; (2c7c <main+0x54>)
    2c3c:	4798      	blx	r3
    2c3e:	2800      	cmp	r0, #0
    2c40:	d006      	beq.n	2c50 <main+0x28>
    2c42:	2803      	cmp	r0, #3
    2c44:	d109      	bne.n	2c5a <main+0x32>
    2c46:	4b0e      	ldr	r3, [pc, #56]	; (2c80 <main+0x58>)
    2c48:	4798      	blx	r3
    2c4a:	47a0      	blx	r4
    2c4c:	4b0d      	ldr	r3, [pc, #52]	; (2c84 <main+0x5c>)
    2c4e:	e003      	b.n	2c58 <main+0x30>
    2c50:	4b0d      	ldr	r3, [pc, #52]	; (2c88 <main+0x60>)
    2c52:	4798      	blx	r3
    2c54:	47a0      	blx	r4
    2c56:	4b0d      	ldr	r3, [pc, #52]	; (2c8c <main+0x64>)
    2c58:	4798      	blx	r3
    2c5a:	f3bf 8f4f 	dsb	sy
    2c5e:	4a0c      	ldr	r2, [pc, #48]	; (2c90 <main+0x68>)
    2c60:	4b0c      	ldr	r3, [pc, #48]	; (2c94 <main+0x6c>)
    2c62:	60da      	str	r2, [r3, #12]
    2c64:	f3bf 8f4f 	dsb	sy
    2c68:	e7fe      	b.n	2c68 <main+0x40>
    2c6a:	46c0      	nop			; (mov r8, r8)
    2c6c:	00002b85 	.word	0x00002b85
    2c70:	000010a1 	.word	0x000010a1
    2c74:	00000e75 	.word	0x00000e75
    2c78:	00001329 	.word	0x00001329
    2c7c:	0000144d 	.word	0x0000144d
    2c80:	00002249 	.word	0x00002249
    2c84:	00002265 	.word	0x00002265
    2c88:	00002061 	.word	0x00002061
    2c8c:	00001d99 	.word	0x00001d99
    2c90:	05fa0004 	.word	0x05fa0004
    2c94:	e000ed00 	.word	0xe000ed00

00002c98 <__gnu_thumb1_case_uqi>:
    2c98:	b402      	push	{r1}
    2c9a:	4671      	mov	r1, lr
    2c9c:	0849      	lsrs	r1, r1, #1
    2c9e:	0049      	lsls	r1, r1, #1
    2ca0:	5c09      	ldrb	r1, [r1, r0]
    2ca2:	0049      	lsls	r1, r1, #1
    2ca4:	448e      	add	lr, r1
    2ca6:	bc02      	pop	{r1}
    2ca8:	4770      	bx	lr
    2caa:	46c0      	nop			; (mov r8, r8)

00002cac <__aeabi_uidiv>:
    2cac:	2200      	movs	r2, #0
    2cae:	0843      	lsrs	r3, r0, #1
    2cb0:	428b      	cmp	r3, r1
    2cb2:	d374      	bcc.n	2d9e <__aeabi_uidiv+0xf2>
    2cb4:	0903      	lsrs	r3, r0, #4
    2cb6:	428b      	cmp	r3, r1
    2cb8:	d35f      	bcc.n	2d7a <__aeabi_uidiv+0xce>
    2cba:	0a03      	lsrs	r3, r0, #8
    2cbc:	428b      	cmp	r3, r1
    2cbe:	d344      	bcc.n	2d4a <__aeabi_uidiv+0x9e>
    2cc0:	0b03      	lsrs	r3, r0, #12
    2cc2:	428b      	cmp	r3, r1
    2cc4:	d328      	bcc.n	2d18 <__aeabi_uidiv+0x6c>
    2cc6:	0c03      	lsrs	r3, r0, #16
    2cc8:	428b      	cmp	r3, r1
    2cca:	d30d      	bcc.n	2ce8 <__aeabi_uidiv+0x3c>
    2ccc:	22ff      	movs	r2, #255	; 0xff
    2cce:	0209      	lsls	r1, r1, #8
    2cd0:	ba12      	rev	r2, r2
    2cd2:	0c03      	lsrs	r3, r0, #16
    2cd4:	428b      	cmp	r3, r1
    2cd6:	d302      	bcc.n	2cde <__aeabi_uidiv+0x32>
    2cd8:	1212      	asrs	r2, r2, #8
    2cda:	0209      	lsls	r1, r1, #8
    2cdc:	d065      	beq.n	2daa <__aeabi_uidiv+0xfe>
    2cde:	0b03      	lsrs	r3, r0, #12
    2ce0:	428b      	cmp	r3, r1
    2ce2:	d319      	bcc.n	2d18 <__aeabi_uidiv+0x6c>
    2ce4:	e000      	b.n	2ce8 <__aeabi_uidiv+0x3c>
    2ce6:	0a09      	lsrs	r1, r1, #8
    2ce8:	0bc3      	lsrs	r3, r0, #15
    2cea:	428b      	cmp	r3, r1
    2cec:	d301      	bcc.n	2cf2 <__aeabi_uidiv+0x46>
    2cee:	03cb      	lsls	r3, r1, #15
    2cf0:	1ac0      	subs	r0, r0, r3
    2cf2:	4152      	adcs	r2, r2
    2cf4:	0b83      	lsrs	r3, r0, #14
    2cf6:	428b      	cmp	r3, r1
    2cf8:	d301      	bcc.n	2cfe <__aeabi_uidiv+0x52>
    2cfa:	038b      	lsls	r3, r1, #14
    2cfc:	1ac0      	subs	r0, r0, r3
    2cfe:	4152      	adcs	r2, r2
    2d00:	0b43      	lsrs	r3, r0, #13
    2d02:	428b      	cmp	r3, r1
    2d04:	d301      	bcc.n	2d0a <__aeabi_uidiv+0x5e>
    2d06:	034b      	lsls	r3, r1, #13
    2d08:	1ac0      	subs	r0, r0, r3
    2d0a:	4152      	adcs	r2, r2
    2d0c:	0b03      	lsrs	r3, r0, #12
    2d0e:	428b      	cmp	r3, r1
    2d10:	d301      	bcc.n	2d16 <__aeabi_uidiv+0x6a>
    2d12:	030b      	lsls	r3, r1, #12
    2d14:	1ac0      	subs	r0, r0, r3
    2d16:	4152      	adcs	r2, r2
    2d18:	0ac3      	lsrs	r3, r0, #11
    2d1a:	428b      	cmp	r3, r1
    2d1c:	d301      	bcc.n	2d22 <__aeabi_uidiv+0x76>
    2d1e:	02cb      	lsls	r3, r1, #11
    2d20:	1ac0      	subs	r0, r0, r3
    2d22:	4152      	adcs	r2, r2
    2d24:	0a83      	lsrs	r3, r0, #10
    2d26:	428b      	cmp	r3, r1
    2d28:	d301      	bcc.n	2d2e <__aeabi_uidiv+0x82>
    2d2a:	028b      	lsls	r3, r1, #10
    2d2c:	1ac0      	subs	r0, r0, r3
    2d2e:	4152      	adcs	r2, r2
    2d30:	0a43      	lsrs	r3, r0, #9
    2d32:	428b      	cmp	r3, r1
    2d34:	d301      	bcc.n	2d3a <__aeabi_uidiv+0x8e>
    2d36:	024b      	lsls	r3, r1, #9
    2d38:	1ac0      	subs	r0, r0, r3
    2d3a:	4152      	adcs	r2, r2
    2d3c:	0a03      	lsrs	r3, r0, #8
    2d3e:	428b      	cmp	r3, r1
    2d40:	d301      	bcc.n	2d46 <__aeabi_uidiv+0x9a>
    2d42:	020b      	lsls	r3, r1, #8
    2d44:	1ac0      	subs	r0, r0, r3
    2d46:	4152      	adcs	r2, r2
    2d48:	d2cd      	bcs.n	2ce6 <__aeabi_uidiv+0x3a>
    2d4a:	09c3      	lsrs	r3, r0, #7
    2d4c:	428b      	cmp	r3, r1
    2d4e:	d301      	bcc.n	2d54 <__aeabi_uidiv+0xa8>
    2d50:	01cb      	lsls	r3, r1, #7
    2d52:	1ac0      	subs	r0, r0, r3
    2d54:	4152      	adcs	r2, r2
    2d56:	0983      	lsrs	r3, r0, #6
    2d58:	428b      	cmp	r3, r1
    2d5a:	d301      	bcc.n	2d60 <__aeabi_uidiv+0xb4>
    2d5c:	018b      	lsls	r3, r1, #6
    2d5e:	1ac0      	subs	r0, r0, r3
    2d60:	4152      	adcs	r2, r2
    2d62:	0943      	lsrs	r3, r0, #5
    2d64:	428b      	cmp	r3, r1
    2d66:	d301      	bcc.n	2d6c <__aeabi_uidiv+0xc0>
    2d68:	014b      	lsls	r3, r1, #5
    2d6a:	1ac0      	subs	r0, r0, r3
    2d6c:	4152      	adcs	r2, r2
    2d6e:	0903      	lsrs	r3, r0, #4
    2d70:	428b      	cmp	r3, r1
    2d72:	d301      	bcc.n	2d78 <__aeabi_uidiv+0xcc>
    2d74:	010b      	lsls	r3, r1, #4
    2d76:	1ac0      	subs	r0, r0, r3
    2d78:	4152      	adcs	r2, r2
    2d7a:	08c3      	lsrs	r3, r0, #3
    2d7c:	428b      	cmp	r3, r1
    2d7e:	d301      	bcc.n	2d84 <__aeabi_uidiv+0xd8>
    2d80:	00cb      	lsls	r3, r1, #3
    2d82:	1ac0      	subs	r0, r0, r3
    2d84:	4152      	adcs	r2, r2
    2d86:	0883      	lsrs	r3, r0, #2
    2d88:	428b      	cmp	r3, r1
    2d8a:	d301      	bcc.n	2d90 <__aeabi_uidiv+0xe4>
    2d8c:	008b      	lsls	r3, r1, #2
    2d8e:	1ac0      	subs	r0, r0, r3
    2d90:	4152      	adcs	r2, r2
    2d92:	0843      	lsrs	r3, r0, #1
    2d94:	428b      	cmp	r3, r1
    2d96:	d301      	bcc.n	2d9c <__aeabi_uidiv+0xf0>
    2d98:	004b      	lsls	r3, r1, #1
    2d9a:	1ac0      	subs	r0, r0, r3
    2d9c:	4152      	adcs	r2, r2
    2d9e:	1a41      	subs	r1, r0, r1
    2da0:	d200      	bcs.n	2da4 <__aeabi_uidiv+0xf8>
    2da2:	4601      	mov	r1, r0
    2da4:	4152      	adcs	r2, r2
    2da6:	4610      	mov	r0, r2
    2da8:	4770      	bx	lr
    2daa:	e7ff      	b.n	2dac <__aeabi_uidiv+0x100>
    2dac:	b501      	push	{r0, lr}
    2dae:	2000      	movs	r0, #0
    2db0:	f000 f8fc 	bl	2fac <__aeabi_idiv0>
    2db4:	bd02      	pop	{r1, pc}
    2db6:	46c0      	nop			; (mov r8, r8)

00002db8 <__aeabi_uidivmod>:
    2db8:	2900      	cmp	r1, #0
    2dba:	d0f7      	beq.n	2dac <__aeabi_uidiv+0x100>
    2dbc:	b503      	push	{r0, r1, lr}
    2dbe:	f7ff ff75 	bl	2cac <__aeabi_uidiv>
    2dc2:	bc0e      	pop	{r1, r2, r3}
    2dc4:	4342      	muls	r2, r0
    2dc6:	1a89      	subs	r1, r1, r2
    2dc8:	4718      	bx	r3
    2dca:	46c0      	nop			; (mov r8, r8)

00002dcc <__aeabi_idiv>:
    2dcc:	4603      	mov	r3, r0
    2dce:	430b      	orrs	r3, r1
    2dd0:	d47f      	bmi.n	2ed2 <__aeabi_idiv+0x106>
    2dd2:	2200      	movs	r2, #0
    2dd4:	0843      	lsrs	r3, r0, #1
    2dd6:	428b      	cmp	r3, r1
    2dd8:	d374      	bcc.n	2ec4 <__aeabi_idiv+0xf8>
    2dda:	0903      	lsrs	r3, r0, #4
    2ddc:	428b      	cmp	r3, r1
    2dde:	d35f      	bcc.n	2ea0 <__aeabi_idiv+0xd4>
    2de0:	0a03      	lsrs	r3, r0, #8
    2de2:	428b      	cmp	r3, r1
    2de4:	d344      	bcc.n	2e70 <__aeabi_idiv+0xa4>
    2de6:	0b03      	lsrs	r3, r0, #12
    2de8:	428b      	cmp	r3, r1
    2dea:	d328      	bcc.n	2e3e <__aeabi_idiv+0x72>
    2dec:	0c03      	lsrs	r3, r0, #16
    2dee:	428b      	cmp	r3, r1
    2df0:	d30d      	bcc.n	2e0e <__aeabi_idiv+0x42>
    2df2:	22ff      	movs	r2, #255	; 0xff
    2df4:	0209      	lsls	r1, r1, #8
    2df6:	ba12      	rev	r2, r2
    2df8:	0c03      	lsrs	r3, r0, #16
    2dfa:	428b      	cmp	r3, r1
    2dfc:	d302      	bcc.n	2e04 <__aeabi_idiv+0x38>
    2dfe:	1212      	asrs	r2, r2, #8
    2e00:	0209      	lsls	r1, r1, #8
    2e02:	d065      	beq.n	2ed0 <__aeabi_idiv+0x104>
    2e04:	0b03      	lsrs	r3, r0, #12
    2e06:	428b      	cmp	r3, r1
    2e08:	d319      	bcc.n	2e3e <__aeabi_idiv+0x72>
    2e0a:	e000      	b.n	2e0e <__aeabi_idiv+0x42>
    2e0c:	0a09      	lsrs	r1, r1, #8
    2e0e:	0bc3      	lsrs	r3, r0, #15
    2e10:	428b      	cmp	r3, r1
    2e12:	d301      	bcc.n	2e18 <__aeabi_idiv+0x4c>
    2e14:	03cb      	lsls	r3, r1, #15
    2e16:	1ac0      	subs	r0, r0, r3
    2e18:	4152      	adcs	r2, r2
    2e1a:	0b83      	lsrs	r3, r0, #14
    2e1c:	428b      	cmp	r3, r1
    2e1e:	d301      	bcc.n	2e24 <__aeabi_idiv+0x58>
    2e20:	038b      	lsls	r3, r1, #14
    2e22:	1ac0      	subs	r0, r0, r3
    2e24:	4152      	adcs	r2, r2
    2e26:	0b43      	lsrs	r3, r0, #13
    2e28:	428b      	cmp	r3, r1
    2e2a:	d301      	bcc.n	2e30 <__aeabi_idiv+0x64>
    2e2c:	034b      	lsls	r3, r1, #13
    2e2e:	1ac0      	subs	r0, r0, r3
    2e30:	4152      	adcs	r2, r2
    2e32:	0b03      	lsrs	r3, r0, #12
    2e34:	428b      	cmp	r3, r1
    2e36:	d301      	bcc.n	2e3c <__aeabi_idiv+0x70>
    2e38:	030b      	lsls	r3, r1, #12
    2e3a:	1ac0      	subs	r0, r0, r3
    2e3c:	4152      	adcs	r2, r2
    2e3e:	0ac3      	lsrs	r3, r0, #11
    2e40:	428b      	cmp	r3, r1
    2e42:	d301      	bcc.n	2e48 <__aeabi_idiv+0x7c>
    2e44:	02cb      	lsls	r3, r1, #11
    2e46:	1ac0      	subs	r0, r0, r3
    2e48:	4152      	adcs	r2, r2
    2e4a:	0a83      	lsrs	r3, r0, #10
    2e4c:	428b      	cmp	r3, r1
    2e4e:	d301      	bcc.n	2e54 <__aeabi_idiv+0x88>
    2e50:	028b      	lsls	r3, r1, #10
    2e52:	1ac0      	subs	r0, r0, r3
    2e54:	4152      	adcs	r2, r2
    2e56:	0a43      	lsrs	r3, r0, #9
    2e58:	428b      	cmp	r3, r1
    2e5a:	d301      	bcc.n	2e60 <__aeabi_idiv+0x94>
    2e5c:	024b      	lsls	r3, r1, #9
    2e5e:	1ac0      	subs	r0, r0, r3
    2e60:	4152      	adcs	r2, r2
    2e62:	0a03      	lsrs	r3, r0, #8
    2e64:	428b      	cmp	r3, r1
    2e66:	d301      	bcc.n	2e6c <__aeabi_idiv+0xa0>
    2e68:	020b      	lsls	r3, r1, #8
    2e6a:	1ac0      	subs	r0, r0, r3
    2e6c:	4152      	adcs	r2, r2
    2e6e:	d2cd      	bcs.n	2e0c <__aeabi_idiv+0x40>
    2e70:	09c3      	lsrs	r3, r0, #7
    2e72:	428b      	cmp	r3, r1
    2e74:	d301      	bcc.n	2e7a <__aeabi_idiv+0xae>
    2e76:	01cb      	lsls	r3, r1, #7
    2e78:	1ac0      	subs	r0, r0, r3
    2e7a:	4152      	adcs	r2, r2
    2e7c:	0983      	lsrs	r3, r0, #6
    2e7e:	428b      	cmp	r3, r1
    2e80:	d301      	bcc.n	2e86 <__aeabi_idiv+0xba>
    2e82:	018b      	lsls	r3, r1, #6
    2e84:	1ac0      	subs	r0, r0, r3
    2e86:	4152      	adcs	r2, r2
    2e88:	0943      	lsrs	r3, r0, #5
    2e8a:	428b      	cmp	r3, r1
    2e8c:	d301      	bcc.n	2e92 <__aeabi_idiv+0xc6>
    2e8e:	014b      	lsls	r3, r1, #5
    2e90:	1ac0      	subs	r0, r0, r3
    2e92:	4152      	adcs	r2, r2
    2e94:	0903      	lsrs	r3, r0, #4
    2e96:	428b      	cmp	r3, r1
    2e98:	d301      	bcc.n	2e9e <__aeabi_idiv+0xd2>
    2e9a:	010b      	lsls	r3, r1, #4
    2e9c:	1ac0      	subs	r0, r0, r3
    2e9e:	4152      	adcs	r2, r2
    2ea0:	08c3      	lsrs	r3, r0, #3
    2ea2:	428b      	cmp	r3, r1
    2ea4:	d301      	bcc.n	2eaa <__aeabi_idiv+0xde>
    2ea6:	00cb      	lsls	r3, r1, #3
    2ea8:	1ac0      	subs	r0, r0, r3
    2eaa:	4152      	adcs	r2, r2
    2eac:	0883      	lsrs	r3, r0, #2
    2eae:	428b      	cmp	r3, r1
    2eb0:	d301      	bcc.n	2eb6 <__aeabi_idiv+0xea>
    2eb2:	008b      	lsls	r3, r1, #2
    2eb4:	1ac0      	subs	r0, r0, r3
    2eb6:	4152      	adcs	r2, r2
    2eb8:	0843      	lsrs	r3, r0, #1
    2eba:	428b      	cmp	r3, r1
    2ebc:	d301      	bcc.n	2ec2 <__aeabi_idiv+0xf6>
    2ebe:	004b      	lsls	r3, r1, #1
    2ec0:	1ac0      	subs	r0, r0, r3
    2ec2:	4152      	adcs	r2, r2
    2ec4:	1a41      	subs	r1, r0, r1
    2ec6:	d200      	bcs.n	2eca <__aeabi_idiv+0xfe>
    2ec8:	4601      	mov	r1, r0
    2eca:	4152      	adcs	r2, r2
    2ecc:	4610      	mov	r0, r2
    2ece:	4770      	bx	lr
    2ed0:	e05d      	b.n	2f8e <__aeabi_idiv+0x1c2>
    2ed2:	0fca      	lsrs	r2, r1, #31
    2ed4:	d000      	beq.n	2ed8 <__aeabi_idiv+0x10c>
    2ed6:	4249      	negs	r1, r1
    2ed8:	1003      	asrs	r3, r0, #32
    2eda:	d300      	bcc.n	2ede <__aeabi_idiv+0x112>
    2edc:	4240      	negs	r0, r0
    2ede:	4053      	eors	r3, r2
    2ee0:	2200      	movs	r2, #0
    2ee2:	469c      	mov	ip, r3
    2ee4:	0903      	lsrs	r3, r0, #4
    2ee6:	428b      	cmp	r3, r1
    2ee8:	d32d      	bcc.n	2f46 <__aeabi_idiv+0x17a>
    2eea:	0a03      	lsrs	r3, r0, #8
    2eec:	428b      	cmp	r3, r1
    2eee:	d312      	bcc.n	2f16 <__aeabi_idiv+0x14a>
    2ef0:	22fc      	movs	r2, #252	; 0xfc
    2ef2:	0189      	lsls	r1, r1, #6
    2ef4:	ba12      	rev	r2, r2
    2ef6:	0a03      	lsrs	r3, r0, #8
    2ef8:	428b      	cmp	r3, r1
    2efa:	d30c      	bcc.n	2f16 <__aeabi_idiv+0x14a>
    2efc:	0189      	lsls	r1, r1, #6
    2efe:	1192      	asrs	r2, r2, #6
    2f00:	428b      	cmp	r3, r1
    2f02:	d308      	bcc.n	2f16 <__aeabi_idiv+0x14a>
    2f04:	0189      	lsls	r1, r1, #6
    2f06:	1192      	asrs	r2, r2, #6
    2f08:	428b      	cmp	r3, r1
    2f0a:	d304      	bcc.n	2f16 <__aeabi_idiv+0x14a>
    2f0c:	0189      	lsls	r1, r1, #6
    2f0e:	d03a      	beq.n	2f86 <__aeabi_idiv+0x1ba>
    2f10:	1192      	asrs	r2, r2, #6
    2f12:	e000      	b.n	2f16 <__aeabi_idiv+0x14a>
    2f14:	0989      	lsrs	r1, r1, #6
    2f16:	09c3      	lsrs	r3, r0, #7
    2f18:	428b      	cmp	r3, r1
    2f1a:	d301      	bcc.n	2f20 <__aeabi_idiv+0x154>
    2f1c:	01cb      	lsls	r3, r1, #7
    2f1e:	1ac0      	subs	r0, r0, r3
    2f20:	4152      	adcs	r2, r2
    2f22:	0983      	lsrs	r3, r0, #6
    2f24:	428b      	cmp	r3, r1
    2f26:	d301      	bcc.n	2f2c <__aeabi_idiv+0x160>
    2f28:	018b      	lsls	r3, r1, #6
    2f2a:	1ac0      	subs	r0, r0, r3
    2f2c:	4152      	adcs	r2, r2
    2f2e:	0943      	lsrs	r3, r0, #5
    2f30:	428b      	cmp	r3, r1
    2f32:	d301      	bcc.n	2f38 <__aeabi_idiv+0x16c>
    2f34:	014b      	lsls	r3, r1, #5
    2f36:	1ac0      	subs	r0, r0, r3
    2f38:	4152      	adcs	r2, r2
    2f3a:	0903      	lsrs	r3, r0, #4
    2f3c:	428b      	cmp	r3, r1
    2f3e:	d301      	bcc.n	2f44 <__aeabi_idiv+0x178>
    2f40:	010b      	lsls	r3, r1, #4
    2f42:	1ac0      	subs	r0, r0, r3
    2f44:	4152      	adcs	r2, r2
    2f46:	08c3      	lsrs	r3, r0, #3
    2f48:	428b      	cmp	r3, r1
    2f4a:	d301      	bcc.n	2f50 <__aeabi_idiv+0x184>
    2f4c:	00cb      	lsls	r3, r1, #3
    2f4e:	1ac0      	subs	r0, r0, r3
    2f50:	4152      	adcs	r2, r2
    2f52:	0883      	lsrs	r3, r0, #2
    2f54:	428b      	cmp	r3, r1
    2f56:	d301      	bcc.n	2f5c <__aeabi_idiv+0x190>
    2f58:	008b      	lsls	r3, r1, #2
    2f5a:	1ac0      	subs	r0, r0, r3
    2f5c:	4152      	adcs	r2, r2
    2f5e:	d2d9      	bcs.n	2f14 <__aeabi_idiv+0x148>
    2f60:	0843      	lsrs	r3, r0, #1
    2f62:	428b      	cmp	r3, r1
    2f64:	d301      	bcc.n	2f6a <__aeabi_idiv+0x19e>
    2f66:	004b      	lsls	r3, r1, #1
    2f68:	1ac0      	subs	r0, r0, r3
    2f6a:	4152      	adcs	r2, r2
    2f6c:	1a41      	subs	r1, r0, r1
    2f6e:	d200      	bcs.n	2f72 <__aeabi_idiv+0x1a6>
    2f70:	4601      	mov	r1, r0
    2f72:	4663      	mov	r3, ip
    2f74:	4152      	adcs	r2, r2
    2f76:	105b      	asrs	r3, r3, #1
    2f78:	4610      	mov	r0, r2
    2f7a:	d301      	bcc.n	2f80 <__aeabi_idiv+0x1b4>
    2f7c:	4240      	negs	r0, r0
    2f7e:	2b00      	cmp	r3, #0
    2f80:	d500      	bpl.n	2f84 <__aeabi_idiv+0x1b8>
    2f82:	4249      	negs	r1, r1
    2f84:	4770      	bx	lr
    2f86:	4663      	mov	r3, ip
    2f88:	105b      	asrs	r3, r3, #1
    2f8a:	d300      	bcc.n	2f8e <__aeabi_idiv+0x1c2>
    2f8c:	4240      	negs	r0, r0
    2f8e:	b501      	push	{r0, lr}
    2f90:	2000      	movs	r0, #0
    2f92:	f000 f80b 	bl	2fac <__aeabi_idiv0>
    2f96:	bd02      	pop	{r1, pc}

00002f98 <__aeabi_idivmod>:
    2f98:	2900      	cmp	r1, #0
    2f9a:	d0f8      	beq.n	2f8e <__aeabi_idiv+0x1c2>
    2f9c:	b503      	push	{r0, r1, lr}
    2f9e:	f7ff ff15 	bl	2dcc <__aeabi_idiv>
    2fa2:	bc0e      	pop	{r1, r2, r3}
    2fa4:	4342      	muls	r2, r0
    2fa6:	1a89      	subs	r1, r1, r2
    2fa8:	4718      	bx	r3
    2faa:	46c0      	nop			; (mov r8, r8)

00002fac <__aeabi_idiv0>:
    2fac:	4770      	bx	lr
    2fae:	46c0      	nop			; (mov r8, r8)

00002fb0 <__aeabi_llsr>:
    2fb0:	40d0      	lsrs	r0, r2
    2fb2:	1c0b      	adds	r3, r1, #0
    2fb4:	40d1      	lsrs	r1, r2
    2fb6:	469c      	mov	ip, r3
    2fb8:	3a20      	subs	r2, #32
    2fba:	40d3      	lsrs	r3, r2
    2fbc:	4318      	orrs	r0, r3
    2fbe:	4252      	negs	r2, r2
    2fc0:	4663      	mov	r3, ip
    2fc2:	4093      	lsls	r3, r2
    2fc4:	4318      	orrs	r0, r3
    2fc6:	4770      	bx	lr

00002fc8 <__aeabi_uldivmod>:
    2fc8:	2b00      	cmp	r3, #0
    2fca:	d111      	bne.n	2ff0 <__aeabi_uldivmod+0x28>
    2fcc:	2a00      	cmp	r2, #0
    2fce:	d10f      	bne.n	2ff0 <__aeabi_uldivmod+0x28>
    2fd0:	2900      	cmp	r1, #0
    2fd2:	d100      	bne.n	2fd6 <__aeabi_uldivmod+0xe>
    2fd4:	2800      	cmp	r0, #0
    2fd6:	d002      	beq.n	2fde <__aeabi_uldivmod+0x16>
    2fd8:	2100      	movs	r1, #0
    2fda:	43c9      	mvns	r1, r1
    2fdc:	1c08      	adds	r0, r1, #0
    2fde:	b407      	push	{r0, r1, r2}
    2fe0:	4802      	ldr	r0, [pc, #8]	; (2fec <__aeabi_uldivmod+0x24>)
    2fe2:	a102      	add	r1, pc, #8	; (adr r1, 2fec <__aeabi_uldivmod+0x24>)
    2fe4:	1840      	adds	r0, r0, r1
    2fe6:	9002      	str	r0, [sp, #8]
    2fe8:	bd03      	pop	{r0, r1, pc}
    2fea:	46c0      	nop			; (mov r8, r8)
    2fec:	ffffffc1 	.word	0xffffffc1
    2ff0:	b403      	push	{r0, r1}
    2ff2:	4668      	mov	r0, sp
    2ff4:	b501      	push	{r0, lr}
    2ff6:	9802      	ldr	r0, [sp, #8]
    2ff8:	f000 f84c 	bl	3094 <__gnu_uldivmod_helper>
    2ffc:	9b01      	ldr	r3, [sp, #4]
    2ffe:	469e      	mov	lr, r3
    3000:	b002      	add	sp, #8
    3002:	bc0c      	pop	{r2, r3}
    3004:	4770      	bx	lr
    3006:	46c0      	nop			; (mov r8, r8)

00003008 <__aeabi_lmul>:
    3008:	b5f0      	push	{r4, r5, r6, r7, lr}
    300a:	464f      	mov	r7, r9
    300c:	4646      	mov	r6, r8
    300e:	0405      	lsls	r5, r0, #16
    3010:	0c2d      	lsrs	r5, r5, #16
    3012:	1c2c      	adds	r4, r5, #0
    3014:	b4c0      	push	{r6, r7}
    3016:	0417      	lsls	r7, r2, #16
    3018:	0c16      	lsrs	r6, r2, #16
    301a:	0c3f      	lsrs	r7, r7, #16
    301c:	4699      	mov	r9, r3
    301e:	0c03      	lsrs	r3, r0, #16
    3020:	437c      	muls	r4, r7
    3022:	4375      	muls	r5, r6
    3024:	435f      	muls	r7, r3
    3026:	4373      	muls	r3, r6
    3028:	197d      	adds	r5, r7, r5
    302a:	0c26      	lsrs	r6, r4, #16
    302c:	19ad      	adds	r5, r5, r6
    302e:	469c      	mov	ip, r3
    3030:	42af      	cmp	r7, r5
    3032:	d903      	bls.n	303c <__aeabi_lmul+0x34>
    3034:	2380      	movs	r3, #128	; 0x80
    3036:	025b      	lsls	r3, r3, #9
    3038:	4698      	mov	r8, r3
    303a:	44c4      	add	ip, r8
    303c:	464b      	mov	r3, r9
    303e:	4351      	muls	r1, r2
    3040:	4343      	muls	r3, r0
    3042:	0424      	lsls	r4, r4, #16
    3044:	0c2e      	lsrs	r6, r5, #16
    3046:	0c24      	lsrs	r4, r4, #16
    3048:	042d      	lsls	r5, r5, #16
    304a:	4466      	add	r6, ip
    304c:	192c      	adds	r4, r5, r4
    304e:	1859      	adds	r1, r3, r1
    3050:	1989      	adds	r1, r1, r6
    3052:	1c20      	adds	r0, r4, #0
    3054:	bc0c      	pop	{r2, r3}
    3056:	4690      	mov	r8, r2
    3058:	4699      	mov	r9, r3
    305a:	bdf0      	pop	{r4, r5, r6, r7, pc}

0000305c <__gnu_ldivmod_helper>:
    305c:	b5f0      	push	{r4, r5, r6, r7, lr}
    305e:	b083      	sub	sp, #12
    3060:	1c16      	adds	r6, r2, #0
    3062:	1c1f      	adds	r7, r3, #0
    3064:	9000      	str	r0, [sp, #0]
    3066:	9101      	str	r1, [sp, #4]
    3068:	f000 f82e 	bl	30c8 <__divdi3>
    306c:	1c04      	adds	r4, r0, #0
    306e:	1c0d      	adds	r5, r1, #0
    3070:	1c22      	adds	r2, r4, #0
    3072:	1c2b      	adds	r3, r5, #0
    3074:	1c30      	adds	r0, r6, #0
    3076:	1c39      	adds	r1, r7, #0
    3078:	f7ff ffc6 	bl	3008 <__aeabi_lmul>
    307c:	9a00      	ldr	r2, [sp, #0]
    307e:	9b01      	ldr	r3, [sp, #4]
    3080:	1a12      	subs	r2, r2, r0
    3082:	418b      	sbcs	r3, r1
    3084:	9908      	ldr	r1, [sp, #32]
    3086:	1c20      	adds	r0, r4, #0
    3088:	600a      	str	r2, [r1, #0]
    308a:	604b      	str	r3, [r1, #4]
    308c:	1c29      	adds	r1, r5, #0
    308e:	b003      	add	sp, #12
    3090:	bdf0      	pop	{r4, r5, r6, r7, pc}
    3092:	46c0      	nop			; (mov r8, r8)

00003094 <__gnu_uldivmod_helper>:
    3094:	b5f0      	push	{r4, r5, r6, r7, lr}
    3096:	1c14      	adds	r4, r2, #0
    3098:	b083      	sub	sp, #12
    309a:	1c1d      	adds	r5, r3, #0
    309c:	9000      	str	r0, [sp, #0]
    309e:	9101      	str	r1, [sp, #4]
    30a0:	f000 f90a 	bl	32b8 <__udivdi3>
    30a4:	1c22      	adds	r2, r4, #0
    30a6:	1c2b      	adds	r3, r5, #0
    30a8:	1c06      	adds	r6, r0, #0
    30aa:	1c0f      	adds	r7, r1, #0
    30ac:	f7ff ffac 	bl	3008 <__aeabi_lmul>
    30b0:	9a00      	ldr	r2, [sp, #0]
    30b2:	9b01      	ldr	r3, [sp, #4]
    30b4:	1a12      	subs	r2, r2, r0
    30b6:	418b      	sbcs	r3, r1
    30b8:	9908      	ldr	r1, [sp, #32]
    30ba:	1c30      	adds	r0, r6, #0
    30bc:	600a      	str	r2, [r1, #0]
    30be:	604b      	str	r3, [r1, #4]
    30c0:	1c39      	adds	r1, r7, #0
    30c2:	b003      	add	sp, #12
    30c4:	bdf0      	pop	{r4, r5, r6, r7, pc}
    30c6:	46c0      	nop			; (mov r8, r8)

000030c8 <__divdi3>:
    30c8:	b5f0      	push	{r4, r5, r6, r7, lr}
    30ca:	4644      	mov	r4, r8
    30cc:	465f      	mov	r7, fp
    30ce:	4656      	mov	r6, sl
    30d0:	464d      	mov	r5, r9
    30d2:	b4f0      	push	{r4, r5, r6, r7}
    30d4:	1c1c      	adds	r4, r3, #0
    30d6:	b085      	sub	sp, #20
    30d8:	2900      	cmp	r1, #0
    30da:	da00      	bge.n	30de <__divdi3+0x16>
    30dc:	e0a9      	b.n	3232 <__divdi3+0x16a>
    30de:	1c0f      	adds	r7, r1, #0
    30e0:	2100      	movs	r1, #0
    30e2:	1c06      	adds	r6, r0, #0
    30e4:	4688      	mov	r8, r1
    30e6:	1c10      	adds	r0, r2, #0
    30e8:	1c19      	adds	r1, r3, #0
    30ea:	2c00      	cmp	r4, #0
    30ec:	da00      	bge.n	30f0 <__divdi3+0x28>
    30ee:	e097      	b.n	3220 <__divdi3+0x158>
    30f0:	1c34      	adds	r4, r6, #0
    30f2:	1c3d      	adds	r5, r7, #0
    30f4:	4682      	mov	sl, r0
    30f6:	4689      	mov	r9, r1
    30f8:	42b9      	cmp	r1, r7
    30fa:	d873      	bhi.n	31e4 <__divdi3+0x11c>
    30fc:	d070      	beq.n	31e0 <__divdi3+0x118>
    30fe:	4649      	mov	r1, r9
    3100:	4650      	mov	r0, sl
    3102:	f000 f985 	bl	3410 <__clzdi2>
    3106:	4683      	mov	fp, r0
    3108:	1c39      	adds	r1, r7, #0
    310a:	1c30      	adds	r0, r6, #0
    310c:	f000 f980 	bl	3410 <__clzdi2>
    3110:	465b      	mov	r3, fp
    3112:	1a18      	subs	r0, r3, r0
    3114:	1c03      	adds	r3, r0, #0
    3116:	4683      	mov	fp, r0
    3118:	3b20      	subs	r3, #32
    311a:	469c      	mov	ip, r3
    311c:	d500      	bpl.n	3120 <__divdi3+0x58>
    311e:	e09c      	b.n	325a <__divdi3+0x192>
    3120:	2300      	movs	r3, #0
    3122:	2200      	movs	r2, #0
    3124:	4651      	mov	r1, sl
    3126:	9200      	str	r2, [sp, #0]
    3128:	9301      	str	r3, [sp, #4]
    312a:	4663      	mov	r3, ip
    312c:	4099      	lsls	r1, r3
    312e:	9101      	str	r1, [sp, #4]
    3130:	4651      	mov	r1, sl
    3132:	4081      	lsls	r1, r0
    3134:	9b01      	ldr	r3, [sp, #4]
    3136:	9100      	str	r1, [sp, #0]
    3138:	42bb      	cmp	r3, r7
    313a:	d900      	bls.n	313e <__divdi3+0x76>
    313c:	e083      	b.n	3246 <__divdi3+0x17e>
    313e:	d100      	bne.n	3142 <__divdi3+0x7a>
    3140:	e07e      	b.n	3240 <__divdi3+0x178>
    3142:	9a00      	ldr	r2, [sp, #0]
    3144:	9b01      	ldr	r3, [sp, #4]
    3146:	1c34      	adds	r4, r6, #0
    3148:	1c3d      	adds	r5, r7, #0
    314a:	1aa4      	subs	r4, r4, r2
    314c:	419d      	sbcs	r5, r3
    314e:	4663      	mov	r3, ip
    3150:	2b00      	cmp	r3, #0
    3152:	da00      	bge.n	3156 <__divdi3+0x8e>
    3154:	e09a      	b.n	328c <__divdi3+0x1c4>
    3156:	2600      	movs	r6, #0
    3158:	2700      	movs	r7, #0
    315a:	9602      	str	r6, [sp, #8]
    315c:	9703      	str	r7, [sp, #12]
    315e:	3601      	adds	r6, #1
    3160:	409e      	lsls	r6, r3
    3162:	9603      	str	r6, [sp, #12]
    3164:	2601      	movs	r6, #1
    3166:	4086      	lsls	r6, r0
    3168:	9602      	str	r6, [sp, #8]
    316a:	2800      	cmp	r0, #0
    316c:	d100      	bne.n	3170 <__divdi3+0xa8>
    316e:	e071      	b.n	3254 <__divdi3+0x18c>
    3170:	9900      	ldr	r1, [sp, #0]
    3172:	9a01      	ldr	r2, [sp, #4]
    3174:	07d3      	lsls	r3, r2, #31
    3176:	4699      	mov	r9, r3
    3178:	464b      	mov	r3, r9
    317a:	084e      	lsrs	r6, r1, #1
    317c:	431e      	orrs	r6, r3
    317e:	0857      	lsrs	r7, r2, #1
    3180:	2300      	movs	r3, #0
    3182:	2201      	movs	r2, #1
    3184:	e00c      	b.n	31a0 <__divdi3+0xd8>
    3186:	42af      	cmp	r7, r5
    3188:	d101      	bne.n	318e <__divdi3+0xc6>
    318a:	42a6      	cmp	r6, r4
    318c:	d80a      	bhi.n	31a4 <__divdi3+0xdc>
    318e:	1ba4      	subs	r4, r4, r6
    3190:	41bd      	sbcs	r5, r7
    3192:	1924      	adds	r4, r4, r4
    3194:	416d      	adcs	r5, r5
    3196:	3801      	subs	r0, #1
    3198:	18a4      	adds	r4, r4, r2
    319a:	415d      	adcs	r5, r3
    319c:	2800      	cmp	r0, #0
    319e:	d006      	beq.n	31ae <__divdi3+0xe6>
    31a0:	42af      	cmp	r7, r5
    31a2:	d9f0      	bls.n	3186 <__divdi3+0xbe>
    31a4:	3801      	subs	r0, #1
    31a6:	1924      	adds	r4, r4, r4
    31a8:	416d      	adcs	r5, r5
    31aa:	2800      	cmp	r0, #0
    31ac:	d1f8      	bne.n	31a0 <__divdi3+0xd8>
    31ae:	2220      	movs	r2, #32
    31b0:	9e02      	ldr	r6, [sp, #8]
    31b2:	9f03      	ldr	r7, [sp, #12]
    31b4:	465b      	mov	r3, fp
    31b6:	4252      	negs	r2, r2
    31b8:	1936      	adds	r6, r6, r4
    31ba:	416f      	adcs	r7, r5
    31bc:	1899      	adds	r1, r3, r2
    31be:	d45a      	bmi.n	3276 <__divdi3+0x1ae>
    31c0:	1c28      	adds	r0, r5, #0
    31c2:	40c8      	lsrs	r0, r1
    31c4:	1c2c      	adds	r4, r5, #0
    31c6:	465b      	mov	r3, fp
    31c8:	40dc      	lsrs	r4, r3
    31ca:	2900      	cmp	r1, #0
    31cc:	db68      	blt.n	32a0 <__divdi3+0x1d8>
    31ce:	1c04      	adds	r4, r0, #0
    31d0:	408c      	lsls	r4, r1
    31d2:	1c23      	adds	r3, r4, #0
    31d4:	4659      	mov	r1, fp
    31d6:	4088      	lsls	r0, r1
    31d8:	1c02      	adds	r2, r0, #0
    31da:	1ab6      	subs	r6, r6, r2
    31dc:	419f      	sbcs	r7, r3
    31de:	e003      	b.n	31e8 <__divdi3+0x120>
    31e0:	42b0      	cmp	r0, r6
    31e2:	d98c      	bls.n	30fe <__divdi3+0x36>
    31e4:	2600      	movs	r6, #0
    31e6:	2700      	movs	r7, #0
    31e8:	4641      	mov	r1, r8
    31ea:	1e4b      	subs	r3, r1, #1
    31ec:	4199      	sbcs	r1, r3
    31ee:	2300      	movs	r3, #0
    31f0:	9100      	str	r1, [sp, #0]
    31f2:	9301      	str	r3, [sp, #4]
    31f4:	9a00      	ldr	r2, [sp, #0]
    31f6:	9b01      	ldr	r3, [sp, #4]
    31f8:	2500      	movs	r5, #0
    31fa:	4254      	negs	r4, r2
    31fc:	419d      	sbcs	r5, r3
    31fe:	1c33      	adds	r3, r6, #0
    3200:	4063      	eors	r3, r4
    3202:	1c18      	adds	r0, r3, #0
    3204:	1c3b      	adds	r3, r7, #0
    3206:	406b      	eors	r3, r5
    3208:	1c19      	adds	r1, r3, #0
    320a:	9b00      	ldr	r3, [sp, #0]
    320c:	9c01      	ldr	r4, [sp, #4]
    320e:	18c0      	adds	r0, r0, r3
    3210:	4161      	adcs	r1, r4
    3212:	b005      	add	sp, #20
    3214:	bc3c      	pop	{r2, r3, r4, r5}
    3216:	4690      	mov	r8, r2
    3218:	4699      	mov	r9, r3
    321a:	46a2      	mov	sl, r4
    321c:	46ab      	mov	fp, r5
    321e:	bdf0      	pop	{r4, r5, r6, r7, pc}
    3220:	4643      	mov	r3, r8
    3222:	43db      	mvns	r3, r3
    3224:	1c0c      	adds	r4, r1, #0
    3226:	4698      	mov	r8, r3
    3228:	1c13      	adds	r3, r2, #0
    322a:	2100      	movs	r1, #0
    322c:	4258      	negs	r0, r3
    322e:	41a1      	sbcs	r1, r4
    3230:	e75e      	b.n	30f0 <__divdi3+0x28>
    3232:	2700      	movs	r7, #0
    3234:	4246      	negs	r6, r0
    3236:	418f      	sbcs	r7, r1
    3238:	2101      	movs	r1, #1
    323a:	4249      	negs	r1, r1
    323c:	4688      	mov	r8, r1
    323e:	e752      	b.n	30e6 <__divdi3+0x1e>
    3240:	42b1      	cmp	r1, r6
    3242:	d800      	bhi.n	3246 <__divdi3+0x17e>
    3244:	e77d      	b.n	3142 <__divdi3+0x7a>
    3246:	2600      	movs	r6, #0
    3248:	2700      	movs	r7, #0
    324a:	9602      	str	r6, [sp, #8]
    324c:	9703      	str	r7, [sp, #12]
    324e:	2800      	cmp	r0, #0
    3250:	d000      	beq.n	3254 <__divdi3+0x18c>
    3252:	e78d      	b.n	3170 <__divdi3+0xa8>
    3254:	9e02      	ldr	r6, [sp, #8]
    3256:	9f03      	ldr	r7, [sp, #12]
    3258:	e7c6      	b.n	31e8 <__divdi3+0x120>
    325a:	2120      	movs	r1, #32
    325c:	4653      	mov	r3, sl
    325e:	1a09      	subs	r1, r1, r0
    3260:	40cb      	lsrs	r3, r1
    3262:	2200      	movs	r2, #0
    3264:	1c19      	adds	r1, r3, #0
    3266:	2300      	movs	r3, #0
    3268:	9200      	str	r2, [sp, #0]
    326a:	9301      	str	r3, [sp, #4]
    326c:	464b      	mov	r3, r9
    326e:	4083      	lsls	r3, r0
    3270:	430b      	orrs	r3, r1
    3272:	9301      	str	r3, [sp, #4]
    3274:	e75c      	b.n	3130 <__divdi3+0x68>
    3276:	465a      	mov	r2, fp
    3278:	2320      	movs	r3, #32
    327a:	1a9b      	subs	r3, r3, r2
    327c:	1c2a      	adds	r2, r5, #0
    327e:	409a      	lsls	r2, r3
    3280:	1c20      	adds	r0, r4, #0
    3282:	1c13      	adds	r3, r2, #0
    3284:	465a      	mov	r2, fp
    3286:	40d0      	lsrs	r0, r2
    3288:	4318      	orrs	r0, r3
    328a:	e79b      	b.n	31c4 <__divdi3+0xfc>
    328c:	2620      	movs	r6, #32
    328e:	2700      	movs	r7, #0
    3290:	1a33      	subs	r3, r6, r0
    3292:	2600      	movs	r6, #0
    3294:	9602      	str	r6, [sp, #8]
    3296:	9703      	str	r7, [sp, #12]
    3298:	2701      	movs	r7, #1
    329a:	40df      	lsrs	r7, r3
    329c:	9703      	str	r7, [sp, #12]
    329e:	e761      	b.n	3164 <__divdi3+0x9c>
    32a0:	465b      	mov	r3, fp
    32a2:	2120      	movs	r1, #32
    32a4:	465d      	mov	r5, fp
    32a6:	1ac9      	subs	r1, r1, r3
    32a8:	1c03      	adds	r3, r0, #0
    32aa:	40ac      	lsls	r4, r5
    32ac:	40cb      	lsrs	r3, r1
    32ae:	1c19      	adds	r1, r3, #0
    32b0:	1c23      	adds	r3, r4, #0
    32b2:	430b      	orrs	r3, r1
    32b4:	e78e      	b.n	31d4 <__divdi3+0x10c>
    32b6:	46c0      	nop			; (mov r8, r8)

000032b8 <__udivdi3>:
    32b8:	b5f0      	push	{r4, r5, r6, r7, lr}
    32ba:	4645      	mov	r5, r8
    32bc:	464e      	mov	r6, r9
    32be:	4657      	mov	r7, sl
    32c0:	b4e0      	push	{r5, r6, r7}
    32c2:	1c04      	adds	r4, r0, #0
    32c4:	b082      	sub	sp, #8
    32c6:	1c0d      	adds	r5, r1, #0
    32c8:	4691      	mov	r9, r2
    32ca:	4698      	mov	r8, r3
    32cc:	428b      	cmp	r3, r1
    32ce:	d862      	bhi.n	3396 <__udivdi3+0xde>
    32d0:	d05f      	beq.n	3392 <__udivdi3+0xda>
    32d2:	4641      	mov	r1, r8
    32d4:	4648      	mov	r0, r9
    32d6:	f000 f89b 	bl	3410 <__clzdi2>
    32da:	1c29      	adds	r1, r5, #0
    32dc:	1c06      	adds	r6, r0, #0
    32de:	1c20      	adds	r0, r4, #0
    32e0:	f000 f896 	bl	3410 <__clzdi2>
    32e4:	2320      	movs	r3, #32
    32e6:	1a31      	subs	r1, r6, r0
    32e8:	425b      	negs	r3, r3
    32ea:	468a      	mov	sl, r1
    32ec:	18c8      	adds	r0, r1, r3
    32ee:	d465      	bmi.n	33bc <__udivdi3+0x104>
    32f0:	464b      	mov	r3, r9
    32f2:	4083      	lsls	r3, r0
    32f4:	1c1f      	adds	r7, r3, #0
    32f6:	464b      	mov	r3, r9
    32f8:	408b      	lsls	r3, r1
    32fa:	1c1e      	adds	r6, r3, #0
    32fc:	42af      	cmp	r7, r5
    32fe:	d858      	bhi.n	33b2 <__udivdi3+0xfa>
    3300:	d055      	beq.n	33ae <__udivdi3+0xf6>
    3302:	1ba4      	subs	r4, r4, r6
    3304:	41bd      	sbcs	r5, r7
    3306:	2800      	cmp	r0, #0
    3308:	da00      	bge.n	330c <__udivdi3+0x54>
    330a:	e077      	b.n	33fc <__udivdi3+0x144>
    330c:	2200      	movs	r2, #0
    330e:	2300      	movs	r3, #0
    3310:	9200      	str	r2, [sp, #0]
    3312:	9301      	str	r3, [sp, #4]
    3314:	3201      	adds	r2, #1
    3316:	4082      	lsls	r2, r0
    3318:	9201      	str	r2, [sp, #4]
    331a:	2301      	movs	r3, #1
    331c:	408b      	lsls	r3, r1
    331e:	9300      	str	r3, [sp, #0]
    3320:	2900      	cmp	r1, #0
    3322:	d03c      	beq.n	339e <__udivdi3+0xe6>
    3324:	07fb      	lsls	r3, r7, #31
    3326:	4698      	mov	r8, r3
    3328:	4640      	mov	r0, r8
    332a:	0872      	lsrs	r2, r6, #1
    332c:	087b      	lsrs	r3, r7, #1
    332e:	4302      	orrs	r2, r0
    3330:	2601      	movs	r6, #1
    3332:	2700      	movs	r7, #0
    3334:	e00c      	b.n	3350 <__udivdi3+0x98>
    3336:	42ab      	cmp	r3, r5
    3338:	d101      	bne.n	333e <__udivdi3+0x86>
    333a:	42a2      	cmp	r2, r4
    333c:	d80a      	bhi.n	3354 <__udivdi3+0x9c>
    333e:	1aa4      	subs	r4, r4, r2
    3340:	419d      	sbcs	r5, r3
    3342:	1924      	adds	r4, r4, r4
    3344:	416d      	adcs	r5, r5
    3346:	3901      	subs	r1, #1
    3348:	19a4      	adds	r4, r4, r6
    334a:	417d      	adcs	r5, r7
    334c:	2900      	cmp	r1, #0
    334e:	d006      	beq.n	335e <__udivdi3+0xa6>
    3350:	42ab      	cmp	r3, r5
    3352:	d9f0      	bls.n	3336 <__udivdi3+0x7e>
    3354:	3901      	subs	r1, #1
    3356:	1924      	adds	r4, r4, r4
    3358:	416d      	adcs	r5, r5
    335a:	2900      	cmp	r1, #0
    335c:	d1f8      	bne.n	3350 <__udivdi3+0x98>
    335e:	2220      	movs	r2, #32
    3360:	9800      	ldr	r0, [sp, #0]
    3362:	9901      	ldr	r1, [sp, #4]
    3364:	4653      	mov	r3, sl
    3366:	4252      	negs	r2, r2
    3368:	1900      	adds	r0, r0, r4
    336a:	4169      	adcs	r1, r5
    336c:	189e      	adds	r6, r3, r2
    336e:	d43a      	bmi.n	33e6 <__udivdi3+0x12e>
    3370:	1c2f      	adds	r7, r5, #0
    3372:	40f7      	lsrs	r7, r6
    3374:	4653      	mov	r3, sl
    3376:	40dd      	lsrs	r5, r3
    3378:	2e00      	cmp	r6, #0
    337a:	db29      	blt.n	33d0 <__udivdi3+0x118>
    337c:	1c3c      	adds	r4, r7, #0
    337e:	40b4      	lsls	r4, r6
    3380:	1c23      	adds	r3, r4, #0
    3382:	4654      	mov	r4, sl
    3384:	40a7      	lsls	r7, r4
    3386:	1c3a      	adds	r2, r7, #0
    3388:	1a80      	subs	r0, r0, r2
    338a:	4199      	sbcs	r1, r3
    338c:	9000      	str	r0, [sp, #0]
    338e:	9101      	str	r1, [sp, #4]
    3390:	e005      	b.n	339e <__udivdi3+0xe6>
    3392:	4282      	cmp	r2, r0
    3394:	d99d      	bls.n	32d2 <__udivdi3+0x1a>
    3396:	2300      	movs	r3, #0
    3398:	2400      	movs	r4, #0
    339a:	9300      	str	r3, [sp, #0]
    339c:	9401      	str	r4, [sp, #4]
    339e:	9800      	ldr	r0, [sp, #0]
    33a0:	9901      	ldr	r1, [sp, #4]
    33a2:	b002      	add	sp, #8
    33a4:	bc1c      	pop	{r2, r3, r4}
    33a6:	4690      	mov	r8, r2
    33a8:	4699      	mov	r9, r3
    33aa:	46a2      	mov	sl, r4
    33ac:	bdf0      	pop	{r4, r5, r6, r7, pc}
    33ae:	42a3      	cmp	r3, r4
    33b0:	d9a7      	bls.n	3302 <__udivdi3+0x4a>
    33b2:	2200      	movs	r2, #0
    33b4:	2300      	movs	r3, #0
    33b6:	9200      	str	r2, [sp, #0]
    33b8:	9301      	str	r3, [sp, #4]
    33ba:	e7b1      	b.n	3320 <__udivdi3+0x68>
    33bc:	2220      	movs	r2, #32
    33be:	464b      	mov	r3, r9
    33c0:	1a52      	subs	r2, r2, r1
    33c2:	40d3      	lsrs	r3, r2
    33c4:	1c1a      	adds	r2, r3, #0
    33c6:	4643      	mov	r3, r8
    33c8:	408b      	lsls	r3, r1
    33ca:	1c1f      	adds	r7, r3, #0
    33cc:	4317      	orrs	r7, r2
    33ce:	e792      	b.n	32f6 <__udivdi3+0x3e>
    33d0:	4653      	mov	r3, sl
    33d2:	2420      	movs	r4, #32
    33d4:	4656      	mov	r6, sl
    33d6:	1ae4      	subs	r4, r4, r3
    33d8:	1c3b      	adds	r3, r7, #0
    33da:	40b5      	lsls	r5, r6
    33dc:	40e3      	lsrs	r3, r4
    33de:	1c1c      	adds	r4, r3, #0
    33e0:	1c2b      	adds	r3, r5, #0
    33e2:	4323      	orrs	r3, r4
    33e4:	e7cd      	b.n	3382 <__udivdi3+0xca>
    33e6:	4652      	mov	r2, sl
    33e8:	2320      	movs	r3, #32
    33ea:	1a9b      	subs	r3, r3, r2
    33ec:	1c2a      	adds	r2, r5, #0
    33ee:	409a      	lsls	r2, r3
    33f0:	1c27      	adds	r7, r4, #0
    33f2:	1c13      	adds	r3, r2, #0
    33f4:	4652      	mov	r2, sl
    33f6:	40d7      	lsrs	r7, r2
    33f8:	431f      	orrs	r7, r3
    33fa:	e7bb      	b.n	3374 <__udivdi3+0xbc>
    33fc:	2320      	movs	r3, #32
    33fe:	2200      	movs	r2, #0
    3400:	1a58      	subs	r0, r3, r1
    3402:	2300      	movs	r3, #0
    3404:	9200      	str	r2, [sp, #0]
    3406:	9301      	str	r3, [sp, #4]
    3408:	3201      	adds	r2, #1
    340a:	40c2      	lsrs	r2, r0
    340c:	9201      	str	r2, [sp, #4]
    340e:	e784      	b.n	331a <__udivdi3+0x62>

00003410 <__clzdi2>:
    3410:	b510      	push	{r4, lr}
    3412:	2900      	cmp	r1, #0
    3414:	d103      	bne.n	341e <__clzdi2+0xe>
    3416:	f000 f807 	bl	3428 <__clzsi2>
    341a:	3020      	adds	r0, #32
    341c:	e002      	b.n	3424 <__clzdi2+0x14>
    341e:	1c08      	adds	r0, r1, #0
    3420:	f000 f802 	bl	3428 <__clzsi2>
    3424:	bd10      	pop	{r4, pc}
    3426:	46c0      	nop			; (mov r8, r8)

00003428 <__clzsi2>:
    3428:	211c      	movs	r1, #28
    342a:	2301      	movs	r3, #1
    342c:	041b      	lsls	r3, r3, #16
    342e:	4298      	cmp	r0, r3
    3430:	d301      	bcc.n	3436 <__clzsi2+0xe>
    3432:	0c00      	lsrs	r0, r0, #16
    3434:	3910      	subs	r1, #16
    3436:	0a1b      	lsrs	r3, r3, #8
    3438:	4298      	cmp	r0, r3
    343a:	d301      	bcc.n	3440 <__clzsi2+0x18>
    343c:	0a00      	lsrs	r0, r0, #8
    343e:	3908      	subs	r1, #8
    3440:	091b      	lsrs	r3, r3, #4
    3442:	4298      	cmp	r0, r3
    3444:	d301      	bcc.n	344a <__clzsi2+0x22>
    3446:	0900      	lsrs	r0, r0, #4
    3448:	3904      	subs	r1, #4
    344a:	a202      	add	r2, pc, #8	; (adr r2, 3454 <__clzsi2+0x2c>)
    344c:	5c10      	ldrb	r0, [r2, r0]
    344e:	1840      	adds	r0, r0, r1
    3450:	4770      	bx	lr
    3452:	46c0      	nop			; (mov r8, r8)
    3454:	02020304 	.word	0x02020304
    3458:	01010101 	.word	0x01010101
	...

00003464 <__libc_init_array>:
    3464:	4b0e      	ldr	r3, [pc, #56]	; (34a0 <__libc_init_array+0x3c>)
    3466:	b570      	push	{r4, r5, r6, lr}
    3468:	2500      	movs	r5, #0
    346a:	1c1e      	adds	r6, r3, #0
    346c:	4c0d      	ldr	r4, [pc, #52]	; (34a4 <__libc_init_array+0x40>)
    346e:	1ae4      	subs	r4, r4, r3
    3470:	10a4      	asrs	r4, r4, #2
    3472:	42a5      	cmp	r5, r4
    3474:	d004      	beq.n	3480 <__libc_init_array+0x1c>
    3476:	00ab      	lsls	r3, r5, #2
    3478:	58f3      	ldr	r3, [r6, r3]
    347a:	4798      	blx	r3
    347c:	3501      	adds	r5, #1
    347e:	e7f8      	b.n	3472 <__libc_init_array+0xe>
    3480:	f000 f8b0 	bl	35e4 <_init>
    3484:	4b08      	ldr	r3, [pc, #32]	; (34a8 <__libc_init_array+0x44>)
    3486:	2500      	movs	r5, #0
    3488:	1c1e      	adds	r6, r3, #0
    348a:	4c08      	ldr	r4, [pc, #32]	; (34ac <__libc_init_array+0x48>)
    348c:	1ae4      	subs	r4, r4, r3
    348e:	10a4      	asrs	r4, r4, #2
    3490:	42a5      	cmp	r5, r4
    3492:	d004      	beq.n	349e <__libc_init_array+0x3a>
    3494:	00ab      	lsls	r3, r5, #2
    3496:	58f3      	ldr	r3, [r6, r3]
    3498:	4798      	blx	r3
    349a:	3501      	adds	r5, #1
    349c:	e7f8      	b.n	3490 <__libc_init_array+0x2c>
    349e:	bd70      	pop	{r4, r5, r6, pc}
    34a0:	000035f0 	.word	0x000035f0
    34a4:	000035f0 	.word	0x000035f0
    34a8:	000035f0 	.word	0x000035f0
    34ac:	000035f4 	.word	0x000035f4

000034b0 <memcpy>:
    34b0:	2300      	movs	r3, #0
    34b2:	b510      	push	{r4, lr}
    34b4:	4293      	cmp	r3, r2
    34b6:	d003      	beq.n	34c0 <memcpy+0x10>
    34b8:	5ccc      	ldrb	r4, [r1, r3]
    34ba:	54c4      	strb	r4, [r0, r3]
    34bc:	3301      	adds	r3, #1
    34be:	e7f9      	b.n	34b4 <memcpy+0x4>
    34c0:	bd10      	pop	{r4, pc}
    34c2:	0000      	movs	r0, r0
    34c4:	42000800 	.word	0x42000800
    34c8:	42000c00 	.word	0x42000c00
    34cc:	42001000 	.word	0x42001000
    34d0:	42001400 	.word	0x42001400
    34d4:	42002000 	.word	0x42002000
    34d8:	42002400 	.word	0x42002400
    34dc:	42002800 	.word	0x42002800
    34e0:	42002c00 	.word	0x42002c00
    34e4:	42003000 	.word	0x42003000
    34e8:	42003400 	.word	0x42003400
    34ec:	14141313 	.word	0x14141313
    34f0:	01001515 	.word	0x01001515
    34f4:	04000200 	.word	0x04000200
    34f8:	10000800 	.word	0x10000800
    34fc:	2000      	.short	0x2000

000034fe <CSWTCH.51>:
    34fe:	0001 0000 0000 0300 0000 0002               ............

0000350a <CSWTCH.16>:
    350a:	0000 0103 0103 0000 0000 0103 0103 0103     ................
    351a:	0000 0103 0103 0103 0000 0103 0000 0000     ................

0000352a <CSWTCH.17>:
    352a:	0000 0000 0041 0000 0023 0000 0023 0013     ....A...#...#...

0000353a <CSWTCH.18>:
    353a:	4200 0042 4240 4242 4223 4242 4223 0013     .BB.@BBB#BBB#B..

0000354a <CSWTCH.19>:
	...
    3552:	0001 0000 0001 0000 0000                    ..........

0000355c <_row_good>:
    355c:	0001 0000 0000 0000 0000 0000 0001 0000     ................
    356c:	0000 0000 0001 0000 0001 0000 0000 0000     ................
    357c:	0000 0000 0001 0000 0001 0000 0000 0000     ................
    358c:	0001 0000 0000 0000 0000 0000 0001 0000     ................
    359c:	0000 0000 0001 0000 0001 0000 0000 0000     ................
    35ac:	0001 0000 0000 0000 0000 0000 0001 0000     ................
    35bc:	0001 0000 0000 0000 0000 0000 0001 0000     ................
    35cc:	0000 0000 0001 0000 0001 0000 0000 0000     ................

000035dc <tc_interrupt_vectors.10428>:
    35dc:	0e0d 100f 1211 0000                         ........

000035e4 <_init>:
    35e4:	b5f8      	push	{r3, r4, r5, r6, r7, lr}
    35e6:	46c0      	nop			; (mov r8, r8)
    35e8:	bcf8      	pop	{r3, r4, r5, r6, r7}
    35ea:	bc08      	pop	{r3}
    35ec:	469e      	mov	lr, r3
    35ee:	4770      	bx	lr

000035f0 <__init_array_start>:
    35f0:	000000cd 	.word	0x000000cd

000035f4 <_fini>:
    35f4:	b5f8      	push	{r3, r4, r5, r6, r7, lr}
    35f6:	46c0      	nop			; (mov r8, r8)
    35f8:	bcf8      	pop	{r3, r4, r5, r6, r7}
    35fa:	bc08      	pop	{r3}
    35fc:	469e      	mov	lr, r3
    35fe:	4770      	bx	lr

00003600 <__fini_array_start>:
    3600:	000000a5 	.word	0x000000a5
