
leitorrf.elf:     file format elf32-littlearm

Sections:
Idx Name          Size      VMA       LMA       File off  Algn
  0 .text         00000330  00000000  00000000  00008000  2**2
                  CONTENTS, ALLOC, LOAD, READONLY, CODE
  1 .relocate     00000430  20000000  00000330  00010000  2**3
                  CONTENTS, ALLOC, LOAD, DATA
  2 .bss          0000001c  20000430  00000760  00010430  2**2
                  ALLOC
  3 .stack        00000204  2000044c  0000077c  00010430  2**0
                  ALLOC
  4 .ARM.attributes 00000028  00000000  00000000  00010430  2**0
                  CONTENTS, READONLY
  5 .comment      00000071  00000000  00000000  00010458  2**0
                  CONTENTS, READONLY
  6 .debug_info   0000210e  00000000  00000000  000104c9  2**0
                  CONTENTS, READONLY, DEBUGGING
  7 .debug_abbrev 000007d4  00000000  00000000  000125d7  2**0
                  CONTENTS, READONLY, DEBUGGING
  8 .debug_loc    00000417  00000000  00000000  00012dab  2**0
                  CONTENTS, READONLY, DEBUGGING
  9 .debug_aranges 000000c0  00000000  00000000  000131c2  2**0
                  CONTENTS, READONLY, DEBUGGING
 10 .debug_line   000009ac  00000000  00000000  00013282  2**0
                  CONTENTS, READONLY, DEBUGGING
 11 .debug_str    000007df  00000000  00000000  00013c2e  2**0
                  CONTENTS, READONLY, DEBUGGING
 12 .debug_frame  000000fc  00000000  00000000  00014410  2**2
                  CONTENTS, READONLY, DEBUGGING
 13 .debug_ranges 00000038  00000000  00000000  0001450c  2**0
                  CONTENTS, READONLY, DEBUGGING

Disassembly of section .text:

00000000 <_sfixed>:
   0:	20000650 	.word	0x20000650
   4:	00000161 	.word	0x00000161
   8:	0000015d 	.word	0x0000015d
   c:	0000015d 	.word	0x0000015d
	...
  2c:	0000015d 	.word	0x0000015d
	...
  38:	0000015d 	.word	0x0000015d
  3c:	0000015d 	.word	0x0000015d
  40:	0000015d 	.word	0x0000015d
  44:	0000015d 	.word	0x0000015d
  48:	0000015d 	.word	0x0000015d
  4c:	0000015d 	.word	0x0000015d
  50:	0000015d 	.word	0x0000015d
  54:	0000015d 	.word	0x0000015d
  58:	0000015d 	.word	0x0000015d
  5c:	0000015d 	.word	0x0000015d
  60:	0000015d 	.word	0x0000015d
  64:	0000015d 	.word	0x0000015d
  68:	0000015d 	.word	0x0000015d
  6c:	0000015d 	.word	0x0000015d
  70:	0000015d 	.word	0x0000015d
  74:	0000015d 	.word	0x0000015d
  78:	0000015d 	.word	0x0000015d
  7c:	0000015d 	.word	0x0000015d
  80:	0000015d 	.word	0x0000015d
  84:	0000015d 	.word	0x0000015d
  88:	0000015d 	.word	0x0000015d
  8c:	0000015d 	.word	0x0000015d
  90:	0000015d 	.word	0x0000015d
  94:	0000015d 	.word	0x0000015d
  98:	0000015d 	.word	0x0000015d
  9c:	0000015d 	.word	0x0000015d

000000a0 <deregister_tm_clones>:
  a0:	b508      	push	{r3, lr}
  a2:	4b06      	ldr	r3, [pc, #24]	; (bc <deregister_tm_clones+0x1c>)
  a4:	4806      	ldr	r0, [pc, #24]	; (c0 <deregister_tm_clones+0x20>)
  a6:	3303      	adds	r3, #3
  a8:	1a19      	subs	r1, r3, r0
  aa:	2906      	cmp	r1, #6
  ac:	d800      	bhi.n	b0 <deregister_tm_clones+0x10>
  ae:	bd08      	pop	{r3, pc}
  b0:	4a04      	ldr	r2, [pc, #16]	; (c4 <deregister_tm_clones+0x24>)
  b2:	2a00      	cmp	r2, #0
  b4:	d0fb      	beq.n	ae <deregister_tm_clones+0xe>
  b6:	4790      	blx	r2
  b8:	e7f9      	b.n	ae <deregister_tm_clones+0xe>
  ba:	46c0      	nop			; (mov r8, r8)
  bc:	00000330 	.word	0x00000330
  c0:	00000330 	.word	0x00000330
  c4:	00000000 	.word	0x00000000

000000c8 <register_tm_clones>:
  c8:	b508      	push	{r3, lr}
  ca:	4807      	ldr	r0, [pc, #28]	; (e8 <register_tm_clones+0x20>)
  cc:	4b07      	ldr	r3, [pc, #28]	; (ec <register_tm_clones+0x24>)
  ce:	1a19      	subs	r1, r3, r0
  d0:	108b      	asrs	r3, r1, #2
  d2:	0fda      	lsrs	r2, r3, #31
  d4:	18d1      	adds	r1, r2, r3
  d6:	1049      	asrs	r1, r1, #1
  d8:	d100      	bne.n	dc <register_tm_clones+0x14>
  da:	bd08      	pop	{r3, pc}
  dc:	4b04      	ldr	r3, [pc, #16]	; (f0 <register_tm_clones+0x28>)
  de:	2b00      	cmp	r3, #0
  e0:	d0fb      	beq.n	da <register_tm_clones+0x12>
  e2:	4798      	blx	r3
  e4:	e7f9      	b.n	da <register_tm_clones+0x12>
  e6:	46c0      	nop			; (mov r8, r8)
  e8:	00000330 	.word	0x00000330
  ec:	00000330 	.word	0x00000330
  f0:	00000000 	.word	0x00000000

000000f4 <__do_global_dtors_aux>:
  f4:	b510      	push	{r4, lr}
  f6:	4c07      	ldr	r4, [pc, #28]	; (114 <__do_global_dtors_aux+0x20>)
  f8:	7823      	ldrb	r3, [r4, #0]
  fa:	2b00      	cmp	r3, #0
  fc:	d109      	bne.n	112 <__do_global_dtors_aux+0x1e>
  fe:	f7ff ffcf 	bl	a0 <deregister_tm_clones>
 102:	4805      	ldr	r0, [pc, #20]	; (118 <__do_global_dtors_aux+0x24>)
 104:	2800      	cmp	r0, #0
 106:	d002      	beq.n	10e <__do_global_dtors_aux+0x1a>
 108:	4804      	ldr	r0, [pc, #16]	; (11c <__do_global_dtors_aux+0x28>)
 10a:	e000      	b.n	10e <__do_global_dtors_aux+0x1a>
 10c:	bf00      	nop
 10e:	2101      	movs	r1, #1
 110:	7021      	strb	r1, [r4, #0]
 112:	bd10      	pop	{r4, pc}
 114:	20000430 	.word	0x20000430
 118:	00000000 	.word	0x00000000
 11c:	00000330 	.word	0x00000330

00000120 <frame_dummy>:
 120:	b508      	push	{r3, lr}
 122:	4b09      	ldr	r3, [pc, #36]	; (148 <frame_dummy+0x28>)
 124:	2b00      	cmp	r3, #0
 126:	d003      	beq.n	130 <frame_dummy+0x10>
 128:	4808      	ldr	r0, [pc, #32]	; (14c <frame_dummy+0x2c>)
 12a:	4909      	ldr	r1, [pc, #36]	; (150 <frame_dummy+0x30>)
 12c:	e000      	b.n	130 <frame_dummy+0x10>
 12e:	bf00      	nop
 130:	4808      	ldr	r0, [pc, #32]	; (154 <frame_dummy+0x34>)
 132:	6801      	ldr	r1, [r0, #0]
 134:	2900      	cmp	r1, #0
 136:	d003      	beq.n	140 <frame_dummy+0x20>
 138:	4a07      	ldr	r2, [pc, #28]	; (158 <frame_dummy+0x38>)
 13a:	2a00      	cmp	r2, #0
 13c:	d000      	beq.n	140 <frame_dummy+0x20>
 13e:	4790      	blx	r2
 140:	f7ff ffc2 	bl	c8 <register_tm_clones>
 144:	bd08      	pop	{r3, pc}
 146:	46c0      	nop			; (mov r8, r8)
 148:	00000000 	.word	0x00000000
 14c:	00000330 	.word	0x00000330
 150:	20000434 	.word	0x20000434
 154:	00000330 	.word	0x00000330
 158:	00000000 	.word	0x00000000

0000015c <Dummy_Handler>:
 15c:	b500      	push	{lr}
 15e:	e7fe      	b.n	15e <Dummy_Handler+0x2>

00000160 <Reset_Handler>:
 160:	480f      	ldr	r0, [pc, #60]	; (1a0 <Reset_Handler+0x40>)
 162:	4910      	ldr	r1, [pc, #64]	; (1a4 <Reset_Handler+0x44>)
 164:	b510      	push	{r4, lr}
 166:	2300      	movs	r3, #0
 168:	4288      	cmp	r0, r1
 16a:	d101      	bne.n	170 <Reset_Handler+0x10>
 16c:	4b0e      	ldr	r3, [pc, #56]	; (1a8 <Reset_Handler+0x48>)
 16e:	e007      	b.n	180 <Reset_Handler+0x20>
 170:	4c0e      	ldr	r4, [pc, #56]	; (1ac <Reset_Handler+0x4c>)
 172:	18ca      	adds	r2, r1, r3
 174:	42a2      	cmp	r2, r4
 176:	d2f9      	bcs.n	16c <Reset_Handler+0xc>
 178:	58c4      	ldr	r4, [r0, r3]
 17a:	3304      	adds	r3, #4
 17c:	6014      	str	r4, [r2, #0]
 17e:	e7f7      	b.n	170 <Reset_Handler+0x10>
 180:	4a0b      	ldr	r2, [pc, #44]	; (1b0 <Reset_Handler+0x50>)
 182:	4293      	cmp	r3, r2
 184:	d202      	bcs.n	18c <Reset_Handler+0x2c>
 186:	2200      	movs	r2, #0
 188:	c304      	stmia	r3!, {r2}
 18a:	e7f9      	b.n	180 <Reset_Handler+0x20>
 18c:	4a09      	ldr	r2, [pc, #36]	; (1b4 <Reset_Handler+0x54>)
 18e:	4b0a      	ldr	r3, [pc, #40]	; (1b8 <Reset_Handler+0x58>)
 190:	21ff      	movs	r1, #255	; 0xff
 192:	438a      	bics	r2, r1
 194:	609a      	str	r2, [r3, #8]
 196:	4b09      	ldr	r3, [pc, #36]	; (1bc <Reset_Handler+0x5c>)
 198:	4798      	blx	r3
 19a:	4b09      	ldr	r3, [pc, #36]	; (1c0 <Reset_Handler+0x60>)
 19c:	4798      	blx	r3
 19e:	e7fe      	b.n	19e <Reset_Handler+0x3e>
 1a0:	00000330 	.word	0x00000330
 1a4:	20000000 	.word	0x20000000
 1a8:	20000430 	.word	0x20000430
 1ac:	20000430 	.word	0x20000430
 1b0:	2000044c 	.word	0x2000044c
 1b4:	00000000 	.word	0x00000000
 1b8:	e000ed00 	.word	0xe000ed00
 1bc:	00000291 	.word	0x00000291
 1c0:	000001c5 	.word	0x000001c5

000001c4 <main>:
 1c4:	b500      	push	{lr}
 1c6:	e7fe      	b.n	1c6 <main+0x2>

000001c8 <__register_exitproc>:
 1c8:	b5f7      	push	{r0, r1, r2, r4, r5, r6, r7, lr}
 1ca:	1c1e      	adds	r6, r3, #0
 1cc:	4b23      	ldr	r3, [pc, #140]	; (25c <STACK_SIZE+0x5c>)
 1ce:	1c17      	adds	r7, r2, #0
 1d0:	681a      	ldr	r2, [r3, #0]
 1d2:	1c05      	adds	r5, r0, #0
 1d4:	1c14      	adds	r4, r2, #0
 1d6:	34fc      	adds	r4, #252	; 0xfc
 1d8:	6ce0      	ldr	r0, [r4, #76]	; 0x4c
 1da:	9101      	str	r1, [sp, #4]
 1dc:	2800      	cmp	r0, #0
 1de:	d103      	bne.n	1e8 <__register_exitproc+0x20>
 1e0:	21a6      	movs	r1, #166	; 0xa6
 1e2:	0048      	lsls	r0, r1, #1
 1e4:	1810      	adds	r0, r2, r0
 1e6:	64e0      	str	r0, [r4, #76]	; 0x4c
 1e8:	6843      	ldr	r3, [r0, #4]
 1ea:	2b1f      	cmp	r3, #31
 1ec:	dd16      	ble.n	21c <STACK_SIZE+0x1c>
 1ee:	4a1c      	ldr	r2, [pc, #112]	; (260 <STACK_SIZE+0x60>)
 1f0:	2a00      	cmp	r2, #0
 1f2:	d102      	bne.n	1fa <__register_exitproc+0x32>
 1f4:	2001      	movs	r0, #1
 1f6:	4240      	negs	r0, r0
 1f8:	e02f      	b.n	25a <STACK_SIZE+0x5a>
 1fa:	21c8      	movs	r1, #200	; 0xc8
 1fc:	0048      	lsls	r0, r1, #1
 1fe:	e000      	b.n	202 <STACK_SIZE+0x2>
 200:	bf00      	nop
 202:	2800      	cmp	r0, #0
 204:	d0f6      	beq.n	1f4 <__register_exitproc+0x2c>
 206:	6ce2      	ldr	r2, [r4, #76]	; 0x4c
 208:	2300      	movs	r3, #0
 20a:	6002      	str	r2, [r0, #0]
 20c:	6043      	str	r3, [r0, #4]
 20e:	22c6      	movs	r2, #198	; 0xc6
 210:	64e0      	str	r0, [r4, #76]	; 0x4c
 212:	24c4      	movs	r4, #196	; 0xc4
 214:	0061      	lsls	r1, r4, #1
 216:	0054      	lsls	r4, r2, #1
 218:	5043      	str	r3, [r0, r1]
 21a:	5103      	str	r3, [r0, r4]
 21c:	6843      	ldr	r3, [r0, #4]
 21e:	2d00      	cmp	r5, #0
 220:	d014      	beq.n	24c <STACK_SIZE+0x4c>
 222:	1c04      	adds	r4, r0, #0
 224:	3488      	adds	r4, #136	; 0x88
 226:	0099      	lsls	r1, r3, #2
 228:	510f      	str	r7, [r1, r4]
 22a:	27c2      	movs	r7, #194	; 0xc2
 22c:	007a      	lsls	r2, r7, #1
 22e:	1882      	adds	r2, r0, r2
 230:	6857      	ldr	r7, [r2, #4]
 232:	2101      	movs	r1, #1
 234:	4099      	lsls	r1, r3
 236:	430f      	orrs	r7, r1
 238:	6057      	str	r7, [r2, #4]
 23a:	1c1f      	adds	r7, r3, #0
 23c:	3720      	adds	r7, #32
 23e:	00bf      	lsls	r7, r7, #2
 240:	513e      	str	r6, [r7, r4]
 242:	2d02      	cmp	r5, #2
 244:	d102      	bne.n	24c <STACK_SIZE+0x4c>
 246:	6895      	ldr	r5, [r2, #8]
 248:	4329      	orrs	r1, r5
 24a:	6091      	str	r1, [r2, #8]
 24c:	1c9e      	adds	r6, r3, #2
 24e:	9901      	ldr	r1, [sp, #4]
 250:	00b4      	lsls	r4, r6, #2
 252:	3301      	adds	r3, #1
 254:	5021      	str	r1, [r4, r0]
 256:	6043      	str	r3, [r0, #4]
 258:	2000      	movs	r0, #0
 25a:	bdfe      	pop	{r1, r2, r3, r4, r5, r6, r7, pc}
 25c:	00000304 	.word	0x00000304
 260:	00000000 	.word	0x00000000

00000264 <__libc_fini_array>:
 264:	b538      	push	{r3, r4, r5, lr}
 266:	4b08      	ldr	r3, [pc, #32]	; (288 <__libc_fini_array+0x24>)
 268:	4c08      	ldr	r4, [pc, #32]	; (28c <__libc_fini_array+0x28>)
 26a:	1c1d      	adds	r5, r3, #0
 26c:	1ae0      	subs	r0, r4, r3
 26e:	1084      	asrs	r4, r0, #2
 270:	2c00      	cmp	r4, #0
 272:	d006      	beq.n	282 <__libc_fini_array+0x1e>
 274:	00a1      	lsls	r1, r4, #2
 276:	186a      	adds	r2, r5, r1
 278:	3a04      	subs	r2, #4
 27a:	6813      	ldr	r3, [r2, #0]
 27c:	4798      	blx	r3
 27e:	3c01      	subs	r4, #1
 280:	e7f6      	b.n	270 <__libc_fini_array+0xc>
 282:	f000 f84d 	bl	320 <_fini>
 286:	bd38      	pop	{r3, r4, r5, pc}
 288:	0000032c 	.word	0x0000032c
 28c:	00000330 	.word	0x00000330

00000290 <__libc_init_array>:
 290:	b570      	push	{r4, r5, r6, lr}
 292:	4b0e      	ldr	r3, [pc, #56]	; (2cc <__libc_init_array+0x3c>)
 294:	4d0e      	ldr	r5, [pc, #56]	; (2d0 <__libc_init_array+0x40>)
 296:	2400      	movs	r4, #0
 298:	1ae8      	subs	r0, r5, r3
 29a:	1085      	asrs	r5, r0, #2
 29c:	1c1e      	adds	r6, r3, #0
 29e:	42ac      	cmp	r4, r5
 2a0:	d004      	beq.n	2ac <__libc_init_array+0x1c>
 2a2:	00a1      	lsls	r1, r4, #2
 2a4:	5872      	ldr	r2, [r6, r1]
 2a6:	4790      	blx	r2
 2a8:	3401      	adds	r4, #1
 2aa:	e7f8      	b.n	29e <__libc_init_array+0xe>
 2ac:	f000 f82e 	bl	30c <_init>
 2b0:	4908      	ldr	r1, [pc, #32]	; (2d4 <__libc_init_array+0x44>)
 2b2:	4a09      	ldr	r2, [pc, #36]	; (2d8 <__libc_init_array+0x48>)
 2b4:	1c0e      	adds	r6, r1, #0
 2b6:	1a54      	subs	r4, r2, r1
 2b8:	10a5      	asrs	r5, r4, #2
 2ba:	2400      	movs	r4, #0
 2bc:	42ac      	cmp	r4, r5
 2be:	d004      	beq.n	2ca <__libc_init_array+0x3a>
 2c0:	00a3      	lsls	r3, r4, #2
 2c2:	58f0      	ldr	r0, [r6, r3]
 2c4:	4780      	blx	r0
 2c6:	3401      	adds	r4, #1
 2c8:	e7f8      	b.n	2bc <__libc_init_array+0x2c>
 2ca:	bd70      	pop	{r4, r5, r6, pc}
 2cc:	00000318 	.word	0x00000318
 2d0:	00000318 	.word	0x00000318
 2d4:	00000318 	.word	0x00000318
 2d8:	00000320 	.word	0x00000320

000002dc <register_fini>:
 2dc:	b508      	push	{r3, lr}
 2de:	4b03      	ldr	r3, [pc, #12]	; (2ec <register_fini+0x10>)
 2e0:	2b00      	cmp	r3, #0
 2e2:	d002      	beq.n	2ea <register_fini+0xe>
 2e4:	4802      	ldr	r0, [pc, #8]	; (2f0 <register_fini+0x14>)
 2e6:	f000 f805 	bl	2f4 <atexit>
 2ea:	bd08      	pop	{r3, pc}
 2ec:	00000000 	.word	0x00000000
 2f0:	00000265 	.word	0x00000265

000002f4 <atexit>:
 2f4:	b508      	push	{r3, lr}
 2f6:	1c01      	adds	r1, r0, #0
 2f8:	2000      	movs	r0, #0
 2fa:	1c02      	adds	r2, r0, #0
 2fc:	1c03      	adds	r3, r0, #0
 2fe:	f7ff ff63 	bl	1c8 <__register_exitproc>
 302:	bd08      	pop	{r3, pc}

00000304 <_global_impure_ptr>:
 304:	0008 2000 0043 0000                         ... C...

0000030c <_init>:
 30c:	b5f8      	push	{r3, r4, r5, r6, r7, lr}
 30e:	46c0      	nop			; (mov r8, r8)
 310:	bcf8      	pop	{r3, r4, r5, r6, r7}
 312:	bc08      	pop	{r3}
 314:	469e      	mov	lr, r3
 316:	4770      	bx	lr

00000318 <__init_array_start>:
 318:	000002dd 	.word	0x000002dd

0000031c <__frame_dummy_init_array_entry>:
 31c:	00000121                                !...

00000320 <_fini>:
 320:	b5f8      	push	{r3, r4, r5, r6, r7, lr}
 322:	46c0      	nop			; (mov r8, r8)
 324:	bcf8      	pop	{r3, r4, r5, r6, r7}
 326:	bc08      	pop	{r3}
 328:	469e      	mov	lr, r3
 32a:	4770      	bx	lr

0000032c <__fini_array_start>:
 32c:	000000f5 	.word	0x000000f5
